
I2S Audio2.elf:     file format elf32-littlearm

Sections:
Idx Name          Size      VMA       LMA       File off  Algn
  0 .isr_vector   00000188  08000000  08000000  00010000  2**0
                  CONTENTS, ALLOC, LOAD, READONLY, DATA
  1 .text         00007708  08000190  08000190  00010190  2**4
                  CONTENTS, ALLOC, LOAD, READONLY, CODE
  2 .rodata       0002ad64  08007898  08007898  00017898  2**2
                  CONTENTS, ALLOC, LOAD, READONLY, DATA
  3 .ARM.extab    00000000  080325fc  080325fc  000500fc  2**0
                  CONTENTS
  4 .ARM          00000008  080325fc  080325fc  000425fc  2**2
                  CONTENTS, ALLOC, LOAD, READONLY, DATA
  5 .preinit_array 00000000  08032604  08032604  000500fc  2**0
                  CONTENTS, ALLOC, LOAD, DATA
  6 .init_array   00000004  08032604  08032604  00042604  2**2
                  CONTENTS, ALLOC, LOAD, DATA
  7 .fini_array   00000004  08032608  08032608  00042608  2**2
                  CONTENTS, ALLOC, LOAD, DATA
  8 .data         000000fc  20000000  0803260c  00050000  2**2
                  CONTENTS, ALLOC, LOAD, DATA
  9 .bss          00016008  200000fc  08032708  000500fc  2**2
                  ALLOC
 10 ._user_heap_stack 00000604  20016104  08032708  00056104  2**0
                  ALLOC
 11 .ARM.attributes 00000030  00000000  00000000  000500fc  2**0
                  CONTENTS, READONLY
 12 .comment      00000053  00000000  00000000  0005012c  2**0
                  CONTENTS, READONLY
 13 .debug_frame  00000a44  00000000  00000000  00050180  2**2
                  CONTENTS, READONLY, DEBUGGING, OCTETS

Disassembly of section .text:

08000190 <__do_global_dtors_aux>:
 8000190:	b510      	push	{r4, lr}
 8000192:	4c05      	ldr	r4, [pc, #20]	; (80001a8 <__do_global_dtors_aux+0x18>)
 8000194:	7823      	ldrb	r3, [r4, #0]
 8000196:	b933      	cbnz	r3, 80001a6 <__do_global_dtors_aux+0x16>
 8000198:	4b04      	ldr	r3, [pc, #16]	; (80001ac <__do_global_dtors_aux+0x1c>)
 800019a:	b113      	cbz	r3, 80001a2 <__do_global_dtors_aux+0x12>
 800019c:	4804      	ldr	r0, [pc, #16]	; (80001b0 <__do_global_dtors_aux+0x20>)
 800019e:	f3af 8000 	nop.w
 80001a2:	2301      	movs	r3, #1
 80001a4:	7023      	strb	r3, [r4, #0]
 80001a6:	bd10      	pop	{r4, pc}
 80001a8:	200000fc 	.word	0x200000fc
 80001ac:	00000000 	.word	0x00000000
 80001b0:	08007880 	.word	0x08007880

080001b4 <frame_dummy>:
 80001b4:	b508      	push	{r3, lr}
 80001b6:	4b03      	ldr	r3, [pc, #12]	; (80001c4 <frame_dummy+0x10>)
 80001b8:	b11b      	cbz	r3, 80001c2 <frame_dummy+0xe>
 80001ba:	4903      	ldr	r1, [pc, #12]	; (80001c8 <frame_dummy+0x14>)
 80001bc:	4803      	ldr	r0, [pc, #12]	; (80001cc <frame_dummy+0x18>)
 80001be:	f3af 8000 	nop.w
 80001c2:	bd08      	pop	{r3, pc}
 80001c4:	00000000 	.word	0x00000000
 80001c8:	20000100 	.word	0x20000100
 80001cc:	08007880 	.word	0x08007880

080001d0 <strlen>:
 80001d0:	4603      	mov	r3, r0
 80001d2:	f813 2b01 	ldrb.w	r2, [r3], #1
 80001d6:	2a00      	cmp	r2, #0
 80001d8:	d1fb      	bne.n	80001d2 <strlen+0x2>
 80001da:	1a18      	subs	r0, r3, r0
 80001dc:	3801      	subs	r0, #1
 80001de:	4770      	bx	lr

080001e0 <memchr>:
 80001e0:	f001 01ff 	and.w	r1, r1, #255	; 0xff
 80001e4:	2a10      	cmp	r2, #16
 80001e6:	db2b      	blt.n	8000240 <memchr+0x60>
 80001e8:	f010 0f07 	tst.w	r0, #7
 80001ec:	d008      	beq.n	8000200 <memchr+0x20>
 80001ee:	f810 3b01 	ldrb.w	r3, [r0], #1
 80001f2:	3a01      	subs	r2, #1
 80001f4:	428b      	cmp	r3, r1
 80001f6:	d02d      	beq.n	8000254 <memchr+0x74>
 80001f8:	f010 0f07 	tst.w	r0, #7
 80001fc:	b342      	cbz	r2, 8000250 <memchr+0x70>
 80001fe:	d1f6      	bne.n	80001ee <memchr+0xe>
 8000200:	b4f0      	push	{r4, r5, r6, r7}
 8000202:	ea41 2101 	orr.w	r1, r1, r1, lsl #8
 8000206:	ea41 4101 	orr.w	r1, r1, r1, lsl #16
 800020a:	f022 0407 	bic.w	r4, r2, #7
 800020e:	f07f 0700 	mvns.w	r7, #0
 8000212:	2300      	movs	r3, #0
 8000214:	e8f0 5602 	ldrd	r5, r6, [r0], #8
 8000218:	3c08      	subs	r4, #8
 800021a:	ea85 0501 	eor.w	r5, r5, r1
 800021e:	ea86 0601 	eor.w	r6, r6, r1
 8000222:	fa85 f547 	uadd8	r5, r5, r7
 8000226:	faa3 f587 	sel	r5, r3, r7
 800022a:	fa86 f647 	uadd8	r6, r6, r7
 800022e:	faa5 f687 	sel	r6, r5, r7
 8000232:	b98e      	cbnz	r6, 8000258 <memchr+0x78>
 8000234:	d1ee      	bne.n	8000214 <memchr+0x34>
 8000236:	bcf0      	pop	{r4, r5, r6, r7}
 8000238:	f001 01ff 	and.w	r1, r1, #255	; 0xff
 800023c:	f002 0207 	and.w	r2, r2, #7
 8000240:	b132      	cbz	r2, 8000250 <memchr+0x70>
 8000242:	f810 3b01 	ldrb.w	r3, [r0], #1
 8000246:	3a01      	subs	r2, #1
 8000248:	ea83 0301 	eor.w	r3, r3, r1
 800024c:	b113      	cbz	r3, 8000254 <memchr+0x74>
 800024e:	d1f8      	bne.n	8000242 <memchr+0x62>
 8000250:	2000      	movs	r0, #0
 8000252:	4770      	bx	lr
 8000254:	3801      	subs	r0, #1
 8000256:	4770      	bx	lr
 8000258:	2d00      	cmp	r5, #0
 800025a:	bf06      	itte	eq
 800025c:	4635      	moveq	r5, r6
 800025e:	3803      	subeq	r0, #3
 8000260:	3807      	subne	r0, #7
 8000262:	f015 0f01 	tst.w	r5, #1
 8000266:	d107      	bne.n	8000278 <memchr+0x98>
 8000268:	3001      	adds	r0, #1
 800026a:	f415 7f80 	tst.w	r5, #256	; 0x100
 800026e:	bf02      	ittt	eq
 8000270:	3001      	addeq	r0, #1
 8000272:	f415 3fc0 	tsteq.w	r5, #98304	; 0x18000
 8000276:	3001      	addeq	r0, #1
 8000278:	bcf0      	pop	{r4, r5, r6, r7}
 800027a:	3801      	subs	r0, #1
 800027c:	4770      	bx	lr
 800027e:	bf00      	nop

08000280 <__aeabi_uldivmod>:
 8000280:	b953      	cbnz	r3, 8000298 <__aeabi_uldivmod+0x18>
 8000282:	b94a      	cbnz	r2, 8000298 <__aeabi_uldivmod+0x18>
 8000284:	2900      	cmp	r1, #0
 8000286:	bf08      	it	eq
 8000288:	2800      	cmpeq	r0, #0
 800028a:	bf1c      	itt	ne
 800028c:	f04f 31ff 	movne.w	r1, #4294967295
 8000290:	f04f 30ff 	movne.w	r0, #4294967295
 8000294:	f000 b96e 	b.w	8000574 <__aeabi_idiv0>
 8000298:	f1ad 0c08 	sub.w	ip, sp, #8
 800029c:	e96d ce04 	strd	ip, lr, [sp, #-16]!
 80002a0:	f000 f806 	bl	80002b0 <__udivmoddi4>
 80002a4:	f8dd e004 	ldr.w	lr, [sp, #4]
 80002a8:	e9dd 2302 	ldrd	r2, r3, [sp, #8]
 80002ac:	b004      	add	sp, #16
 80002ae:	4770      	bx	lr

080002b0 <__udivmoddi4>:
 80002b0:	e92d 47f0 	stmdb	sp!, {r4, r5, r6, r7, r8, r9, sl, lr}
 80002b4:	9d08      	ldr	r5, [sp, #32]
 80002b6:	4604      	mov	r4, r0
 80002b8:	468c      	mov	ip, r1
 80002ba:	2b00      	cmp	r3, #0
 80002bc:	f040 8083 	bne.w	80003c6 <__udivmoddi4+0x116>
 80002c0:	428a      	cmp	r2, r1
 80002c2:	4617      	mov	r7, r2
 80002c4:	d947      	bls.n	8000356 <__udivmoddi4+0xa6>
 80002c6:	fab2 f282 	clz	r2, r2
 80002ca:	b142      	cbz	r2, 80002de <__udivmoddi4+0x2e>
 80002cc:	f1c2 0020 	rsb	r0, r2, #32
 80002d0:	fa24 f000 	lsr.w	r0, r4, r0
 80002d4:	4091      	lsls	r1, r2
 80002d6:	4097      	lsls	r7, r2
 80002d8:	ea40 0c01 	orr.w	ip, r0, r1
 80002dc:	4094      	lsls	r4, r2
 80002de:	ea4f 4817 	mov.w	r8, r7, lsr #16
 80002e2:	0c23      	lsrs	r3, r4, #16
 80002e4:	fbbc f6f8 	udiv	r6, ip, r8
 80002e8:	fa1f fe87 	uxth.w	lr, r7
 80002ec:	fb08 c116 	mls	r1, r8, r6, ip
 80002f0:	ea43 4301 	orr.w	r3, r3, r1, lsl #16
 80002f4:	fb06 f10e 	mul.w	r1, r6, lr
 80002f8:	4299      	cmp	r1, r3
 80002fa:	d909      	bls.n	8000310 <__udivmoddi4+0x60>
 80002fc:	18fb      	adds	r3, r7, r3
 80002fe:	f106 30ff 	add.w	r0, r6, #4294967295
 8000302:	f080 8119 	bcs.w	8000538 <__udivmoddi4+0x288>
 8000306:	4299      	cmp	r1, r3
 8000308:	f240 8116 	bls.w	8000538 <__udivmoddi4+0x288>
 800030c:	3e02      	subs	r6, #2
 800030e:	443b      	add	r3, r7
 8000310:	1a5b      	subs	r3, r3, r1
 8000312:	b2a4      	uxth	r4, r4
 8000314:	fbb3 f0f8 	udiv	r0, r3, r8
 8000318:	fb08 3310 	mls	r3, r8, r0, r3
 800031c:	ea44 4403 	orr.w	r4, r4, r3, lsl #16
 8000320:	fb00 fe0e 	mul.w	lr, r0, lr
 8000324:	45a6      	cmp	lr, r4
 8000326:	d909      	bls.n	800033c <__udivmoddi4+0x8c>
 8000328:	193c      	adds	r4, r7, r4
 800032a:	f100 33ff 	add.w	r3, r0, #4294967295
 800032e:	f080 8105 	bcs.w	800053c <__udivmoddi4+0x28c>
 8000332:	45a6      	cmp	lr, r4
 8000334:	f240 8102 	bls.w	800053c <__udivmoddi4+0x28c>
 8000338:	3802      	subs	r0, #2
 800033a:	443c      	add	r4, r7
 800033c:	ea40 4006 	orr.w	r0, r0, r6, lsl #16
 8000340:	eba4 040e 	sub.w	r4, r4, lr
 8000344:	2600      	movs	r6, #0
 8000346:	b11d      	cbz	r5, 8000350 <__udivmoddi4+0xa0>
 8000348:	40d4      	lsrs	r4, r2
 800034a:	2300      	movs	r3, #0
 800034c:	e9c5 4300 	strd	r4, r3, [r5]
 8000350:	4631      	mov	r1, r6
 8000352:	e8bd 87f0 	ldmia.w	sp!, {r4, r5, r6, r7, r8, r9, sl, pc}
 8000356:	b902      	cbnz	r2, 800035a <__udivmoddi4+0xaa>
 8000358:	deff      	udf	#255	; 0xff
 800035a:	fab2 f282 	clz	r2, r2
 800035e:	2a00      	cmp	r2, #0
 8000360:	d150      	bne.n	8000404 <__udivmoddi4+0x154>
 8000362:	1bcb      	subs	r3, r1, r7
 8000364:	ea4f 4e17 	mov.w	lr, r7, lsr #16
 8000368:	fa1f f887 	uxth.w	r8, r7
 800036c:	2601      	movs	r6, #1
 800036e:	fbb3 fcfe 	udiv	ip, r3, lr
 8000372:	0c21      	lsrs	r1, r4, #16
 8000374:	fb0e 331c 	mls	r3, lr, ip, r3
 8000378:	ea41 4103 	orr.w	r1, r1, r3, lsl #16
 800037c:	fb08 f30c 	mul.w	r3, r8, ip
 8000380:	428b      	cmp	r3, r1
 8000382:	d907      	bls.n	8000394 <__udivmoddi4+0xe4>
 8000384:	1879      	adds	r1, r7, r1
 8000386:	f10c 30ff 	add.w	r0, ip, #4294967295
 800038a:	d202      	bcs.n	8000392 <__udivmoddi4+0xe2>
 800038c:	428b      	cmp	r3, r1
 800038e:	f200 80e9 	bhi.w	8000564 <__udivmoddi4+0x2b4>
 8000392:	4684      	mov	ip, r0
 8000394:	1ac9      	subs	r1, r1, r3
 8000396:	b2a3      	uxth	r3, r4
 8000398:	fbb1 f0fe 	udiv	r0, r1, lr
 800039c:	fb0e 1110 	mls	r1, lr, r0, r1
 80003a0:	ea43 4401 	orr.w	r4, r3, r1, lsl #16
 80003a4:	fb08 f800 	mul.w	r8, r8, r0
 80003a8:	45a0      	cmp	r8, r4
 80003aa:	d907      	bls.n	80003bc <__udivmoddi4+0x10c>
 80003ac:	193c      	adds	r4, r7, r4
 80003ae:	f100 33ff 	add.w	r3, r0, #4294967295
 80003b2:	d202      	bcs.n	80003ba <__udivmoddi4+0x10a>
 80003b4:	45a0      	cmp	r8, r4
 80003b6:	f200 80d9 	bhi.w	800056c <__udivmoddi4+0x2bc>
 80003ba:	4618      	mov	r0, r3
 80003bc:	eba4 0408 	sub.w	r4, r4, r8
 80003c0:	ea40 400c 	orr.w	r0, r0, ip, lsl #16
 80003c4:	e7bf      	b.n	8000346 <__udivmoddi4+0x96>
 80003c6:	428b      	cmp	r3, r1
 80003c8:	d909      	bls.n	80003de <__udivmoddi4+0x12e>
 80003ca:	2d00      	cmp	r5, #0
 80003cc:	f000 80b1 	beq.w	8000532 <__udivmoddi4+0x282>
 80003d0:	2600      	movs	r6, #0
 80003d2:	e9c5 0100 	strd	r0, r1, [r5]
 80003d6:	4630      	mov	r0, r6
 80003d8:	4631      	mov	r1, r6
 80003da:	e8bd 87f0 	ldmia.w	sp!, {r4, r5, r6, r7, r8, r9, sl, pc}
 80003de:	fab3 f683 	clz	r6, r3
 80003e2:	2e00      	cmp	r6, #0
 80003e4:	d14a      	bne.n	800047c <__udivmoddi4+0x1cc>
 80003e6:	428b      	cmp	r3, r1
 80003e8:	d302      	bcc.n	80003f0 <__udivmoddi4+0x140>
 80003ea:	4282      	cmp	r2, r0
 80003ec:	f200 80b8 	bhi.w	8000560 <__udivmoddi4+0x2b0>
 80003f0:	1a84      	subs	r4, r0, r2
 80003f2:	eb61 0103 	sbc.w	r1, r1, r3
 80003f6:	2001      	movs	r0, #1
 80003f8:	468c      	mov	ip, r1
 80003fa:	2d00      	cmp	r5, #0
 80003fc:	d0a8      	beq.n	8000350 <__udivmoddi4+0xa0>
 80003fe:	e9c5 4c00 	strd	r4, ip, [r5]
 8000402:	e7a5      	b.n	8000350 <__udivmoddi4+0xa0>
 8000404:	f1c2 0320 	rsb	r3, r2, #32
 8000408:	fa20 f603 	lsr.w	r6, r0, r3
 800040c:	4097      	lsls	r7, r2
 800040e:	fa01 f002 	lsl.w	r0, r1, r2
 8000412:	ea4f 4e17 	mov.w	lr, r7, lsr #16
 8000416:	40d9      	lsrs	r1, r3
 8000418:	4330      	orrs	r0, r6
 800041a:	0c03      	lsrs	r3, r0, #16
 800041c:	fbb1 f6fe 	udiv	r6, r1, lr
 8000420:	fa1f f887 	uxth.w	r8, r7
 8000424:	fb0e 1116 	mls	r1, lr, r6, r1
 8000428:	ea43 4301 	orr.w	r3, r3, r1, lsl #16
 800042c:	fb06 f108 	mul.w	r1, r6, r8
 8000430:	4299      	cmp	r1, r3
 8000432:	fa04 f402 	lsl.w	r4, r4, r2
 8000436:	d909      	bls.n	800044c <__udivmoddi4+0x19c>
 8000438:	18fb      	adds	r3, r7, r3
 800043a:	f106 3cff 	add.w	ip, r6, #4294967295
 800043e:	f080 808d 	bcs.w	800055c <__udivmoddi4+0x2ac>
 8000442:	4299      	cmp	r1, r3
 8000444:	f240 808a 	bls.w	800055c <__udivmoddi4+0x2ac>
 8000448:	3e02      	subs	r6, #2
 800044a:	443b      	add	r3, r7
 800044c:	1a5b      	subs	r3, r3, r1
 800044e:	b281      	uxth	r1, r0
 8000450:	fbb3 f0fe 	udiv	r0, r3, lr
 8000454:	fb0e 3310 	mls	r3, lr, r0, r3
 8000458:	ea41 4103 	orr.w	r1, r1, r3, lsl #16
 800045c:	fb00 f308 	mul.w	r3, r0, r8
 8000460:	428b      	cmp	r3, r1
 8000462:	d907      	bls.n	8000474 <__udivmoddi4+0x1c4>
 8000464:	1879      	adds	r1, r7, r1
 8000466:	f100 3cff 	add.w	ip, r0, #4294967295
 800046a:	d273      	bcs.n	8000554 <__udivmoddi4+0x2a4>
 800046c:	428b      	cmp	r3, r1
 800046e:	d971      	bls.n	8000554 <__udivmoddi4+0x2a4>
 8000470:	3802      	subs	r0, #2
 8000472:	4439      	add	r1, r7
 8000474:	1acb      	subs	r3, r1, r3
 8000476:	ea40 4606 	orr.w	r6, r0, r6, lsl #16
 800047a:	e778      	b.n	800036e <__udivmoddi4+0xbe>
 800047c:	f1c6 0c20 	rsb	ip, r6, #32
 8000480:	fa03 f406 	lsl.w	r4, r3, r6
 8000484:	fa22 f30c 	lsr.w	r3, r2, ip
 8000488:	431c      	orrs	r4, r3
 800048a:	fa20 f70c 	lsr.w	r7, r0, ip
 800048e:	fa01 f306 	lsl.w	r3, r1, r6
 8000492:	ea4f 4e14 	mov.w	lr, r4, lsr #16
 8000496:	fa21 f10c 	lsr.w	r1, r1, ip
 800049a:	431f      	orrs	r7, r3
 800049c:	0c3b      	lsrs	r3, r7, #16
 800049e:	fbb1 f9fe 	udiv	r9, r1, lr
 80004a2:	fa1f f884 	uxth.w	r8, r4
 80004a6:	fb0e 1119 	mls	r1, lr, r9, r1
 80004aa:	ea43 4101 	orr.w	r1, r3, r1, lsl #16
 80004ae:	fb09 fa08 	mul.w	sl, r9, r8
 80004b2:	458a      	cmp	sl, r1
 80004b4:	fa02 f206 	lsl.w	r2, r2, r6
 80004b8:	fa00 f306 	lsl.w	r3, r0, r6
 80004bc:	d908      	bls.n	80004d0 <__udivmoddi4+0x220>
 80004be:	1861      	adds	r1, r4, r1
 80004c0:	f109 30ff 	add.w	r0, r9, #4294967295
 80004c4:	d248      	bcs.n	8000558 <__udivmoddi4+0x2a8>
 80004c6:	458a      	cmp	sl, r1
 80004c8:	d946      	bls.n	8000558 <__udivmoddi4+0x2a8>
 80004ca:	f1a9 0902 	sub.w	r9, r9, #2
 80004ce:	4421      	add	r1, r4
 80004d0:	eba1 010a 	sub.w	r1, r1, sl
 80004d4:	b2bf      	uxth	r7, r7
 80004d6:	fbb1 f0fe 	udiv	r0, r1, lr
 80004da:	fb0e 1110 	mls	r1, lr, r0, r1
 80004de:	ea47 4701 	orr.w	r7, r7, r1, lsl #16
 80004e2:	fb00 f808 	mul.w	r8, r0, r8
 80004e6:	45b8      	cmp	r8, r7
 80004e8:	d907      	bls.n	80004fa <__udivmoddi4+0x24a>
 80004ea:	19e7      	adds	r7, r4, r7
 80004ec:	f100 31ff 	add.w	r1, r0, #4294967295
 80004f0:	d22e      	bcs.n	8000550 <__udivmoddi4+0x2a0>
 80004f2:	45b8      	cmp	r8, r7
 80004f4:	d92c      	bls.n	8000550 <__udivmoddi4+0x2a0>
 80004f6:	3802      	subs	r0, #2
 80004f8:	4427      	add	r7, r4
 80004fa:	ea40 4009 	orr.w	r0, r0, r9, lsl #16
 80004fe:	eba7 0708 	sub.w	r7, r7, r8
 8000502:	fba0 8902 	umull	r8, r9, r0, r2
 8000506:	454f      	cmp	r7, r9
 8000508:	46c6      	mov	lr, r8
 800050a:	4649      	mov	r1, r9
 800050c:	d31a      	bcc.n	8000544 <__udivmoddi4+0x294>
 800050e:	d017      	beq.n	8000540 <__udivmoddi4+0x290>
 8000510:	b15d      	cbz	r5, 800052a <__udivmoddi4+0x27a>
 8000512:	ebb3 020e 	subs.w	r2, r3, lr
 8000516:	eb67 0701 	sbc.w	r7, r7, r1
 800051a:	fa07 fc0c 	lsl.w	ip, r7, ip
 800051e:	40f2      	lsrs	r2, r6
 8000520:	ea4c 0202 	orr.w	r2, ip, r2
 8000524:	40f7      	lsrs	r7, r6
 8000526:	e9c5 2700 	strd	r2, r7, [r5]
 800052a:	2600      	movs	r6, #0
 800052c:	4631      	mov	r1, r6
 800052e:	e8bd 87f0 	ldmia.w	sp!, {r4, r5, r6, r7, r8, r9, sl, pc}
 8000532:	462e      	mov	r6, r5
 8000534:	4628      	mov	r0, r5
 8000536:	e70b      	b.n	8000350 <__udivmoddi4+0xa0>
 8000538:	4606      	mov	r6, r0
 800053a:	e6e9      	b.n	8000310 <__udivmoddi4+0x60>
 800053c:	4618      	mov	r0, r3
 800053e:	e6fd      	b.n	800033c <__udivmoddi4+0x8c>
 8000540:	4543      	cmp	r3, r8
 8000542:	d2e5      	bcs.n	8000510 <__udivmoddi4+0x260>
 8000544:	ebb8 0e02 	subs.w	lr, r8, r2
 8000548:	eb69 0104 	sbc.w	r1, r9, r4
 800054c:	3801      	subs	r0, #1
 800054e:	e7df      	b.n	8000510 <__udivmoddi4+0x260>
 8000550:	4608      	mov	r0, r1
 8000552:	e7d2      	b.n	80004fa <__udivmoddi4+0x24a>
 8000554:	4660      	mov	r0, ip
 8000556:	e78d      	b.n	8000474 <__udivmoddi4+0x1c4>
 8000558:	4681      	mov	r9, r0
 800055a:	e7b9      	b.n	80004d0 <__udivmoddi4+0x220>
 800055c:	4666      	mov	r6, ip
 800055e:	e775      	b.n	800044c <__udivmoddi4+0x19c>
 8000560:	4630      	mov	r0, r6
 8000562:	e74a      	b.n	80003fa <__udivmoddi4+0x14a>
 8000564:	f1ac 0c02 	sub.w	ip, ip, #2
 8000568:	4439      	add	r1, r7
 800056a:	e713      	b.n	8000394 <__udivmoddi4+0xe4>
 800056c:	3802      	subs	r0, #2
 800056e:	443c      	add	r4, r7
 8000570:	e724      	b.n	80003bc <__udivmoddi4+0x10c>
 8000572:	bf00      	nop

08000574 <__aeabi_idiv0>:
 8000574:	4770      	bx	lr
 8000576:	bf00      	nop

08000578 <WM8978_Register_Wirter>:
 8000578:	b57f      	push	{r0, r1, r2, r3, r4, r5, r6, lr}
 800057a:	2300      	movs	r3, #0
 800057c:	e9cd 3303 	strd	r3, r3, [sp, #12]
 8000580:	f8ad 3014 	strh.w	r3, [sp, #20]
 8000584:	f3c1 2300 	ubfx	r3, r1, #8, #1
 8000588:	ea43 0340 	orr.w	r3, r3, r0, lsl #1
 800058c:	f88d 300c 	strb.w	r3, [sp, #12]
 8000590:	4b08      	ldr	r3, [pc, #32]	; (80005b4 <WM8978_Register_Wirter+0x3c>)
 8000592:	f88d 100d 	strb.w	r1, [sp, #13]
 8000596:	f823 1010 	strh.w	r1, [r3, r0, lsl #1]
 800059a:	f44f 737a 	mov.w	r3, #1000	; 0x3e8
 800059e:	9300      	str	r3, [sp, #0]
 80005a0:	aa03      	add	r2, sp, #12
 80005a2:	2302      	movs	r3, #2
 80005a4:	2134      	movs	r1, #52	; 0x34
 80005a6:	4804      	ldr	r0, [pc, #16]	; (80005b8 <WM8978_Register_Wirter+0x40>)
 80005a8:	f001 fec0 	bl	800232c <HAL_I2C_Master_Transmit>
 80005ac:	b007      	add	sp, #28
 80005ae:	f85d fb04 	ldr.w	pc, [sp], #4
 80005b2:	bf00      	nop
 80005b4:	20000000 	.word	0x20000000
 80005b8:	20000610 	.word	0x20000610

080005bc <WM8978_I2S_Cfg>:
 80005bc:	f001 0103 	and.w	r1, r1, #3
 80005c0:	f000 0003 	and.w	r0, r0, #3
 80005c4:	0149      	lsls	r1, r1, #5
 80005c6:	ea41 01c0 	orr.w	r1, r1, r0, lsl #3
 80005ca:	2004      	movs	r0, #4
 80005cc:	f7ff bfd4 	b.w	8000578 <WM8978_Register_Wirter>

080005d0 <WM8978_ADDA_Cfg>:
 80005d0:	b538      	push	{r3, r4, r5, lr}
 80005d2:	4c0d      	ldr	r4, [pc, #52]	; (8000608 <WM8978_ADDA_Cfg+0x38>)
 80005d4:	460d      	mov	r5, r1
 80005d6:	88e3      	ldrh	r3, [r4, #6]
 80005d8:	b168      	cbz	r0, 80005f6 <WM8978_ADDA_Cfg+0x26>
 80005da:	f043 0103 	orr.w	r1, r3, #3
 80005de:	2003      	movs	r0, #3
 80005e0:	f7ff ffca 	bl	8000578 <WM8978_Register_Wirter>
 80005e4:	88a3      	ldrh	r3, [r4, #4]
 80005e6:	b155      	cbz	r5, 80005fe <WM8978_ADDA_Cfg+0x2e>
 80005e8:	f043 0103 	orr.w	r1, r3, #3
 80005ec:	e8bd 4038 	ldmia.w	sp!, {r3, r4, r5, lr}
 80005f0:	2002      	movs	r0, #2
 80005f2:	f7ff bfc1 	b.w	8000578 <WM8978_Register_Wirter>
 80005f6:	f023 0303 	bic.w	r3, r3, #3
 80005fa:	b299      	uxth	r1, r3
 80005fc:	e7ef      	b.n	80005de <WM8978_ADDA_Cfg+0xe>
 80005fe:	f023 0103 	bic.w	r1, r3, #3
 8000602:	b289      	uxth	r1, r1
 8000604:	e7f2      	b.n	80005ec <WM8978_ADDA_Cfg+0x1c>
 8000606:	bf00      	nop
 8000608:	20000000 	.word	0x20000000

0800060c <WM8978_AUX_Gain>:
 800060c:	b538      	push	{r3, r4, r5, lr}
 800060e:	4d0b      	ldr	r5, [pc, #44]	; (800063c <WM8978_AUX_Gain+0x30>)
 8000610:	f8b5 105e 	ldrh.w	r1, [r5, #94]	; 0x5e
 8000614:	f000 0407 	and.w	r4, r0, #7
 8000618:	f021 0107 	bic.w	r1, r1, #7
 800061c:	4321      	orrs	r1, r4
 800061e:	b289      	uxth	r1, r1
 8000620:	202f      	movs	r0, #47	; 0x2f
 8000622:	f7ff ffa9 	bl	8000578 <WM8978_Register_Wirter>
 8000626:	f8b5 1060 	ldrh.w	r1, [r5, #96]	; 0x60
 800062a:	f021 0107 	bic.w	r1, r1, #7
 800062e:	4321      	orrs	r1, r4
 8000630:	b289      	uxth	r1, r1
 8000632:	e8bd 4038 	ldmia.w	sp!, {r3, r4, r5, lr}
 8000636:	2030      	movs	r0, #48	; 0x30
 8000638:	f7ff bf9e 	b.w	8000578 <WM8978_Register_Wirter>
 800063c:	20000000 	.word	0x20000000

08000640 <WM8978_Output_Cfg>:
 8000640:	b510      	push	{r4, lr}
 8000642:	1e04      	subs	r4, r0, #0
 8000644:	bf18      	it	ne
 8000646:	2401      	movne	r4, #1
 8000648:	b109      	cbz	r1, 800064e <WM8978_Output_Cfg+0xe>
 800064a:	f044 0416 	orr.w	r4, r4, #22
 800064e:	4621      	mov	r1, r4
 8000650:	2032      	movs	r0, #50	; 0x32
 8000652:	f7ff ff91 	bl	8000578 <WM8978_Register_Wirter>
 8000656:	4621      	mov	r1, r4
 8000658:	2033      	movs	r0, #51	; 0x33
 800065a:	e8bd 4010 	ldmia.w	sp!, {r4, lr}
 800065e:	f7ff bf8b 	b.w	8000578 <WM8978_Register_Wirter>

08000662 <WM8978_MIC_Gain>:
 8000662:	b510      	push	{r4, lr}
 8000664:	f000 043f 	and.w	r4, r0, #63	; 0x3f
 8000668:	4621      	mov	r1, r4
 800066a:	202d      	movs	r0, #45	; 0x2d
 800066c:	f7ff ff84 	bl	8000578 <WM8978_Register_Wirter>
 8000670:	f444 7180 	orr.w	r1, r4, #256	; 0x100
 8000674:	202e      	movs	r0, #46	; 0x2e
 8000676:	e8bd 4010 	ldmia.w	sp!, {r4, lr}
 800067a:	f7ff bf7d 	b.w	8000578 <WM8978_Register_Wirter>
	...

08000680 <WM8978_LINEIN_Gain>:
 8000680:	b538      	push	{r3, r4, r5, lr}
 8000682:	4d0c      	ldr	r5, [pc, #48]	; (80006b4 <WM8978_LINEIN_Gain+0x34>)
 8000684:	f8b5 105e 	ldrh.w	r1, [r5, #94]	; 0x5e
 8000688:	f000 0007 	and.w	r0, r0, #7
 800068c:	f021 0170 	bic.w	r1, r1, #112	; 0x70
 8000690:	ea41 1100 	orr.w	r1, r1, r0, lsl #4
 8000694:	0104      	lsls	r4, r0, #4
 8000696:	b289      	uxth	r1, r1
 8000698:	202f      	movs	r0, #47	; 0x2f
 800069a:	f7ff ff6d 	bl	8000578 <WM8978_Register_Wirter>
 800069e:	f8b5 1060 	ldrh.w	r1, [r5, #96]	; 0x60
 80006a2:	f021 0170 	bic.w	r1, r1, #112	; 0x70
 80006a6:	4321      	orrs	r1, r4
 80006a8:	b289      	uxth	r1, r1
 80006aa:	e8bd 4038 	ldmia.w	sp!, {r3, r4, r5, lr}
 80006ae:	2030      	movs	r0, #48	; 0x30
 80006b0:	f7ff bf62 	b.w	8000578 <WM8978_Register_Wirter>
 80006b4:	20000000 	.word	0x20000000

080006b8 <WM8978_Input_Cfg>:
 80006b8:	b5f8      	push	{r3, r4, r5, r6, r7, lr}
 80006ba:	4f14      	ldr	r7, [pc, #80]	; (800070c <WM8978_Input_Cfg+0x54>)
 80006bc:	460d      	mov	r5, r1
 80006be:	88bb      	ldrh	r3, [r7, #4]
 80006c0:	4614      	mov	r4, r2
 80006c2:	4606      	mov	r6, r0
 80006c4:	b1b0      	cbz	r0, 80006f4 <WM8978_Input_Cfg+0x3c>
 80006c6:	f043 010c 	orr.w	r1, r3, #12
 80006ca:	2002      	movs	r0, #2
 80006cc:	f7ff ff54 	bl	8000578 <WM8978_Register_Wirter>
 80006d0:	f8b7 3058 	ldrh.w	r3, [r7, #88]	; 0x58
 80006d4:	b196      	cbz	r6, 80006fc <WM8978_Input_Cfg+0x44>
 80006d6:	f043 0133 	orr.w	r1, r3, #51	; 0x33
 80006da:	202c      	movs	r0, #44	; 0x2c
 80006dc:	f7ff ff4c 	bl	8000578 <WM8978_Register_Wirter>
 80006e0:	b185      	cbz	r5, 8000704 <WM8978_Input_Cfg+0x4c>
 80006e2:	2005      	movs	r0, #5
 80006e4:	f7ff ffcc 	bl	8000680 <WM8978_LINEIN_Gain>
 80006e8:	b174      	cbz	r4, 8000708 <WM8978_Input_Cfg+0x50>
 80006ea:	2007      	movs	r0, #7
 80006ec:	e8bd 40f8 	ldmia.w	sp!, {r3, r4, r5, r6, r7, lr}
 80006f0:	f7ff bf8c 	b.w	800060c <WM8978_AUX_Gain>
 80006f4:	f023 030c 	bic.w	r3, r3, #12
 80006f8:	b299      	uxth	r1, r3
 80006fa:	e7e6      	b.n	80006ca <WM8978_Input_Cfg+0x12>
 80006fc:	f023 0333 	bic.w	r3, r3, #51	; 0x33
 8000700:	b299      	uxth	r1, r3
 8000702:	e7ea      	b.n	80006da <WM8978_Input_Cfg+0x22>
 8000704:	4628      	mov	r0, r5
 8000706:	e7ed      	b.n	80006e4 <WM8978_Input_Cfg+0x2c>
 8000708:	4620      	mov	r0, r4
 800070a:	e7ef      	b.n	80006ec <WM8978_Input_Cfg+0x34>
 800070c:	20000000 	.word	0x20000000

08000710 <WM8978_HPvol_Set>:
 8000710:	b510      	push	{r4, lr}
 8000712:	f010 003f 	ands.w	r0, r0, #63	; 0x3f
 8000716:	bf08      	it	eq
 8000718:	2040      	moveq	r0, #64	; 0x40
 800071a:	f011 043f 	ands.w	r4, r1, #63	; 0x3f
 800071e:	bf08      	it	eq
 8000720:	2440      	moveq	r4, #64	; 0x40
 8000722:	4601      	mov	r1, r0
 8000724:	2034      	movs	r0, #52	; 0x34
 8000726:	f7ff ff27 	bl	8000578 <WM8978_Register_Wirter>
 800072a:	f444 7180 	orr.w	r1, r4, #256	; 0x100
 800072e:	2035      	movs	r0, #53	; 0x35
 8000730:	e8bd 4010 	ldmia.w	sp!, {r4, lr}
 8000734:	f7ff bf20 	b.w	8000578 <WM8978_Register_Wirter>

08000738 <WM8978_SPKvol_Set>:
 8000738:	b510      	push	{r4, lr}
 800073a:	f010 043f 	ands.w	r4, r0, #63	; 0x3f
 800073e:	bf08      	it	eq
 8000740:	2440      	moveq	r4, #64	; 0x40
 8000742:	4621      	mov	r1, r4
 8000744:	2036      	movs	r0, #54	; 0x36
 8000746:	f7ff ff17 	bl	8000578 <WM8978_Register_Wirter>
 800074a:	f444 7180 	orr.w	r1, r4, #256	; 0x100
 800074e:	2037      	movs	r0, #55	; 0x37
 8000750:	e8bd 4010 	ldmia.w	sp!, {r4, lr}
 8000754:	f7ff bf10 	b.w	8000578 <WM8978_Register_Wirter>

08000758 <Audio_Player_Init>:
 8000758:	2100      	movs	r1, #0
 800075a:	b508      	push	{r3, lr}
 800075c:	4608      	mov	r0, r1
 800075e:	f7ff ff0b 	bl	8000578 <WM8978_Register_Wirter>
 8000762:	211b      	movs	r1, #27
 8000764:	2001      	movs	r0, #1
 8000766:	f7ff ff07 	bl	8000578 <WM8978_Register_Wirter>
 800076a:	f44f 71d8 	mov.w	r1, #432	; 0x1b0
 800076e:	2002      	movs	r0, #2
 8000770:	f7ff ff02 	bl	8000578 <WM8978_Register_Wirter>
 8000774:	216c      	movs	r1, #108	; 0x6c
 8000776:	2003      	movs	r0, #3
 8000778:	f7ff fefe 	bl	8000578 <WM8978_Register_Wirter>
 800077c:	217f      	movs	r1, #127	; 0x7f
 800077e:	2003      	movs	r0, #3
 8000780:	f7ff fefa 	bl	8000578 <WM8978_Register_Wirter>
 8000784:	2110      	movs	r1, #16
 8000786:	2004      	movs	r0, #4
 8000788:	f7ff fef6 	bl	8000578 <WM8978_Register_Wirter>
 800078c:	2100      	movs	r1, #0
 800078e:	2006      	movs	r0, #6
 8000790:	f7ff fef2 	bl	8000578 <WM8978_Register_Wirter>
 8000794:	2110      	movs	r1, #16
 8000796:	202b      	movs	r0, #43	; 0x2b
 8000798:	f7ff feee 	bl	8000578 <WM8978_Register_Wirter>
 800079c:	f44f 7180 	mov.w	r1, #256	; 0x100
 80007a0:	202f      	movs	r0, #47	; 0x2f
 80007a2:	f7ff fee9 	bl	8000578 <WM8978_Register_Wirter>
 80007a6:	f44f 7180 	mov.w	r1, #256	; 0x100
 80007aa:	2030      	movs	r0, #48	; 0x30
 80007ac:	f7ff fee4 	bl	8000578 <WM8978_Register_Wirter>
 80007b0:	2102      	movs	r1, #2
 80007b2:	2031      	movs	r0, #49	; 0x31
 80007b4:	f7ff fee0 	bl	8000578 <WM8978_Register_Wirter>
 80007b8:	2108      	movs	r1, #8
 80007ba:	200a      	movs	r0, #10
 80007bc:	f7ff fedc 	bl	8000578 <WM8978_Register_Wirter>
 80007c0:	e8bd 4008 	ldmia.w	sp!, {r3, lr}
 80007c4:	2108      	movs	r1, #8
 80007c6:	200e      	movs	r0, #14
 80007c8:	f7ff bed6 	b.w	8000578 <WM8978_Register_Wirter>

080007cc <delay_us>:
 80007cc:	4b09      	ldr	r3, [pc, #36]	; (80007f4 <delay_us+0x28>)
 80007ce:	490a      	ldr	r1, [pc, #40]	; (80007f8 <delay_us+0x2c>)
 80007d0:	681b      	ldr	r3, [r3, #0]
 80007d2:	b530      	push	{r4, r5, lr}
 80007d4:	684d      	ldr	r5, [r1, #4]
 80007d6:	688a      	ldr	r2, [r1, #8]
 80007d8:	4358      	muls	r0, r3
 80007da:	2300      	movs	r3, #0
 80007dc:	4614      	mov	r4, r2
 80007de:	688a      	ldr	r2, [r1, #8]
 80007e0:	4294      	cmp	r4, r2
 80007e2:	d0fb      	beq.n	80007dc <delay_us+0x10>
 80007e4:	bf98      	it	ls
 80007e6:	195b      	addls	r3, r3, r5
 80007e8:	4423      	add	r3, r4
 80007ea:	1a9b      	subs	r3, r3, r2
 80007ec:	4283      	cmp	r3, r0
 80007ee:	d3f5      	bcc.n	80007dc <delay_us+0x10>
 80007f0:	bd30      	pop	{r4, r5, pc}
 80007f2:	bf00      	nop
 80007f4:	20000118 	.word	0x20000118
 80007f8:	e000e010 	.word	0xe000e010

080007fc <delay_ms>:
 80007fc:	b538      	push	{r3, r4, r5, lr}
 80007fe:	4605      	mov	r5, r0
 8000800:	2400      	movs	r4, #0
 8000802:	42a5      	cmp	r5, r4
 8000804:	d800      	bhi.n	8000808 <delay_ms+0xc>
 8000806:	bd38      	pop	{r3, r4, r5, pc}
 8000808:	f44f 707a 	mov.w	r0, #1000	; 0x3e8
 800080c:	f7ff ffde 	bl	80007cc <delay_us>
 8000810:	3401      	adds	r4, #1
 8000812:	e7f6      	b.n	8000802 <delay_ms+0x6>

08000814 <I2S2_Init>:
 8000814:	b538      	push	{r3, r4, r5, lr}
 8000816:	4c15      	ldr	r4, [pc, #84]	; (800086c <I2S2_Init+0x58>)
 8000818:	4d15      	ldr	r5, [pc, #84]	; (8000870 <I2S2_Init+0x5c>)
 800081a:	61a2      	str	r2, [r4, #24]
 800081c:	e9c4 0302 	strd	r0, r3, [r4, #8]
 8000820:	e9c4 5100 	strd	r5, r1, [r4]
 8000824:	2302      	movs	r3, #2
 8000826:	f44f 7100 	mov.w	r1, #512	; 0x200
 800082a:	e9c4 1304 	strd	r1, r3, [r4, #16]
 800082e:	2000      	movs	r0, #0
 8000830:	2301      	movs	r3, #1
 8000832:	e9c4 0307 	strd	r0, r3, [r4, #28]
 8000836:	4620      	mov	r0, r4
 8000838:	f001 fe50 	bl	80024dc <HAL_I2S_Init>
 800083c:	686b      	ldr	r3, [r5, #4]
 800083e:	f043 0302 	orr.w	r3, r3, #2
 8000842:	606b      	str	r3, [r5, #4]
 8000844:	4b0b      	ldr	r3, [pc, #44]	; (8000874 <I2S2_Init+0x60>)
 8000846:	685a      	ldr	r2, [r3, #4]
 8000848:	f042 0201 	orr.w	r2, r2, #1
 800084c:	605a      	str	r2, [r3, #4]
 800084e:	6822      	ldr	r2, [r4, #0]
 8000850:	69d1      	ldr	r1, [r2, #28]
 8000852:	42aa      	cmp	r2, r5
 8000854:	bf18      	it	ne
 8000856:	f04f 2340 	movne.w	r3, #1073758208	; 0x40004000
 800085a:	f441 6180 	orr.w	r1, r1, #1024	; 0x400
 800085e:	61d1      	str	r1, [r2, #28]
 8000860:	69da      	ldr	r2, [r3, #28]
 8000862:	f442 6280 	orr.w	r2, r2, #1024	; 0x400
 8000866:	61da      	str	r2, [r3, #28]
 8000868:	bd38      	pop	{r3, r4, r5, pc}
 800086a:	bf00      	nop
 800086c:	20000188 	.word	0x20000188
 8000870:	40003800 	.word	0x40003800
 8000874:	40003400 	.word	0x40003400

08000878 <I2S2_SampleRate_Set>:
 8000878:	b57f      	push	{r0, r1, r2, r3, r4, r5, r6, lr}
 800087a:	4b18      	ldr	r3, [pc, #96]	; (80008dc <I2S2_SampleRate_Set+0x64>)
 800087c:	2400      	movs	r4, #0
 800087e:	461d      	mov	r5, r3
 8000880:	220a      	movs	r2, #10
 8000882:	fbb0 f0f2 	udiv	r0, r0, r2
 8000886:	fb02 f104 	mul.w	r1, r2, r4
 800088a:	5ace      	ldrh	r6, [r1, r3]
 800088c:	42b0      	cmp	r0, r6
 800088e:	d005      	beq.n	800089c <I2S2_SampleRate_Set+0x24>
 8000890:	3401      	adds	r4, #1
 8000892:	2c0b      	cmp	r4, #11
 8000894:	d1f7      	bne.n	8000886 <I2S2_SampleRate_Set+0xe>
 8000896:	2001      	movs	r0, #1
 8000898:	b004      	add	sp, #16
 800089a:	bd70      	pop	{r4, r5, r6, pc}
 800089c:	440b      	add	r3, r1
 800089e:	2201      	movs	r2, #1
 80008a0:	9200      	str	r2, [sp, #0]
 80008a2:	4668      	mov	r0, sp
 80008a4:	885a      	ldrh	r2, [r3, #2]
 80008a6:	889b      	ldrh	r3, [r3, #4]
 80008a8:	9201      	str	r2, [sp, #4]
 80008aa:	9302      	str	r3, [sp, #8]
 80008ac:	f002 faec 	bl	8002e88 <HAL_RCCEx_PeriphCLKConfig>
 80008b0:	4b0b      	ldr	r3, [pc, #44]	; (80008e0 <I2S2_SampleRate_Set+0x68>)
 80008b2:	681a      	ldr	r2, [r3, #0]
 80008b4:	f042 6280 	orr.w	r2, r2, #67108864	; 0x4000000
 80008b8:	601a      	str	r2, [r3, #0]
 80008ba:	681a      	ldr	r2, [r3, #0]
 80008bc:	0112      	lsls	r2, r2, #4
 80008be:	d5fc      	bpl.n	80008ba <I2S2_SampleRate_Set+0x42>
 80008c0:	230a      	movs	r3, #10
 80008c2:	fb03 5404 	mla	r4, r3, r4, r5
 80008c6:	2000      	movs	r0, #0
 80008c8:	8922      	ldrh	r2, [r4, #8]
 80008ca:	88e3      	ldrh	r3, [r4, #6]
 80008cc:	ea43 2302 	orr.w	r3, r3, r2, lsl #8
 80008d0:	4a04      	ldr	r2, [pc, #16]	; (80008e4 <I2S2_SampleRate_Set+0x6c>)
 80008d2:	f443 7300 	orr.w	r3, r3, #512	; 0x200
 80008d6:	6213      	str	r3, [r2, #32]
 80008d8:	e7de      	b.n	8000898 <I2S2_SampleRate_Set+0x20>
 80008da:	bf00      	nop
 80008dc:	08007898 	.word	0x08007898
 80008e0:	40023800 	.word	0x40023800
 80008e4:	40003800 	.word	0x40003800

080008e8 <I2S2_TX_DMA_Init>:
 80008e8:	b5f0      	push	{r4, r5, r6, r7, lr}
 80008ea:	b087      	sub	sp, #28
 80008ec:	2500      	movs	r5, #0
 80008ee:	4617      	mov	r7, r2
 80008f0:	4a30      	ldr	r2, [pc, #192]	; (80009b4 <I2S2_TX_DMA_Init+0xcc>)
 80008f2:	9505      	str	r5, [sp, #20]
 80008f4:	9103      	str	r1, [sp, #12]
 80008f6:	6b11      	ldr	r1, [r2, #48]	; 0x30
 80008f8:	4c2f      	ldr	r4, [pc, #188]	; (80009b8 <I2S2_TX_DMA_Init+0xd0>)
 80008fa:	f441 1100 	orr.w	r1, r1, #2097152	; 0x200000
 80008fe:	6311      	str	r1, [r2, #48]	; 0x30
 8000900:	6b12      	ldr	r2, [r2, #48]	; 0x30
 8000902:	f402 1200 	and.w	r2, r2, #2097152	; 0x200000
 8000906:	9205      	str	r2, [sp, #20]
 8000908:	9a05      	ldr	r2, [sp, #20]
 800090a:	4a2c      	ldr	r2, [pc, #176]	; (80009bc <I2S2_TX_DMA_Init+0xd4>)
 800090c:	63a2      	str	r2, [r4, #56]	; 0x38
 800090e:	6394      	str	r4, [r2, #56]	; 0x38
 8000910:	4a2b      	ldr	r2, [pc, #172]	; (80009c0 <I2S2_TX_DMA_Init+0xd8>)
 8000912:	e9c4 2500 	strd	r2, r5, [r4]
 8000916:	2240      	movs	r2, #64	; 0x40
 8000918:	f44f 6380 	mov.w	r3, #1024	; 0x400
 800091c:	e9c4 2502 	strd	r2, r5, [r4, #8]
 8000920:	f44f 6200 	mov.w	r2, #2048	; 0x800
 8000924:	e9c4 3204 	strd	r3, r2, [r4, #16]
 8000928:	f44f 5100 	mov.w	r1, #8192	; 0x2000
 800092c:	f44f 7280 	mov.w	r2, #256	; 0x100
 8000930:	e9c4 1206 	strd	r1, r2, [r4, #24]
 8000934:	4606      	mov	r6, r0
 8000936:	f44f 3200 	mov.w	r2, #131072	; 0x20000
 800093a:	4620      	mov	r0, r4
 800093c:	e9c4 2508 	strd	r2, r5, [r4, #32]
 8000940:	e9c4 550b 	strd	r5, r5, [r4, #44]	; 0x2c
 8000944:	f001 f92a 	bl	8001b9c <HAL_DMA_DeInit>
 8000948:	4620      	mov	r0, r4
 800094a:	f001 f8a7 	bl	8001a9c <HAL_DMA_Init>
 800094e:	9b03      	ldr	r3, [sp, #12]
 8000950:	4a1c      	ldr	r2, [pc, #112]	; (80009c4 <I2S2_TX_DMA_Init+0xdc>)
 8000952:	9700      	str	r7, [sp, #0]
 8000954:	4631      	mov	r1, r6
 8000956:	4620      	mov	r0, r4
 8000958:	f001 fa56 	bl	8001e08 <HAL_DMAEx_MultiBufferStart>
 800095c:	6822      	ldr	r2, [r4, #0]
 800095e:	6813      	ldr	r3, [r2, #0]
 8000960:	f023 0301 	bic.w	r3, r3, #1
 8000964:	6013      	str	r3, [r2, #0]
 8000966:	200a      	movs	r0, #10
 8000968:	f7ff ff30 	bl	80007cc <delay_us>
 800096c:	6823      	ldr	r3, [r4, #0]
 800096e:	681a      	ldr	r2, [r3, #0]
 8000970:	f042 0210 	orr.w	r2, r2, #16
 8000974:	601a      	str	r2, [r3, #0]
 8000976:	4a14      	ldr	r2, [pc, #80]	; (80009c8 <I2S2_TX_DMA_Init+0xe0>)
 8000978:	4293      	cmp	r3, r2
 800097a:	d90d      	bls.n	8000998 <I2S2_TX_DMA_Init+0xb0>
 800097c:	4b13      	ldr	r3, [pc, #76]	; (80009cc <I2S2_TX_DMA_Init+0xe4>)
 800097e:	2220      	movs	r2, #32
 8000980:	60da      	str	r2, [r3, #12]
 8000982:	2200      	movs	r2, #0
 8000984:	2105      	movs	r1, #5
 8000986:	200f      	movs	r0, #15
 8000988:	f001 f81c 	bl	80019c4 <HAL_NVIC_SetPriority>
 800098c:	200f      	movs	r0, #15
 800098e:	b007      	add	sp, #28
 8000990:	e8bd 40f0 	ldmia.w	sp!, {r4, r5, r6, r7, lr}
 8000994:	f001 b848 	b.w	8001a28 <HAL_NVIC_EnableIRQ>
 8000998:	4a0d      	ldr	r2, [pc, #52]	; (80009d0 <I2S2_TX_DMA_Init+0xe8>)
 800099a:	4293      	cmp	r3, r2
 800099c:	d903      	bls.n	80009a6 <I2S2_TX_DMA_Init+0xbe>
 800099e:	4b0b      	ldr	r3, [pc, #44]	; (80009cc <I2S2_TX_DMA_Init+0xe4>)
 80009a0:	2220      	movs	r2, #32
 80009a2:	609a      	str	r2, [r3, #8]
 80009a4:	e7ed      	b.n	8000982 <I2S2_TX_DMA_Init+0x9a>
 80009a6:	4a0b      	ldr	r2, [pc, #44]	; (80009d4 <I2S2_TX_DMA_Init+0xec>)
 80009a8:	4293      	cmp	r3, r2
 80009aa:	4b0b      	ldr	r3, [pc, #44]	; (80009d8 <I2S2_TX_DMA_Init+0xf0>)
 80009ac:	f04f 0220 	mov.w	r2, #32
 80009b0:	d9f7      	bls.n	80009a2 <I2S2_TX_DMA_Init+0xba>
 80009b2:	e7e5      	b.n	8000980 <I2S2_TX_DMA_Init+0x98>
 80009b4:	40023800 	.word	0x40023800
 80009b8:	200001d0 	.word	0x200001d0
 80009bc:	20000188 	.word	0x20000188
 80009c0:	40026070 	.word	0x40026070
 80009c4:	4000380c 	.word	0x4000380c
 80009c8:	40026458 	.word	0x40026458
 80009cc:	40026400 	.word	0x40026400
 80009d0:	400260b8 	.word	0x400260b8
 80009d4:	40026058 	.word	0x40026058
 80009d8:	40026000 	.word	0x40026000

080009dc <I2S2ext_RX_DMA_Init>:
 80009dc:	e92d 41f0 	stmdb	sp!, {r4, r5, r6, r7, r8, lr}
 80009e0:	b086      	sub	sp, #24
 80009e2:	2500      	movs	r5, #0
 80009e4:	4690      	mov	r8, r2
 80009e6:	4a31      	ldr	r2, [pc, #196]	; (8000aac <I2S2ext_RX_DMA_Init+0xd0>)
 80009e8:	9505      	str	r5, [sp, #20]
 80009ea:	9103      	str	r1, [sp, #12]
 80009ec:	6b11      	ldr	r1, [r2, #48]	; 0x30
 80009ee:	4c30      	ldr	r4, [pc, #192]	; (8000ab0 <I2S2ext_RX_DMA_Init+0xd4>)
 80009f0:	4e30      	ldr	r6, [pc, #192]	; (8000ab4 <I2S2ext_RX_DMA_Init+0xd8>)
 80009f2:	f441 1100 	orr.w	r1, r1, #2097152	; 0x200000
 80009f6:	6311      	str	r1, [r2, #48]	; 0x30
 80009f8:	6b12      	ldr	r2, [r2, #48]	; 0x30
 80009fa:	f402 1200 	and.w	r2, r2, #2097152	; 0x200000
 80009fe:	9205      	str	r2, [sp, #20]
 8000a00:	9a05      	ldr	r2, [sp, #20]
 8000a02:	4a2d      	ldr	r2, [pc, #180]	; (8000ab8 <I2S2ext_RX_DMA_Init+0xdc>)
 8000a04:	63a2      	str	r2, [r4, #56]	; 0x38
 8000a06:	63d4      	str	r4, [r2, #60]	; 0x3c
 8000a08:	f04f 62c0 	mov.w	r2, #100663296	; 0x6000000
 8000a0c:	f44f 6380 	mov.w	r3, #1024	; 0x400
 8000a10:	e9c4 6200 	strd	r6, r2, [r4]
 8000a14:	f44f 6200 	mov.w	r2, #2048	; 0x800
 8000a18:	e9c4 3204 	strd	r3, r2, [r4, #16]
 8000a1c:	f44f 5100 	mov.w	r1, #8192	; 0x2000
 8000a20:	f44f 7280 	mov.w	r2, #256	; 0x100
 8000a24:	e9c4 1206 	strd	r1, r2, [r4, #24]
 8000a28:	4607      	mov	r7, r0
 8000a2a:	f44f 3280 	mov.w	r2, #65536	; 0x10000
 8000a2e:	4620      	mov	r0, r4
 8000a30:	e9c4 2508 	strd	r2, r5, [r4, #32]
 8000a34:	e9c4 5502 	strd	r5, r5, [r4, #8]
 8000a38:	e9c4 550b 	strd	r5, r5, [r4, #44]	; 0x2c
 8000a3c:	f001 f8ae 	bl	8001b9c <HAL_DMA_DeInit>
 8000a40:	4620      	mov	r0, r4
 8000a42:	f001 f82b 	bl	8001a9c <HAL_DMA_Init>
 8000a46:	9b03      	ldr	r3, [sp, #12]
 8000a48:	491c      	ldr	r1, [pc, #112]	; (8000abc <I2S2ext_RX_DMA_Init+0xe0>)
 8000a4a:	f8cd 8000 	str.w	r8, [sp]
 8000a4e:	463a      	mov	r2, r7
 8000a50:	4620      	mov	r0, r4
 8000a52:	f001 f9d9 	bl	8001e08 <HAL_DMAEx_MultiBufferStart>
 8000a56:	6822      	ldr	r2, [r4, #0]
 8000a58:	6813      	ldr	r3, [r2, #0]
 8000a5a:	f023 0301 	bic.w	r3, r3, #1
 8000a5e:	6013      	str	r3, [r2, #0]
 8000a60:	200a      	movs	r0, #10
 8000a62:	f7ff feb3 	bl	80007cc <delay_us>
 8000a66:	6823      	ldr	r3, [r4, #0]
 8000a68:	681a      	ldr	r2, [r3, #0]
 8000a6a:	f042 0210 	orr.w	r2, r2, #16
 8000a6e:	601a      	str	r2, [r3, #0]
 8000a70:	4a13      	ldr	r2, [pc, #76]	; (8000ac0 <I2S2ext_RX_DMA_Init+0xe4>)
 8000a72:	4293      	cmp	r3, r2
 8000a74:	d90e      	bls.n	8000a94 <I2S2ext_RX_DMA_Init+0xb8>
 8000a76:	4b13      	ldr	r3, [pc, #76]	; (8000ac4 <I2S2ext_RX_DMA_Init+0xe8>)
 8000a78:	f04f 6200 	mov.w	r2, #134217728	; 0x8000000
 8000a7c:	60da      	str	r2, [r3, #12]
 8000a7e:	2201      	movs	r2, #1
 8000a80:	2105      	movs	r1, #5
 8000a82:	200e      	movs	r0, #14
 8000a84:	f000 ff9e 	bl	80019c4 <HAL_NVIC_SetPriority>
 8000a88:	200e      	movs	r0, #14
 8000a8a:	b006      	add	sp, #24
 8000a8c:	e8bd 41f0 	ldmia.w	sp!, {r4, r5, r6, r7, r8, lr}
 8000a90:	f000 bfca 	b.w	8001a28 <HAL_NVIC_EnableIRQ>
 8000a94:	4a0c      	ldr	r2, [pc, #48]	; (8000ac8 <I2S2ext_RX_DMA_Init+0xec>)
 8000a96:	4293      	cmp	r3, r2
 8000a98:	f04f 6200 	mov.w	r2, #134217728	; 0x8000000
 8000a9c:	d902      	bls.n	8000aa4 <I2S2ext_RX_DMA_Init+0xc8>
 8000a9e:	4b09      	ldr	r3, [pc, #36]	; (8000ac4 <I2S2ext_RX_DMA_Init+0xe8>)
 8000aa0:	609a      	str	r2, [r3, #8]
 8000aa2:	e7ec      	b.n	8000a7e <I2S2ext_RX_DMA_Init+0xa2>
 8000aa4:	42b3      	cmp	r3, r6
 8000aa6:	4b09      	ldr	r3, [pc, #36]	; (8000acc <I2S2ext_RX_DMA_Init+0xf0>)
 8000aa8:	d9fa      	bls.n	8000aa0 <I2S2ext_RX_DMA_Init+0xc4>
 8000aaa:	e7e7      	b.n	8000a7c <I2S2ext_RX_DMA_Init+0xa0>
 8000aac:	40023800 	.word	0x40023800
 8000ab0:	20000234 	.word	0x20000234
 8000ab4:	40026058 	.word	0x40026058
 8000ab8:	20000188 	.word	0x20000188
 8000abc:	4000340c 	.word	0x4000340c
 8000ac0:	40026458 	.word	0x40026458
 8000ac4:	40026400 	.word	0x40026400
 8000ac8:	400260b8 	.word	0x400260b8
 8000acc:	40026000 	.word	0x40026000

08000ad0 <DMA1_Stream4_IRQHandler>:
 8000ad0:	4b13      	ldr	r3, [pc, #76]	; (8000b20 <DMA1_Stream4_IRQHandler+0x50>)
 8000ad2:	4a14      	ldr	r2, [pc, #80]	; (8000b24 <DMA1_Stream4_IRQHandler+0x54>)
 8000ad4:	681b      	ldr	r3, [r3, #0]
 8000ad6:	4293      	cmp	r3, r2
 8000ad8:	d904      	bls.n	8000ae4 <DMA1_Stream4_IRQHandler+0x14>
 8000ada:	4b13      	ldr	r3, [pc, #76]	; (8000b28 <DMA1_Stream4_IRQHandler+0x58>)
 8000adc:	685a      	ldr	r2, [r3, #4]
 8000ade:	0692      	lsls	r2, r2, #26
 8000ae0:	d414      	bmi.n	8000b0c <DMA1_Stream4_IRQHandler+0x3c>
 8000ae2:	4770      	bx	lr
 8000ae4:	4a11      	ldr	r2, [pc, #68]	; (8000b2c <DMA1_Stream4_IRQHandler+0x5c>)
 8000ae6:	4293      	cmp	r3, r2
 8000ae8:	d904      	bls.n	8000af4 <DMA1_Stream4_IRQHandler+0x24>
 8000aea:	4b0f      	ldr	r3, [pc, #60]	; (8000b28 <DMA1_Stream4_IRQHandler+0x58>)
 8000aec:	681a      	ldr	r2, [r3, #0]
 8000aee:	0690      	lsls	r0, r2, #26
 8000af0:	d412      	bmi.n	8000b18 <DMA1_Stream4_IRQHandler+0x48>
 8000af2:	4770      	bx	lr
 8000af4:	4a0e      	ldr	r2, [pc, #56]	; (8000b30 <DMA1_Stream4_IRQHandler+0x60>)
 8000af6:	4293      	cmp	r3, r2
 8000af8:	4b0e      	ldr	r3, [pc, #56]	; (8000b34 <DMA1_Stream4_IRQHandler+0x64>)
 8000afa:	d903      	bls.n	8000b04 <DMA1_Stream4_IRQHandler+0x34>
 8000afc:	685a      	ldr	r2, [r3, #4]
 8000afe:	0691      	lsls	r1, r2, #26
 8000b00:	d404      	bmi.n	8000b0c <DMA1_Stream4_IRQHandler+0x3c>
 8000b02:	4770      	bx	lr
 8000b04:	681a      	ldr	r2, [r3, #0]
 8000b06:	0692      	lsls	r2, r2, #26
 8000b08:	d406      	bmi.n	8000b18 <DMA1_Stream4_IRQHandler+0x48>
 8000b0a:	4770      	bx	lr
 8000b0c:	2220      	movs	r2, #32
 8000b0e:	60da      	str	r2, [r3, #12]
 8000b10:	4b09      	ldr	r3, [pc, #36]	; (8000b38 <DMA1_Stream4_IRQHandler+0x68>)
 8000b12:	681b      	ldr	r3, [r3, #0]
 8000b14:	b11b      	cbz	r3, 8000b1e <DMA1_Stream4_IRQHandler+0x4e>
 8000b16:	4718      	bx	r3
 8000b18:	2220      	movs	r2, #32
 8000b1a:	609a      	str	r2, [r3, #8]
 8000b1c:	e7f8      	b.n	8000b10 <DMA1_Stream4_IRQHandler+0x40>
 8000b1e:	4770      	bx	lr
 8000b20:	200001d0 	.word	0x200001d0
 8000b24:	40026458 	.word	0x40026458
 8000b28:	40026400 	.word	0x40026400
 8000b2c:	400260b8 	.word	0x400260b8
 8000b30:	40026058 	.word	0x40026058
 8000b34:	40026000 	.word	0x40026000
 8000b38:	20000294 	.word	0x20000294

08000b3c <DMA1_Stream3_IRQHandler>:
 8000b3c:	4b14      	ldr	r3, [pc, #80]	; (8000b90 <DMA1_Stream3_IRQHandler+0x54>)
 8000b3e:	4a15      	ldr	r2, [pc, #84]	; (8000b94 <DMA1_Stream3_IRQHandler+0x58>)
 8000b40:	681b      	ldr	r3, [r3, #0]
 8000b42:	4293      	cmp	r3, r2
 8000b44:	d904      	bls.n	8000b50 <DMA1_Stream3_IRQHandler+0x14>
 8000b46:	4b14      	ldr	r3, [pc, #80]	; (8000b98 <DMA1_Stream3_IRQHandler+0x5c>)
 8000b48:	685a      	ldr	r2, [r3, #4]
 8000b4a:	0112      	lsls	r2, r2, #4
 8000b4c:	d414      	bmi.n	8000b78 <DMA1_Stream3_IRQHandler+0x3c>
 8000b4e:	4770      	bx	lr
 8000b50:	4a12      	ldr	r2, [pc, #72]	; (8000b9c <DMA1_Stream3_IRQHandler+0x60>)
 8000b52:	4293      	cmp	r3, r2
 8000b54:	d904      	bls.n	8000b60 <DMA1_Stream3_IRQHandler+0x24>
 8000b56:	4b10      	ldr	r3, [pc, #64]	; (8000b98 <DMA1_Stream3_IRQHandler+0x5c>)
 8000b58:	681a      	ldr	r2, [r3, #0]
 8000b5a:	0110      	lsls	r0, r2, #4
 8000b5c:	d413      	bmi.n	8000b86 <DMA1_Stream3_IRQHandler+0x4a>
 8000b5e:	4770      	bx	lr
 8000b60:	4a0f      	ldr	r2, [pc, #60]	; (8000ba0 <DMA1_Stream3_IRQHandler+0x64>)
 8000b62:	4293      	cmp	r3, r2
 8000b64:	4b0f      	ldr	r3, [pc, #60]	; (8000ba4 <DMA1_Stream3_IRQHandler+0x68>)
 8000b66:	d903      	bls.n	8000b70 <DMA1_Stream3_IRQHandler+0x34>
 8000b68:	685a      	ldr	r2, [r3, #4]
 8000b6a:	0111      	lsls	r1, r2, #4
 8000b6c:	d404      	bmi.n	8000b78 <DMA1_Stream3_IRQHandler+0x3c>
 8000b6e:	4770      	bx	lr
 8000b70:	681a      	ldr	r2, [r3, #0]
 8000b72:	0112      	lsls	r2, r2, #4
 8000b74:	d407      	bmi.n	8000b86 <DMA1_Stream3_IRQHandler+0x4a>
 8000b76:	4770      	bx	lr
 8000b78:	f04f 6200 	mov.w	r2, #134217728	; 0x8000000
 8000b7c:	60da      	str	r2, [r3, #12]
 8000b7e:	4b0a      	ldr	r3, [pc, #40]	; (8000ba8 <DMA1_Stream3_IRQHandler+0x6c>)
 8000b80:	681b      	ldr	r3, [r3, #0]
 8000b82:	b123      	cbz	r3, 8000b8e <DMA1_Stream3_IRQHandler+0x52>
 8000b84:	4718      	bx	r3
 8000b86:	f04f 6200 	mov.w	r2, #134217728	; 0x8000000
 8000b8a:	609a      	str	r2, [r3, #8]
 8000b8c:	e7f7      	b.n	8000b7e <DMA1_Stream3_IRQHandler+0x42>
 8000b8e:	4770      	bx	lr
 8000b90:	20000234 	.word	0x20000234
 8000b94:	40026458 	.word	0x40026458
 8000b98:	40026400 	.word	0x40026400
 8000b9c:	400260b8 	.word	0x400260b8
 8000ba0:	40026058 	.word	0x40026058
 8000ba4:	40026000 	.word	0x40026000
 8000ba8:	20000230 	.word	0x20000230

08000bac <I2S_Play_Start>:
 8000bac:	4b03      	ldr	r3, [pc, #12]	; (8000bbc <I2S_Play_Start+0x10>)
 8000bae:	681a      	ldr	r2, [r3, #0]
 8000bb0:	6813      	ldr	r3, [r2, #0]
 8000bb2:	f043 0301 	orr.w	r3, r3, #1
 8000bb6:	6013      	str	r3, [r2, #0]
 8000bb8:	4770      	bx	lr
 8000bba:	bf00      	nop
 8000bbc:	200001d0 	.word	0x200001d0

08000bc0 <I2S_Rec_Start>:
 8000bc0:	4b03      	ldr	r3, [pc, #12]	; (8000bd0 <I2S_Rec_Start+0x10>)
 8000bc2:	681a      	ldr	r2, [r3, #0]
 8000bc4:	6813      	ldr	r3, [r2, #0]
 8000bc6:	f043 0301 	orr.w	r3, r3, #1
 8000bca:	6013      	str	r3, [r2, #0]
 8000bcc:	4770      	bx	lr
 8000bce:	bf00      	nop
 8000bd0:	20000234 	.word	0x20000234

08000bd4 <I2S_Rec_Stop>:
 8000bd4:	4b03      	ldr	r3, [pc, #12]	; (8000be4 <I2S_Rec_Stop+0x10>)
 8000bd6:	681a      	ldr	r2, [r3, #0]
 8000bd8:	6813      	ldr	r3, [r2, #0]
 8000bda:	f023 0301 	bic.w	r3, r3, #1
 8000bde:	6013      	str	r3, [r2, #0]
 8000be0:	4770      	bx	lr
 8000be2:	bf00      	nop
 8000be4:	20000234 	.word	0x20000234

08000be8 <rec_i2s_dma_rx_callback>:
 8000be8:	b538      	push	{r3, r4, r5, lr}
 8000bea:	4b1e      	ldr	r3, [pc, #120]	; (8000c64 <rec_i2s_dma_rx_callback+0x7c>)
 8000bec:	4d1e      	ldr	r5, [pc, #120]	; (8000c68 <rec_i2s_dma_rx_callback+0x80>)
 8000bee:	681b      	ldr	r3, [r3, #0]
 8000bf0:	6828      	ldr	r0, [r5, #0]
 8000bf2:	4c1e      	ldr	r4, [pc, #120]	; (8000c6c <rec_i2s_dma_rx_callback+0x84>)
 8000bf4:	f413 2f00 	tst.w	r3, #524288	; 0x80000
 8000bf8:	f44f 5280 	mov.w	r2, #4096	; 0x1000
 8000bfc:	4b1c      	ldr	r3, [pc, #112]	; (8000c70 <rec_i2s_dma_rx_callback+0x88>)
 8000bfe:	d028      	beq.n	8000c52 <rec_i2s_dma_rx_callback+0x6a>
 8000c00:	491c      	ldr	r1, [pc, #112]	; (8000c74 <rec_i2s_dma_rx_callback+0x8c>)
 8000c02:	6809      	ldr	r1, [r1, #0]
 8000c04:	f005 f8e0 	bl	8005dc8 <f_write>
 8000c08:	6828      	ldr	r0, [r5, #0]
 8000c0a:	f005 f9a4 	bl	8005f56 <f_sync>
 8000c0e:	6821      	ldr	r1, [r4, #0]
 8000c10:	2228      	movs	r2, #40	; 0x28
 8000c12:	fb91 f3f2 	sdiv	r3, r1, r2
 8000c16:	fb02 1313 	mls	r3, r2, r3, r1
 8000c1a:	b91b      	cbnz	r3, 8000c24 <rec_i2s_dma_rx_callback+0x3c>
 8000c1c:	4816      	ldr	r0, [pc, #88]	; (8000c78 <rec_i2s_dma_rx_callback+0x90>)
 8000c1e:	2108      	movs	r1, #8
 8000c20:	f001 f9ff 	bl	8002022 <HAL_GPIO_TogglePin>
 8000c24:	4a15      	ldr	r2, [pc, #84]	; (8000c7c <rec_i2s_dma_rx_callback+0x94>)
 8000c26:	6813      	ldr	r3, [r2, #0]
 8000c28:	f503 5380 	add.w	r3, r3, #4096	; 0x1000
 8000c2c:	6013      	str	r3, [r2, #0]
 8000c2e:	6823      	ldr	r3, [r4, #0]
 8000c30:	f64e 2260 	movw	r2, #60000	; 0xea60
 8000c34:	3301      	adds	r3, #1
 8000c36:	4293      	cmp	r3, r2
 8000c38:	6023      	str	r3, [r4, #0]
 8000c3a:	d112      	bne.n	8000c62 <rec_i2s_dma_rx_callback+0x7a>
 8000c3c:	4b10      	ldr	r3, [pc, #64]	; (8000c80 <rec_i2s_dma_rx_callback+0x98>)
 8000c3e:	480e      	ldr	r0, [pc, #56]	; (8000c78 <rec_i2s_dma_rx_callback+0x90>)
 8000c40:	2201      	movs	r2, #1
 8000c42:	601a      	str	r2, [r3, #0]
 8000c44:	2300      	movs	r3, #0
 8000c46:	6023      	str	r3, [r4, #0]
 8000c48:	2108      	movs	r1, #8
 8000c4a:	e8bd 4038 	ldmia.w	sp!, {r3, r4, r5, lr}
 8000c4e:	f001 b9e8 	b.w	8002022 <HAL_GPIO_TogglePin>
 8000c52:	490c      	ldr	r1, [pc, #48]	; (8000c84 <rec_i2s_dma_rx_callback+0x9c>)
 8000c54:	6809      	ldr	r1, [r1, #0]
 8000c56:	f005 f8b7 	bl	8005dc8 <f_write>
 8000c5a:	6828      	ldr	r0, [r5, #0]
 8000c5c:	f005 f97b 	bl	8005f56 <f_sync>
 8000c60:	e7e0      	b.n	8000c24 <rec_i2s_dma_rx_callback+0x3c>
 8000c62:	bd38      	pop	{r3, r4, r5, pc}
 8000c64:	40026058 	.word	0x40026058
 8000c68:	20000124 	.word	0x20000124
 8000c6c:	2000011c 	.word	0x2000011c
 8000c70:	20000750 	.word	0x20000750
 8000c74:	20000134 	.word	0x20000134
 8000c78:	40021000 	.word	0x40021000
 8000c7c:	20000880 	.word	0x20000880
 8000c80:	20000120 	.word	0x20000120
 8000c84:	20000138 	.word	0x20000138

08000c88 <recoder_wav_init>:
 8000c88:	4a0e      	ldr	r2, [pc, #56]	; (8000cc4 <recoder_wav_init+0x3c>)
 8000c8a:	2300      	movs	r3, #0
 8000c8c:	e9c0 2300 	strd	r2, r3, [r0]
 8000c90:	4a0d      	ldr	r2, [pc, #52]	; (8000cc8 <recoder_wav_init+0x40>)
 8000c92:	6082      	str	r2, [r0, #8]
 8000c94:	f102 425b 	add.w	r2, r2, #3674210304	; 0xdb000000
 8000c98:	f502 12f1 	add.w	r2, r2, #1974272	; 0x1e2000
 8000c9c:	f602 420f 	addw	r2, r2, #3087	; 0xc0f
 8000ca0:	60c2      	str	r2, [r0, #12]
 8000ca2:	4a0a      	ldr	r2, [pc, #40]	; (8000ccc <recoder_wav_init+0x44>)
 8000ca4:	6283      	str	r3, [r0, #40]	; 0x28
 8000ca6:	2110      	movs	r1, #16
 8000ca8:	e9c0 1204 	strd	r1, r2, [r0, #16]
 8000cac:	f44f 5c7a 	mov.w	ip, #16000	; 0x3e80
 8000cb0:	f44f 427a 	mov.w	r2, #64000	; 0xfa00
 8000cb4:	e9c0 c206 	strd	ip, r2, [r0, #24]
 8000cb8:	4905      	ldr	r1, [pc, #20]	; (8000cd0 <recoder_wav_init+0x48>)
 8000cba:	4a06      	ldr	r2, [pc, #24]	; (8000cd4 <recoder_wav_init+0x4c>)
 8000cbc:	e9c0 1208 	strd	r1, r2, [r0, #32]
 8000cc0:	4770      	bx	lr
 8000cc2:	bf00      	nop
 8000cc4:	46464952 	.word	0x46464952
 8000cc8:	45564157 	.word	0x45564157
 8000ccc:	00020001 	.word	0x00020001
 8000cd0:	00100004 	.word	0x00100004
 8000cd4:	61746164 	.word	0x61746164

08000cd8 <set_timestamp>:
 8000cd8:	b510      	push	{r4, lr}
 8000cda:	4c0c      	ldr	r4, [pc, #48]	; (8000d0c <set_timestamp+0x34>)
 8000cdc:	f2a1 71bc 	subw	r1, r1, #1980	; 0x7bc
 8000ce0:	6824      	ldr	r4, [r4, #0]
 8000ce2:	ea43 1242 	orr.w	r2, r3, r2, lsl #5
 8000ce6:	ea42 2241 	orr.w	r2, r2, r1, lsl #9
 8000cea:	9b04      	ldr	r3, [sp, #16]
 8000cec:	80a2      	strh	r2, [r4, #4]
 8000cee:	9a03      	ldr	r2, [sp, #12]
 8000cf0:	085b      	lsrs	r3, r3, #1
 8000cf2:	ea43 1342 	orr.w	r3, r3, r2, lsl #5
 8000cf6:	9a02      	ldr	r2, [sp, #8]
 8000cf8:	ea43 23c2 	orr.w	r3, r3, r2, lsl #11
 8000cfc:	80e3      	strh	r3, [r4, #6]
 8000cfe:	4621      	mov	r1, r4
 8000d00:	f005 fb9c 	bl	800643c <f_utime>
 8000d04:	4b02      	ldr	r3, [pc, #8]	; (8000d10 <set_timestamp+0x38>)
 8000d06:	7018      	strb	r0, [r3, #0]
 8000d08:	bd10      	pop	{r4, pc}
 8000d0a:	bf00      	nop
 8000d0c:	2000012c 	.word	0x2000012c
 8000d10:	20015c88 	.word	0x20015c88

08000d14 <SystemClock_Config>:
 8000d14:	b530      	push	{r4, r5, lr}
 8000d16:	2400      	movs	r4, #0
 8000d18:	b095      	sub	sp, #84	; 0x54
 8000d1a:	4621      	mov	r1, r4
 8000d1c:	2214      	movs	r2, #20
 8000d1e:	a803      	add	r0, sp, #12
 8000d20:	e9cd 440b 	strd	r4, r4, [sp, #44]	; 0x2c
 8000d24:	940d      	str	r4, [sp, #52]	; 0x34
 8000d26:	f005 fc89 	bl	800663c <memset>
 8000d2a:	4b1e      	ldr	r3, [pc, #120]	; (8000da4 <SystemClock_Config+0x90>)
 8000d2c:	9401      	str	r4, [sp, #4]
 8000d2e:	6c1a      	ldr	r2, [r3, #64]	; 0x40
 8000d30:	f042 5280 	orr.w	r2, r2, #268435456	; 0x10000000
 8000d34:	641a      	str	r2, [r3, #64]	; 0x40
 8000d36:	6c1b      	ldr	r3, [r3, #64]	; 0x40
 8000d38:	f003 5380 	and.w	r3, r3, #268435456	; 0x10000000
 8000d3c:	9301      	str	r3, [sp, #4]
 8000d3e:	9b01      	ldr	r3, [sp, #4]
 8000d40:	4b19      	ldr	r3, [pc, #100]	; (8000da8 <SystemClock_Config+0x94>)
 8000d42:	9402      	str	r4, [sp, #8]
 8000d44:	681a      	ldr	r2, [r3, #0]
 8000d46:	f442 4280 	orr.w	r2, r2, #16384	; 0x4000
 8000d4a:	601a      	str	r2, [r3, #0]
 8000d4c:	681b      	ldr	r3, [r3, #0]
 8000d4e:	f403 4380 	and.w	r3, r3, #16384	; 0x4000
 8000d52:	9302      	str	r3, [sp, #8]
 8000d54:	2205      	movs	r2, #5
 8000d56:	9b02      	ldr	r3, [sp, #8]
 8000d58:	f44f 3380 	mov.w	r3, #65536	; 0x10000
 8000d5c:	e9cd 2308 	strd	r2, r3, [sp, #32]
 8000d60:	2301      	movs	r3, #1
 8000d62:	2502      	movs	r5, #2
 8000d64:	930a      	str	r3, [sp, #40]	; 0x28
 8000d66:	f44f 0380 	mov.w	r3, #4194304	; 0x400000
 8000d6a:	e9cd 530e 	strd	r5, r3, [sp, #56]	; 0x38
 8000d6e:	2108      	movs	r1, #8
 8000d70:	23a8      	movs	r3, #168	; 0xa8
 8000d72:	e9cd 1310 	strd	r1, r3, [sp, #64]	; 0x40
 8000d76:	a808      	add	r0, sp, #32
 8000d78:	2307      	movs	r3, #7
 8000d7a:	9313      	str	r3, [sp, #76]	; 0x4c
 8000d7c:	9512      	str	r5, [sp, #72]	; 0x48
 8000d7e:	f001 fded 	bl	800295c <HAL_RCC_OscConfig>
 8000d82:	230f      	movs	r3, #15
 8000d84:	e9cd 3503 	strd	r3, r5, [sp, #12]
 8000d88:	f44f 50a0 	mov.w	r0, #5120	; 0x1400
 8000d8c:	f44f 5380 	mov.w	r3, #4096	; 0x1000
 8000d90:	e9cd 0306 	strd	r0, r3, [sp, #24]
 8000d94:	4629      	mov	r1, r5
 8000d96:	a803      	add	r0, sp, #12
 8000d98:	9405      	str	r4, [sp, #20]
 8000d9a:	f001 ffb9 	bl	8002d10 <HAL_RCC_ClockConfig>
 8000d9e:	b015      	add	sp, #84	; 0x54
 8000da0:	bd30      	pop	{r4, r5, pc}
 8000da2:	bf00      	nop
 8000da4:	40023800 	.word	0x40023800
 8000da8:	40007000 	.word	0x40007000

08000dac <main>:
 8000dac:	e92d 47f0 	stmdb	sp!, {r4, r5, r6, r7, r8, r9, sl, lr}
 8000db0:	2400      	movs	r4, #0
 8000db2:	f5ad 7d20 	sub.w	sp, sp, #640	; 0x280
 8000db6:	4da5      	ldr	r5, [pc, #660]	; (800104c <main+0x2a0>)
 8000db8:	f8df 92e4 	ldr.w	r9, [pc, #740]	; 80010a0 <main+0x2f4>
 8000dbc:	f000 fdb0 	bl	8001920 <HAL_Init>
 8000dc0:	f7ff ffa8 	bl	8000d14 <SystemClock_Config>
 8000dc4:	2214      	movs	r2, #20
 8000dc6:	4621      	mov	r1, r4
 8000dc8:	a813      	add	r0, sp, #76	; 0x4c
 8000dca:	f005 fc37 	bl	800663c <memset>
 8000dce:	9408      	str	r4, [sp, #32]
 8000dd0:	6b2b      	ldr	r3, [r5, #48]	; 0x30
 8000dd2:	489f      	ldr	r0, [pc, #636]	; (8001050 <main+0x2a4>)
 8000dd4:	f043 0310 	orr.w	r3, r3, #16
 8000dd8:	632b      	str	r3, [r5, #48]	; 0x30
 8000dda:	6b2b      	ldr	r3, [r5, #48]	; 0x30
 8000ddc:	f003 0310 	and.w	r3, r3, #16
 8000de0:	9308      	str	r3, [sp, #32]
 8000de2:	9b08      	ldr	r3, [sp, #32]
 8000de4:	9409      	str	r4, [sp, #36]	; 0x24
 8000de6:	6b2b      	ldr	r3, [r5, #48]	; 0x30
 8000de8:	f043 0304 	orr.w	r3, r3, #4
 8000dec:	632b      	str	r3, [r5, #48]	; 0x30
 8000dee:	6b2b      	ldr	r3, [r5, #48]	; 0x30
 8000df0:	f003 0304 	and.w	r3, r3, #4
 8000df4:	9309      	str	r3, [sp, #36]	; 0x24
 8000df6:	9b09      	ldr	r3, [sp, #36]	; 0x24
 8000df8:	940a      	str	r4, [sp, #40]	; 0x28
 8000dfa:	6b2b      	ldr	r3, [r5, #48]	; 0x30
 8000dfc:	f043 0380 	orr.w	r3, r3, #128	; 0x80
 8000e00:	632b      	str	r3, [r5, #48]	; 0x30
 8000e02:	6b2b      	ldr	r3, [r5, #48]	; 0x30
 8000e04:	f003 0380 	and.w	r3, r3, #128	; 0x80
 8000e08:	930a      	str	r3, [sp, #40]	; 0x28
 8000e0a:	9b0a      	ldr	r3, [sp, #40]	; 0x28
 8000e0c:	940b      	str	r4, [sp, #44]	; 0x2c
 8000e0e:	6b2b      	ldr	r3, [r5, #48]	; 0x30
 8000e10:	f043 0302 	orr.w	r3, r3, #2
 8000e14:	632b      	str	r3, [r5, #48]	; 0x30
 8000e16:	6b2b      	ldr	r3, [r5, #48]	; 0x30
 8000e18:	f003 0302 	and.w	r3, r3, #2
 8000e1c:	930b      	str	r3, [sp, #44]	; 0x2c
 8000e1e:	9b0b      	ldr	r3, [sp, #44]	; 0x2c
 8000e20:	940c      	str	r4, [sp, #48]	; 0x30
 8000e22:	6b2b      	ldr	r3, [r5, #48]	; 0x30
 8000e24:	f043 0301 	orr.w	r3, r3, #1
 8000e28:	632b      	str	r3, [r5, #48]	; 0x30
 8000e2a:	6b2b      	ldr	r3, [r5, #48]	; 0x30
 8000e2c:	f003 0301 	and.w	r3, r3, #1
 8000e30:	930c      	str	r3, [sp, #48]	; 0x30
 8000e32:	9b0c      	ldr	r3, [sp, #48]	; 0x30
 8000e34:	940d      	str	r4, [sp, #52]	; 0x34
 8000e36:	6b2b      	ldr	r3, [r5, #48]	; 0x30
 8000e38:	f043 0308 	orr.w	r3, r3, #8
 8000e3c:	632b      	str	r3, [r5, #48]	; 0x30
 8000e3e:	6b2b      	ldr	r3, [r5, #48]	; 0x30
 8000e40:	f003 0308 	and.w	r3, r3, #8
 8000e44:	4622      	mov	r2, r4
 8000e46:	930d      	str	r3, [sp, #52]	; 0x34
 8000e48:	2108      	movs	r1, #8
 8000e4a:	2601      	movs	r6, #1
 8000e4c:	9b0d      	ldr	r3, [sp, #52]	; 0x34
 8000e4e:	f001 f8e3 	bl	8002018 <HAL_GPIO_WritePin>
 8000e52:	2308      	movs	r3, #8
 8000e54:	487e      	ldr	r0, [pc, #504]	; (8001050 <main+0x2a4>)
 8000e56:	a913      	add	r1, sp, #76	; 0x4c
 8000e58:	e9cd 3613 	strd	r3, r6, [sp, #76]	; 0x4c
 8000e5c:	e9cd 6415 	strd	r6, r4, [sp, #84]	; 0x54
 8000e60:	f001 f800 	bl	8001e64 <HAL_GPIO_Init>
 8000e64:	9406      	str	r4, [sp, #24]
 8000e66:	6b2b      	ldr	r3, [r5, #48]	; 0x30
 8000e68:	f443 1300 	orr.w	r3, r3, #2097152	; 0x200000
 8000e6c:	632b      	str	r3, [r5, #48]	; 0x30
 8000e6e:	6b2b      	ldr	r3, [r5, #48]	; 0x30
 8000e70:	f403 1300 	and.w	r3, r3, #2097152	; 0x200000
 8000e74:	9306      	str	r3, [sp, #24]
 8000e76:	9b06      	ldr	r3, [sp, #24]
 8000e78:	9407      	str	r4, [sp, #28]
 8000e7a:	6b2b      	ldr	r3, [r5, #48]	; 0x30
 8000e7c:	f443 0380 	orr.w	r3, r3, #4194304	; 0x400000
 8000e80:	632b      	str	r3, [r5, #48]	; 0x30
 8000e82:	6b2b      	ldr	r3, [r5, #48]	; 0x30
 8000e84:	f403 0380 	and.w	r3, r3, #4194304	; 0x400000
 8000e88:	4622      	mov	r2, r4
 8000e8a:	4621      	mov	r1, r4
 8000e8c:	9307      	str	r3, [sp, #28]
 8000e8e:	200f      	movs	r0, #15
 8000e90:	9b07      	ldr	r3, [sp, #28]
 8000e92:	f000 fd97 	bl	80019c4 <HAL_NVIC_SetPriority>
 8000e96:	200f      	movs	r0, #15
 8000e98:	f000 fdc6 	bl	8001a28 <HAL_NVIC_EnableIRQ>
 8000e9c:	4622      	mov	r2, r4
 8000e9e:	2103      	movs	r1, #3
 8000ea0:	203b      	movs	r0, #59	; 0x3b
 8000ea2:	f000 fd8f 	bl	80019c4 <HAL_NVIC_SetPriority>
 8000ea6:	203b      	movs	r0, #59	; 0x3b
 8000ea8:	f000 fdbe 	bl	8001a28 <HAL_NVIC_EnableIRQ>
 8000eac:	2103      	movs	r1, #3
 8000eae:	4622      	mov	r2, r4
 8000eb0:	2045      	movs	r0, #69	; 0x45
 8000eb2:	f000 fd87 	bl	80019c4 <HAL_NVIC_SetPriority>
 8000eb6:	2045      	movs	r0, #69	; 0x45
 8000eb8:	f000 fdb6 	bl	8001a28 <HAL_NVIC_EnableIRQ>
 8000ebc:	4865      	ldr	r0, [pc, #404]	; (8001054 <main+0x2a8>)
 8000ebe:	4a66      	ldr	r2, [pc, #408]	; (8001058 <main+0x2ac>)
 8000ec0:	4b66      	ldr	r3, [pc, #408]	; (800105c <main+0x2b0>)
 8000ec2:	6204      	str	r4, [r0, #32]
 8000ec4:	f44f 4880 	mov.w	r8, #16384	; 0x4000
 8000ec8:	e9c0 2300 	strd	r2, r3, [r0]
 8000ecc:	e9c0 8404 	strd	r8, r4, [r0, #16]
 8000ed0:	e9c0 4402 	strd	r4, r4, [r0, #8]
 8000ed4:	e9c0 4406 	strd	r4, r4, [r0, #24]
 8000ed8:	f001 f980 	bl	80021dc <HAL_I2C_Init>
 8000edc:	4860      	ldr	r0, [pc, #384]	; (8001060 <main+0x2b4>)
 8000ede:	4b61      	ldr	r3, [pc, #388]	; (8001064 <main+0x2b8>)
 8000ee0:	f44f 7500 	mov.w	r5, #512	; 0x200
 8000ee4:	f44f 577a 	mov.w	r7, #16000	; 0x3e80
 8000ee8:	e9c0 3500 	strd	r3, r5, [r0]
 8000eec:	e9c0 7405 	strd	r7, r4, [r0, #20]
 8000ef0:	e9c0 4607 	strd	r4, r6, [r0, #28]
 8000ef4:	6105      	str	r5, [r0, #16]
 8000ef6:	e9c0 4402 	strd	r4, r4, [r0, #8]
 8000efa:	f001 faef 	bl	80024dc <HAL_I2S_Init>
 8000efe:	495a      	ldr	r1, [pc, #360]	; (8001068 <main+0x2bc>)
 8000f00:	485a      	ldr	r0, [pc, #360]	; (800106c <main+0x2c0>)
 8000f02:	f44f 33e1 	mov.w	r3, #115200	; 0x1c200
 8000f06:	e9c0 1300 	strd	r1, r3, [r0]
 8000f0a:	230c      	movs	r3, #12
 8000f0c:	e9c0 3405 	strd	r3, r4, [r0, #20]
 8000f10:	e9c0 4402 	strd	r4, r4, [r0, #8]
 8000f14:	6104      	str	r4, [r0, #16]
 8000f16:	61c4      	str	r4, [r0, #28]
 8000f18:	f002 ff6e 	bl	8003df8 <HAL_UART_Init>
 8000f1c:	4b54      	ldr	r3, [pc, #336]	; (8001070 <main+0x2c4>)
 8000f1e:	4a55      	ldr	r2, [pc, #340]	; (8001074 <main+0x2c8>)
 8000f20:	e9c3 2400 	strd	r2, r4, [r3]
 8000f24:	2205      	movs	r2, #5
 8000f26:	619a      	str	r2, [r3, #24]
 8000f28:	e9c3 4804 	strd	r4, r8, [r3, #16]
 8000f2c:	e9c3 4402 	strd	r4, r4, [r3, #8]
 8000f30:	f003 fb18 	bl	8004564 <MX_FATFS_Init>
 8000f34:	4850      	ldr	r0, [pc, #320]	; (8001078 <main+0x2cc>)
 8000f36:	4b51      	ldr	r3, [pc, #324]	; (800107c <main+0x2d0>)
 8000f38:	6184      	str	r4, [r0, #24]
 8000f3a:	f04f 0c7f 	mov.w	ip, #127	; 0x7f
 8000f3e:	e9c0 3400 	strd	r3, r4, [r0]
 8000f42:	23ff      	movs	r3, #255	; 0xff
 8000f44:	e9c0 c302 	strd	ip, r3, [r0, #8]
 8000f48:	e9c0 4404 	strd	r4, r4, [r0, #16]
 8000f4c:	f002 f88c 	bl	8003068 <HAL_RTC_Init>
 8000f50:	f44f 707a 	mov.w	r0, #1000	; 0x3e8
 8000f54:	f000 fd10 	bl	8001978 <HAL_Delay>
 8000f58:	f7ff fbfe 	bl	8000758 <Audio_Player_Init>
 8000f5c:	2128      	movs	r1, #40	; 0x28
 8000f5e:	4608      	mov	r0, r1
 8000f60:	f7ff fbd6 	bl	8000710 <WM8978_HPvol_Set>
 8000f64:	2032      	movs	r0, #50	; 0x32
 8000f66:	f7ff fbe7 	bl	8000738 <WM8978_SPKvol_Set>
 8000f6a:	f44f 707a 	mov.w	r0, #1000	; 0x3e8
 8000f6e:	f000 fd03 	bl	8001978 <HAL_Delay>
 8000f72:	4631      	mov	r1, r6
 8000f74:	4620      	mov	r0, r4
 8000f76:	f7ff fb2b 	bl	80005d0 <WM8978_ADDA_Cfg>
 8000f7a:	4622      	mov	r2, r4
 8000f7c:	4631      	mov	r1, r6
 8000f7e:	4630      	mov	r0, r6
 8000f80:	f7ff fb9a 	bl	80006b8 <WM8978_Input_Cfg>
 8000f84:	4631      	mov	r1, r6
 8000f86:	4620      	mov	r0, r4
 8000f88:	f7ff fb5a 	bl	8000640 <WM8978_Output_Cfg>
 8000f8c:	202e      	movs	r0, #46	; 0x2e
 8000f8e:	f7ff fb68 	bl	8000662 <WM8978_MIC_Gain>
 8000f92:	4621      	mov	r1, r4
 8000f94:	2002      	movs	r0, #2
 8000f96:	f7ff fb11 	bl	80005bc <WM8978_I2S_Cfg>
 8000f9a:	4620      	mov	r0, r4
 8000f9c:	f000 f998 	bl	80012d0 <my_mem_init>
 8000fa0:	4632      	mov	r2, r6
 8000fa2:	4937      	ldr	r1, [pc, #220]	; (8001080 <main+0x2d4>)
 8000fa4:	f8df 80fc 	ldr.w	r8, [pc, #252]	; 80010a4 <main+0x2f8>
 8000fa8:	a813      	add	r0, sp, #76	; 0x4c
 8000faa:	f004 fdd5 	bl	8005b58 <f_mount>
 8000fae:	4835      	ldr	r0, [pc, #212]	; (8001084 <main+0x2d8>)
 8000fb0:	f005 f991 	bl	80062d6 <f_mkdir>
 8000fb4:	4834      	ldr	r0, [pc, #208]	; (8001088 <main+0x2dc>)
 8000fb6:	f005 fbf3 	bl	80067a0 <iprintf>
 8000fba:	f640 10c4 	movw	r0, #2500	; 0x9c4
 8000fbe:	f7ff fc1d 	bl	80007fc <delay_ms>
 8000fc2:	f44f 5180 	mov.w	r1, #4096	; 0x1000
 8000fc6:	4620      	mov	r0, r4
 8000fc8:	f000 f9fc 	bl	80013c4 <mymalloc>
 8000fcc:	f44f 5180 	mov.w	r1, #4096	; 0x1000
 8000fd0:	f8c8 0000 	str.w	r0, [r8]
 8000fd4:	4620      	mov	r0, r4
 8000fd6:	f000 f9f5 	bl	80013c4 <mymalloc>
 8000fda:	4623      	mov	r3, r4
 8000fdc:	4629      	mov	r1, r5
 8000fde:	f8c9 0000 	str.w	r0, [r9]
 8000fe2:	4622      	mov	r2, r4
 8000fe4:	4620      	mov	r0, r4
 8000fe6:	f7ff fc15 	bl	8000814 <I2S2_Init>
 8000fea:	4638      	mov	r0, r7
 8000fec:	f7ff fc44 	bl	8000878 <I2S2_SampleRate_Set>
 8000ff0:	4926      	ldr	r1, [pc, #152]	; (800108c <main+0x2e0>)
 8000ff2:	4f27      	ldr	r7, [pc, #156]	; (8001090 <main+0x2e4>)
 8000ff4:	4632      	mov	r2, r6
 8000ff6:	1e88      	subs	r0, r1, #2
 8000ff8:	f7ff fc76 	bl	80008e8 <I2S2_TX_DMA_Init>
 8000ffc:	4a25      	ldr	r2, [pc, #148]	; (8001094 <main+0x2e8>)
 8000ffe:	f8d9 1000 	ldr.w	r1, [r9]
 8001002:	6813      	ldr	r3, [r2, #0]
 8001004:	f8d8 0000 	ldr.w	r0, [r8]
 8001008:	f8df 9044 	ldr.w	r9, [pc, #68]	; 8001050 <main+0x2a4>
 800100c:	f8df 8098 	ldr.w	r8, [pc, #152]	; 80010a8 <main+0x2fc>
 8001010:	f023 0310 	bic.w	r3, r3, #16
 8001014:	6013      	str	r3, [r2, #0]
 8001016:	f44f 6200 	mov.w	r2, #2048	; 0x800
 800101a:	f7ff fcdf 	bl	80009dc <I2S2ext_RX_DMA_Init>
 800101e:	4b1e      	ldr	r3, [pc, #120]	; (8001098 <main+0x2ec>)
 8001020:	4a1e      	ldr	r2, [pc, #120]	; (800109c <main+0x2f0>)
 8001022:	601a      	str	r2, [r3, #0]
 8001024:	f44f 710c 	mov.w	r1, #560	; 0x230
 8001028:	4620      	mov	r0, r4
 800102a:	f000 f9cb 	bl	80013c4 <mymalloc>
 800102e:	4625      	mov	r5, r4
 8001030:	6038      	str	r0, [r7, #0]
 8001032:	4626      	mov	r6, r4
 8001034:	f8df a074 	ldr.w	sl, [pc, #116]	; 80010ac <main+0x300>
 8001038:	f8da 3000 	ldr.w	r3, [sl]
 800103c:	b3c3      	cbz	r3, 80010b0 <main+0x304>
 800103e:	2b01      	cmp	r3, #1
 8001040:	f000 80d1 	beq.w	80011e6 <main+0x43a>
 8001044:	2005      	movs	r0, #5
 8001046:	f7ff fbd9 	bl	80007fc <delay_ms>
 800104a:	e7f3      	b.n	8001034 <main+0x288>
 800104c:	40023800 	.word	0x40023800
 8001050:	40021000 	.word	0x40021000
 8001054:	20000610 	.word	0x20000610
 8001058:	40005400 	.word	0x40005400
 800105c:	000186a0 	.word	0x000186a0
 8001060:	20000838 	.word	0x20000838
 8001064:	40003800 	.word	0x40003800
 8001068:	40011000 	.word	0x40011000
 800106c:	2000068c 	.word	0x2000068c
 8001070:	20000754 	.word	0x20000754
 8001074:	40012c00 	.word	0x40012c00
 8001078:	200006d0 	.word	0x200006d0
 800107c:	40002800 	.word	0x40002800
 8001080:	08007906 	.word	0x08007906
 8001084:	08007908 	.word	0x08007908
 8001088:	08007911 	.word	0x08007911
 800108c:	0800795a 	.word	0x0800795a
 8001090:	20000130 	.word	0x20000130
 8001094:	40026070 	.word	0x40026070
 8001098:	20000230 	.word	0x20000230
 800109c:	08000be9 	.word	0x08000be9
 80010a0:	20000138 	.word	0x20000138
 80010a4:	20000134 	.word	0x20000134
 80010a8:	20000128 	.word	0x20000128
 80010ac:	20000120 	.word	0x20000120
 80010b0:	f8d8 2000 	ldr.w	r2, [r8]
 80010b4:	2a17      	cmp	r2, #23
 80010b6:	f300 8093 	bgt.w	80011e0 <main+0x434>
 80010ba:	2d00      	cmp	r5, #0
 80010bc:	d1c2      	bne.n	8001044 <main+0x298>
 80010be:	2108      	movs	r1, #8
 80010c0:	4648      	mov	r0, r9
 80010c2:	f000 ffae 	bl	8002022 <HAL_GPIO_TogglePin>
 80010c6:	f44f 710c 	mov.w	r1, #560	; 0x230
 80010ca:	4628      	mov	r0, r5
 80010cc:	f000 f97a 	bl	80013c4 <mymalloc>
 80010d0:	f8df a18c 	ldr.w	sl, [pc, #396]	; 8001260 <main+0x4b4>
 80010d4:	f8ca 0000 	str.w	r0, [sl]
 80010d8:	f7ff fd68 	bl	8000bac <I2S_Play_Start>
 80010dc:	f7ff fd70 	bl	8000bc0 <I2S_Rec_Start>
 80010e0:	462a      	mov	r2, r5
 80010e2:	a90e      	add	r1, sp, #56	; 0x38
 80010e4:	4855      	ldr	r0, [pc, #340]	; (800123c <main+0x490>)
 80010e6:	f002 f816 	bl	8003116 <HAL_RTC_GetTime>
 80010ea:	462a      	mov	r2, r5
 80010ec:	a905      	add	r1, sp, #20
 80010ee:	4853      	ldr	r0, [pc, #332]	; (800123c <main+0x490>)
 80010f0:	f002 f836 	bl	8003160 <HAL_RTC_GetDate>
 80010f4:	f44f 718c 	mov.w	r1, #280	; 0x118
 80010f8:	4628      	mov	r0, r5
 80010fa:	f000 f963 	bl	80013c4 <mymalloc>
 80010fe:	4b50      	ldr	r3, [pc, #320]	; (8001240 <main+0x494>)
 8001100:	4d50      	ldr	r5, [pc, #320]	; (8001244 <main+0x498>)
 8001102:	6018      	str	r0, [r3, #0]
 8001104:	2028      	movs	r0, #40	; 0x28
 8001106:	f005 fa7b 	bl	8006600 <malloc>
 800110a:	f89d 303a 	ldrb.w	r3, [sp, #58]	; 0x3a
 800110e:	6028      	str	r0, [r5, #0]
 8001110:	9303      	str	r3, [sp, #12]
 8001112:	f89d 3039 	ldrb.w	r3, [sp, #57]	; 0x39
 8001116:	f89d 2017 	ldrb.w	r2, [sp, #23]
 800111a:	9302      	str	r3, [sp, #8]
 800111c:	f89d 3038 	ldrb.w	r3, [sp, #56]	; 0x38
 8001120:	9301      	str	r3, [sp, #4]
 8001122:	f89d 3016 	ldrb.w	r3, [sp, #22]
 8001126:	4948      	ldr	r1, [pc, #288]	; (8001248 <main+0x49c>)
 8001128:	9300      	str	r3, [sp, #0]
 800112a:	f502 62fa 	add.w	r2, r2, #2000	; 0x7d0
 800112e:	f89d 3015 	ldrb.w	r3, [sp, #21]
 8001132:	f005 fb5d 	bl	80067f0 <siprintf>
 8001136:	6829      	ldr	r1, [r5, #0]
 8001138:	6838      	ldr	r0, [r7, #0]
 800113a:	2201      	movs	r2, #1
 800113c:	f004 fd40 	bl	8005bc0 <f_open>
 8001140:	f89d 303a 	ldrb.w	r3, [sp, #58]	; 0x3a
 8001144:	9302      	str	r3, [sp, #8]
 8001146:	f89d 3039 	ldrb.w	r3, [sp, #57]	; 0x39
 800114a:	9301      	str	r3, [sp, #4]
 800114c:	f89d 1017 	ldrb.w	r1, [sp, #23]
 8001150:	f89d 3038 	ldrb.w	r3, [sp, #56]	; 0x38
 8001154:	9300      	str	r3, [sp, #0]
 8001156:	f89d 2015 	ldrb.w	r2, [sp, #21]
 800115a:	f89d 3016 	ldrb.w	r3, [sp, #22]
 800115e:	f8da 0000 	ldr.w	r0, [sl]
 8001162:	f501 61fa 	add.w	r1, r1, #2000	; 0x7d0
 8001166:	f7ff fdb7 	bl	8000cd8 <set_timestamp>
 800116a:	2c04      	cmp	r4, #4
 800116c:	d00a      	beq.n	8001184 <main+0x3d8>
 800116e:	6838      	ldr	r0, [r7, #0]
 8001170:	f004 ff3a 	bl	8005fe8 <f_close>
 8001174:	6828      	ldr	r0, [r5, #0]
 8001176:	f005 f855 	bl	8006224 <f_unlink>
 800117a:	4604      	mov	r4, r0
 800117c:	4601      	mov	r1, r0
 800117e:	4833      	ldr	r0, [pc, #204]	; (800124c <main+0x4a0>)
 8001180:	f005 fb0e 	bl	80067a0 <iprintf>
 8001184:	4832      	ldr	r0, [pc, #200]	; (8001250 <main+0x4a4>)
 8001186:	f7ff f823 	bl	80001d0 <strlen>
 800118a:	f8d8 3000 	ldr.w	r3, [r8]
 800118e:	4930      	ldr	r1, [pc, #192]	; (8001250 <main+0x4a4>)
 8001190:	1c42      	adds	r2, r0, #1
 8001192:	4830      	ldr	r0, [pc, #192]	; (8001254 <main+0x4a8>)
 8001194:	eb03 1343 	add.w	r3, r3, r3, lsl #5
 8001198:	4418      	add	r0, r3
 800119a:	f005 fa41 	bl	8006620 <memcpy>
 800119e:	212c      	movs	r1, #44	; 0x2c
 80011a0:	2000      	movs	r0, #0
 80011a2:	f000 f90f 	bl	80013c4 <mymalloc>
 80011a6:	4606      	mov	r6, r0
 80011a8:	f7ff fd6e 	bl	8000c88 <recoder_wav_init>
 80011ac:	6829      	ldr	r1, [r5, #0]
 80011ae:	f8da 0000 	ldr.w	r0, [sl]
 80011b2:	220a      	movs	r2, #10
 80011b4:	f004 fd04 	bl	8005bc0 <f_open>
 80011b8:	f10d 0312 	add.w	r3, sp, #18
 80011bc:	222c      	movs	r2, #44	; 0x2c
 80011be:	4631      	mov	r1, r6
 80011c0:	f8da 0000 	ldr.w	r0, [sl]
 80011c4:	f004 fe00 	bl	8005dc8 <f_write>
 80011c8:	4b23      	ldr	r3, [pc, #140]	; (8001258 <main+0x4ac>)
 80011ca:	7018      	strb	r0, [r3, #0]
 80011cc:	f8d8 3000 	ldr.w	r3, [r8]
 80011d0:	6828      	ldr	r0, [r5, #0]
 80011d2:	3301      	adds	r3, #1
 80011d4:	f8c8 3000 	str.w	r3, [r8]
 80011d8:	2501      	movs	r5, #1
 80011da:	f005 fa19 	bl	8006610 <free>
 80011de:	e731      	b.n	8001044 <main+0x298>
 80011e0:	f8c8 3000 	str.w	r3, [r8]
 80011e4:	e72e      	b.n	8001044 <main+0x298>
 80011e6:	4b1d      	ldr	r3, [pc, #116]	; (800125c <main+0x4b0>)
 80011e8:	4d1d      	ldr	r5, [pc, #116]	; (8001260 <main+0x4b4>)
 80011ea:	681b      	ldr	r3, [r3, #0]
 80011ec:	6828      	ldr	r0, [r5, #0]
 80011ee:	62b3      	str	r3, [r6, #40]	; 0x28
 80011f0:	f103 0224 	add.w	r2, r3, #36	; 0x24
 80011f4:	6072      	str	r2, [r6, #4]
 80011f6:	2100      	movs	r1, #0
 80011f8:	f004 ff07 	bl	800600a <f_lseek>
 80011fc:	222c      	movs	r2, #44	; 0x2c
 80011fe:	f10d 0312 	add.w	r3, sp, #18
 8001202:	4631      	mov	r1, r6
 8001204:	6828      	ldr	r0, [r5, #0]
 8001206:	f004 fddf 	bl	8005dc8 <f_write>
 800120a:	6828      	ldr	r0, [r5, #0]
 800120c:	f004 feec 	bl	8005fe8 <f_close>
 8001210:	6829      	ldr	r1, [r5, #0]
 8001212:	2000      	movs	r0, #0
 8001214:	f000 f8ca 	bl	80013ac <myfree>
 8001218:	4631      	mov	r1, r6
 800121a:	2000      	movs	r0, #0
 800121c:	f000 f8c6 	bl	80013ac <myfree>
 8001220:	4b07      	ldr	r3, [pc, #28]	; (8001240 <main+0x494>)
 8001222:	2000      	movs	r0, #0
 8001224:	6819      	ldr	r1, [r3, #0]
 8001226:	f000 f8c1 	bl	80013ac <myfree>
 800122a:	f7ff fcd3 	bl	8000bd4 <I2S_Rec_Stop>
 800122e:	4b0d      	ldr	r3, [pc, #52]	; (8001264 <main+0x4b8>)
 8001230:	2500      	movs	r5, #0
 8001232:	f8ca 5000 	str.w	r5, [sl]
 8001236:	601d      	str	r5, [r3, #0]
 8001238:	e704      	b.n	8001044 <main+0x298>
 800123a:	bf00      	nop
 800123c:	200006d0 	.word	0x200006d0
 8001240:	2000012c 	.word	0x2000012c
 8001244:	2000013c 	.word	0x2000013c
 8001248:	08007921 	.word	0x08007921
 800124c:	0800794c 	.word	0x0800794c
 8001250:	20000664 	.word	0x20000664
 8001254:	200002f8 	.word	0x200002f8
 8001258:	20015c88 	.word	0x20015c88
 800125c:	20000880 	.word	0x20000880
 8001260:	20000124 	.word	0x20000124
 8001264:	2000011c 	.word	0x2000011c

08001268 <__io_putchar>:
 8001268:	b507      	push	{r0, r1, r2, lr}
 800126a:	f44f 737a 	mov.w	r3, #1000	; 0x3e8
 800126e:	9001      	str	r0, [sp, #4]
 8001270:	2201      	movs	r2, #1
 8001272:	a901      	add	r1, sp, #4
 8001274:	4803      	ldr	r0, [pc, #12]	; (8001284 <__io_putchar+0x1c>)
 8001276:	f002 fded 	bl	8003e54 <HAL_UART_Transmit>
 800127a:	9801      	ldr	r0, [sp, #4]
 800127c:	b003      	add	sp, #12
 800127e:	f85d fb04 	ldr.w	pc, [sp], #4
 8001282:	bf00      	nop
 8001284:	2000068c 	.word	0x2000068c

08001288 <Error_Handler>:
 8001288:	4770      	bx	lr
	...

0800128c <my_mem_perused>:
 800128c:	490b      	ldr	r1, [pc, #44]	; (80012bc <my_mem_perused+0x30>)
 800128e:	2300      	movs	r3, #0
 8001290:	3002      	adds	r0, #2
 8001292:	461a      	mov	r2, r3
 8001294:	eb01 0080 	add.w	r0, r1, r0, lsl #2
 8001298:	f5b3 5fa0 	cmp.w	r3, #5120	; 0x1400
 800129c:	d107      	bne.n	80012ae <my_mem_perused+0x22>
 800129e:	2064      	movs	r0, #100	; 0x64
 80012a0:	4350      	muls	r0, r2
 80012a2:	f44f 6320 	mov.w	r3, #2560	; 0xa00
 80012a6:	fbb0 f0f3 	udiv	r0, r0, r3
 80012aa:	b2c0      	uxtb	r0, r0
 80012ac:	4770      	bx	lr
 80012ae:	6841      	ldr	r1, [r0, #4]
 80012b0:	5ac9      	ldrh	r1, [r1, r3]
 80012b2:	b101      	cbz	r1, 80012b6 <my_mem_perused+0x2a>
 80012b4:	3201      	adds	r2, #1
 80012b6:	3302      	adds	r3, #2
 80012b8:	e7ee      	b.n	8001298 <my_mem_perused+0xc>
 80012ba:	bf00      	nop
 80012bc:	20000074 	.word	0x20000074

080012c0 <mymemset>:
 80012c0:	4402      	add	r2, r0
 80012c2:	4290      	cmp	r0, r2
 80012c4:	d100      	bne.n	80012c8 <mymemset+0x8>
 80012c6:	4770      	bx	lr
 80012c8:	f800 1b01 	strb.w	r1, [r0], #1
 80012cc:	e7f9      	b.n	80012c2 <mymemset+0x2>
	...

080012d0 <my_mem_init>:
 80012d0:	b538      	push	{r3, r4, r5, lr}
 80012d2:	4b0b      	ldr	r3, [pc, #44]	; (8001300 <my_mem_init+0x30>)
 80012d4:	1c85      	adds	r5, r0, #2
 80012d6:	4604      	mov	r4, r0
 80012d8:	eb03 0085 	add.w	r0, r3, r5, lsl #2
 80012dc:	f44f 52a0 	mov.w	r2, #5120	; 0x1400
 80012e0:	6840      	ldr	r0, [r0, #4]
 80012e2:	2100      	movs	r1, #0
 80012e4:	f7ff ffec 	bl	80012c0 <mymemset>
 80012e8:	f44f 32a0 	mov.w	r2, #81920	; 0x14000
 80012ec:	f853 0025 	ldr.w	r0, [r3, r5, lsl #2]
 80012f0:	2100      	movs	r1, #0
 80012f2:	f7ff ffe5 	bl	80012c0 <mymemset>
 80012f6:	1918      	adds	r0, r3, r4
 80012f8:	2301      	movs	r3, #1
 80012fa:	7403      	strb	r3, [r0, #16]
 80012fc:	bd38      	pop	{r3, r4, r5, pc}
 80012fe:	bf00      	nop
 8001300:	20000074 	.word	0x20000074

08001304 <my_mem_malloc>:
 8001304:	b570      	push	{r4, r5, r6, lr}
 8001306:	4c17      	ldr	r4, [pc, #92]	; (8001364 <my_mem_malloc+0x60>)
 8001308:	1823      	adds	r3, r4, r0
 800130a:	4606      	mov	r6, r0
 800130c:	7c1b      	ldrb	r3, [r3, #16]
 800130e:	460d      	mov	r5, r1
 8001310:	b90b      	cbnz	r3, 8001316 <my_mem_malloc+0x12>
 8001312:	6823      	ldr	r3, [r4, #0]
 8001314:	4798      	blx	r3
 8001316:	b30d      	cbz	r5, 800135c <my_mem_malloc+0x58>
 8001318:	eb04 0086 	add.w	r0, r4, r6, lsl #2
 800131c:	06eb      	lsls	r3, r5, #27
 800131e:	ea4f 1255 	mov.w	r2, r5, lsr #5
 8001322:	68c3      	ldr	r3, [r0, #12]
 8001324:	bf18      	it	ne
 8001326:	3201      	addne	r2, #1
 8001328:	2100      	movs	r1, #0
 800132a:	f640 10ff 	movw	r0, #2559	; 0x9ff
 800132e:	f833 4010 	ldrh.w	r4, [r3, r0, lsl #1]
 8001332:	b95c      	cbnz	r4, 800134c <my_mem_malloc+0x48>
 8001334:	3101      	adds	r1, #1
 8001336:	428a      	cmp	r2, r1
 8001338:	d10d      	bne.n	8001356 <my_mem_malloc+0x52>
 800133a:	1814      	adds	r4, r2, r0
 800133c:	eb03 0140 	add.w	r1, r3, r0, lsl #1
 8001340:	eb03 0344 	add.w	r3, r3, r4, lsl #1
 8001344:	4299      	cmp	r1, r3
 8001346:	d103      	bne.n	8001350 <my_mem_malloc+0x4c>
 8001348:	0140      	lsls	r0, r0, #5
 800134a:	bd70      	pop	{r4, r5, r6, pc}
 800134c:	2100      	movs	r1, #0
 800134e:	e7f2      	b.n	8001336 <my_mem_malloc+0x32>
 8001350:	f821 2b02 	strh.w	r2, [r1], #2
 8001354:	e7f6      	b.n	8001344 <my_mem_malloc+0x40>
 8001356:	3801      	subs	r0, #1
 8001358:	d2e9      	bcs.n	800132e <my_mem_malloc+0x2a>
 800135a:	e7f6      	b.n	800134a <my_mem_malloc+0x46>
 800135c:	f04f 30ff 	mov.w	r0, #4294967295
 8001360:	e7f3      	b.n	800134a <my_mem_malloc+0x46>
 8001362:	bf00      	nop
 8001364:	20000074 	.word	0x20000074

08001368 <my_mem_free>:
 8001368:	b510      	push	{r4, lr}
 800136a:	4b0f      	ldr	r3, [pc, #60]	; (80013a8 <my_mem_free+0x40>)
 800136c:	181c      	adds	r4, r3, r0
 800136e:	7c24      	ldrb	r4, [r4, #16]
 8001370:	b91c      	cbnz	r4, 800137a <my_mem_free+0x12>
 8001372:	681b      	ldr	r3, [r3, #0]
 8001374:	4798      	blx	r3
 8001376:	2001      	movs	r0, #1
 8001378:	bd10      	pop	{r4, pc}
 800137a:	f5b1 3fa0 	cmp.w	r1, #81920	; 0x14000
 800137e:	d211      	bcs.n	80013a4 <my_mem_free+0x3c>
 8001380:	eb03 0080 	add.w	r0, r3, r0, lsl #2
 8001384:	0949      	lsrs	r1, r1, #5
 8001386:	68c3      	ldr	r3, [r0, #12]
 8001388:	f833 2011 	ldrh.w	r2, [r3, r1, lsl #1]
 800138c:	eb03 0141 	add.w	r1, r3, r1, lsl #1
 8001390:	2300      	movs	r3, #0
 8001392:	4618      	mov	r0, r3
 8001394:	4293      	cmp	r3, r2
 8001396:	db01      	blt.n	800139c <my_mem_free+0x34>
 8001398:	2000      	movs	r0, #0
 800139a:	e7ed      	b.n	8001378 <my_mem_free+0x10>
 800139c:	f821 0b02 	strh.w	r0, [r1], #2
 80013a0:	3301      	adds	r3, #1
 80013a2:	e7f7      	b.n	8001394 <my_mem_free+0x2c>
 80013a4:	2002      	movs	r0, #2
 80013a6:	e7e7      	b.n	8001378 <my_mem_free+0x10>
 80013a8:	20000074 	.word	0x20000074

080013ac <myfree>:
 80013ac:	4603      	mov	r3, r0
 80013ae:	b131      	cbz	r1, 80013be <myfree+0x12>
 80013b0:	4a03      	ldr	r2, [pc, #12]	; (80013c0 <myfree+0x14>)
 80013b2:	3302      	adds	r3, #2
 80013b4:	f852 3023 	ldr.w	r3, [r2, r3, lsl #2]
 80013b8:	1ac9      	subs	r1, r1, r3
 80013ba:	f7ff bfd5 	b.w	8001368 <my_mem_free>
 80013be:	4770      	bx	lr
 80013c0:	20000074 	.word	0x20000074

080013c4 <mymalloc>:
 80013c4:	b510      	push	{r4, lr}
 80013c6:	4604      	mov	r4, r0
 80013c8:	f7ff ff9c 	bl	8001304 <my_mem_malloc>
 80013cc:	1c43      	adds	r3, r0, #1
 80013ce:	bf1b      	ittet	ne
 80013d0:	4b03      	ldrne	r3, [pc, #12]	; (80013e0 <mymalloc+0x1c>)
 80013d2:	3402      	addne	r4, #2
 80013d4:	2000      	moveq	r0, #0
 80013d6:	f853 3024 	ldrne.w	r3, [r3, r4, lsl #2]
 80013da:	bf18      	it	ne
 80013dc:	18c0      	addne	r0, r0, r3
 80013de:	bd10      	pop	{r4, pc}
 80013e0:	20000074 	.word	0x20000074

080013e4 <HAL_MspInit>:
 80013e4:	b082      	sub	sp, #8
 80013e6:	4b0c      	ldr	r3, [pc, #48]	; (8001418 <HAL_MspInit+0x34>)
 80013e8:	2100      	movs	r1, #0
 80013ea:	9100      	str	r1, [sp, #0]
 80013ec:	6c5a      	ldr	r2, [r3, #68]	; 0x44
 80013ee:	f442 4280 	orr.w	r2, r2, #16384	; 0x4000
 80013f2:	645a      	str	r2, [r3, #68]	; 0x44
 80013f4:	6c5a      	ldr	r2, [r3, #68]	; 0x44
 80013f6:	f402 4280 	and.w	r2, r2, #16384	; 0x4000
 80013fa:	9200      	str	r2, [sp, #0]
 80013fc:	9a00      	ldr	r2, [sp, #0]
 80013fe:	9101      	str	r1, [sp, #4]
 8001400:	6c1a      	ldr	r2, [r3, #64]	; 0x40
 8001402:	f042 5280 	orr.w	r2, r2, #268435456	; 0x10000000
 8001406:	641a      	str	r2, [r3, #64]	; 0x40
 8001408:	6c1b      	ldr	r3, [r3, #64]	; 0x40
 800140a:	f003 5380 	and.w	r3, r3, #268435456	; 0x10000000
 800140e:	9301      	str	r3, [sp, #4]
 8001410:	9b01      	ldr	r3, [sp, #4]
 8001412:	b002      	add	sp, #8
 8001414:	4770      	bx	lr
 8001416:	bf00      	nop
 8001418:	40023800 	.word	0x40023800

0800141c <HAL_I2C_MspInit>:
 800141c:	b530      	push	{r4, r5, lr}
 800141e:	4604      	mov	r4, r0
 8001420:	b089      	sub	sp, #36	; 0x24
 8001422:	2214      	movs	r2, #20
 8001424:	2100      	movs	r1, #0
 8001426:	a803      	add	r0, sp, #12
 8001428:	f005 f908 	bl	800663c <memset>
 800142c:	6822      	ldr	r2, [r4, #0]
 800142e:	4b14      	ldr	r3, [pc, #80]	; (8001480 <HAL_I2C_MspInit+0x64>)
 8001430:	429a      	cmp	r2, r3
 8001432:	d123      	bne.n	800147c <HAL_I2C_MspInit+0x60>
 8001434:	4c13      	ldr	r4, [pc, #76]	; (8001484 <HAL_I2C_MspInit+0x68>)
 8001436:	4814      	ldr	r0, [pc, #80]	; (8001488 <HAL_I2C_MspInit+0x6c>)
 8001438:	2500      	movs	r5, #0
 800143a:	9501      	str	r5, [sp, #4]
 800143c:	6b23      	ldr	r3, [r4, #48]	; 0x30
 800143e:	f043 0302 	orr.w	r3, r3, #2
 8001442:	6323      	str	r3, [r4, #48]	; 0x30
 8001444:	6b23      	ldr	r3, [r4, #48]	; 0x30
 8001446:	f003 0302 	and.w	r3, r3, #2
 800144a:	9301      	str	r3, [sp, #4]
 800144c:	9b01      	ldr	r3, [sp, #4]
 800144e:	22c0      	movs	r2, #192	; 0xc0
 8001450:	2312      	movs	r3, #18
 8001452:	e9cd 2303 	strd	r2, r3, [sp, #12]
 8001456:	2101      	movs	r1, #1
 8001458:	2303      	movs	r3, #3
 800145a:	e9cd 1305 	strd	r1, r3, [sp, #20]
 800145e:	2304      	movs	r3, #4
 8001460:	a903      	add	r1, sp, #12
 8001462:	9307      	str	r3, [sp, #28]
 8001464:	f000 fcfe 	bl	8001e64 <HAL_GPIO_Init>
 8001468:	9502      	str	r5, [sp, #8]
 800146a:	6c23      	ldr	r3, [r4, #64]	; 0x40
 800146c:	f443 1300 	orr.w	r3, r3, #2097152	; 0x200000
 8001470:	6423      	str	r3, [r4, #64]	; 0x40
 8001472:	6c23      	ldr	r3, [r4, #64]	; 0x40
 8001474:	f403 1300 	and.w	r3, r3, #2097152	; 0x200000
 8001478:	9302      	str	r3, [sp, #8]
 800147a:	9b02      	ldr	r3, [sp, #8]
 800147c:	b009      	add	sp, #36	; 0x24
 800147e:	bd30      	pop	{r4, r5, pc}
 8001480:	40005400 	.word	0x40005400
 8001484:	40023800 	.word	0x40023800
 8001488:	40020400 	.word	0x40020400

0800148c <HAL_I2S_MspInit>:
 800148c:	b5f0      	push	{r4, r5, r6, r7, lr}
 800148e:	b08d      	sub	sp, #52	; 0x34
 8001490:	4606      	mov	r6, r0
 8001492:	2214      	movs	r2, #20
 8001494:	2100      	movs	r1, #0
 8001496:	a807      	add	r0, sp, #28
 8001498:	f005 f8d0 	bl	800663c <memset>
 800149c:	2210      	movs	r2, #16
 800149e:	2100      	movs	r1, #0
 80014a0:	a803      	add	r0, sp, #12
 80014a2:	f005 f8cb 	bl	800663c <memset>
 80014a6:	6832      	ldr	r2, [r6, #0]
 80014a8:	4b36      	ldr	r3, [pc, #216]	; (8001584 <HAL_I2S_MspInit+0xf8>)
 80014aa:	429a      	cmp	r2, r3
 80014ac:	d168      	bne.n	8001580 <HAL_I2S_MspInit+0xf4>
 80014ae:	236d      	movs	r3, #109	; 0x6d
 80014b0:	2101      	movs	r1, #1
 80014b2:	e9cd 1303 	strd	r1, r3, [sp, #12]
 80014b6:	a803      	add	r0, sp, #12
 80014b8:	2302      	movs	r3, #2
 80014ba:	9305      	str	r3, [sp, #20]
 80014bc:	f001 fce4 	bl	8002e88 <HAL_RCCEx_PeriphCLKConfig>
 80014c0:	b108      	cbz	r0, 80014c6 <HAL_I2S_MspInit+0x3a>
 80014c2:	f7ff fee1 	bl	8001288 <Error_Handler>
 80014c6:	2500      	movs	r5, #0
 80014c8:	4b2f      	ldr	r3, [pc, #188]	; (8001588 <HAL_I2S_MspInit+0xfc>)
 80014ca:	9500      	str	r5, [sp, #0]
 80014cc:	6c1a      	ldr	r2, [r3, #64]	; 0x40
 80014ce:	482f      	ldr	r0, [pc, #188]	; (800158c <HAL_I2S_MspInit+0x100>)
 80014d0:	f442 4280 	orr.w	r2, r2, #16384	; 0x4000
 80014d4:	641a      	str	r2, [r3, #64]	; 0x40
 80014d6:	6c1a      	ldr	r2, [r3, #64]	; 0x40
 80014d8:	f402 4280 	and.w	r2, r2, #16384	; 0x4000
 80014dc:	9200      	str	r2, [sp, #0]
 80014de:	9a00      	ldr	r2, [sp, #0]
 80014e0:	9501      	str	r5, [sp, #4]
 80014e2:	6b1a      	ldr	r2, [r3, #48]	; 0x30
 80014e4:	f042 0204 	orr.w	r2, r2, #4
 80014e8:	631a      	str	r2, [r3, #48]	; 0x30
 80014ea:	6b1a      	ldr	r2, [r3, #48]	; 0x30
 80014ec:	f002 0204 	and.w	r2, r2, #4
 80014f0:	9201      	str	r2, [sp, #4]
 80014f2:	9a01      	ldr	r2, [sp, #4]
 80014f4:	9502      	str	r5, [sp, #8]
 80014f6:	6b1a      	ldr	r2, [r3, #48]	; 0x30
 80014f8:	f042 0202 	orr.w	r2, r2, #2
 80014fc:	631a      	str	r2, [r3, #48]	; 0x30
 80014fe:	6b1b      	ldr	r3, [r3, #48]	; 0x30
 8001500:	f003 0302 	and.w	r3, r3, #2
 8001504:	9302      	str	r3, [sp, #8]
 8001506:	2402      	movs	r4, #2
 8001508:	9b02      	ldr	r3, [sp, #8]
 800150a:	2304      	movs	r3, #4
 800150c:	e9cd 3407 	strd	r3, r4, [sp, #28]
 8001510:	a907      	add	r1, sp, #28
 8001512:	2306      	movs	r3, #6
 8001514:	930b      	str	r3, [sp, #44]	; 0x2c
 8001516:	2705      	movs	r7, #5
 8001518:	e9cd 5509 	strd	r5, r5, [sp, #36]	; 0x24
 800151c:	f000 fca2 	bl	8001e64 <HAL_GPIO_Init>
 8001520:	2348      	movs	r3, #72	; 0x48
 8001522:	481a      	ldr	r0, [pc, #104]	; (800158c <HAL_I2S_MspInit+0x100>)
 8001524:	970b      	str	r7, [sp, #44]	; 0x2c
 8001526:	a907      	add	r1, sp, #28
 8001528:	e9cd 3407 	strd	r3, r4, [sp, #28]
 800152c:	e9cd 5509 	strd	r5, r5, [sp, #36]	; 0x24
 8001530:	f000 fc98 	bl	8001e64 <HAL_GPIO_Init>
 8001534:	f44f 5340 	mov.w	r3, #12288	; 0x3000
 8001538:	4815      	ldr	r0, [pc, #84]	; (8001590 <HAL_I2S_MspInit+0x104>)
 800153a:	970b      	str	r7, [sp, #44]	; 0x2c
 800153c:	a907      	add	r1, sp, #28
 800153e:	e9cd 3407 	strd	r3, r4, [sp, #28]
 8001542:	e9cd 5509 	strd	r5, r5, [sp, #36]	; 0x24
 8001546:	4c13      	ldr	r4, [pc, #76]	; (8001594 <HAL_I2S_MspInit+0x108>)
 8001548:	f000 fc8c 	bl	8001e64 <HAL_GPIO_Init>
 800154c:	4b12      	ldr	r3, [pc, #72]	; (8001598 <HAL_I2S_MspInit+0x10c>)
 800154e:	e9c4 3500 	strd	r3, r5, [r4]
 8001552:	2340      	movs	r3, #64	; 0x40
 8001554:	e9c4 3502 	strd	r3, r5, [r4, #8]
 8001558:	f44f 6280 	mov.w	r2, #1024	; 0x400
 800155c:	f44f 6300 	mov.w	r3, #2048	; 0x800
 8001560:	e9c4 2304 	strd	r2, r3, [r4, #16]
 8001564:	4620      	mov	r0, r4
 8001566:	f44f 5300 	mov.w	r3, #8192	; 0x2000
 800156a:	e9c4 3506 	strd	r3, r5, [r4, #24]
 800156e:	e9c4 5508 	strd	r5, r5, [r4, #32]
 8001572:	f000 fa93 	bl	8001a9c <HAL_DMA_Init>
 8001576:	b108      	cbz	r0, 800157c <HAL_I2S_MspInit+0xf0>
 8001578:	f7ff fe86 	bl	8001288 <Error_Handler>
 800157c:	63b4      	str	r4, [r6, #56]	; 0x38
 800157e:	63a6      	str	r6, [r4, #56]	; 0x38
 8001580:	b00d      	add	sp, #52	; 0x34
 8001582:	bdf0      	pop	{r4, r5, r6, r7, pc}
 8001584:	40003800 	.word	0x40003800
 8001588:	40023800 	.word	0x40023800
 800158c:	40020800 	.word	0x40020800
 8001590:	40020400 	.word	0x40020400
 8001594:	200007d8 	.word	0x200007d8
 8001598:	40026070 	.word	0x40026070

0800159c <HAL_RTC_MspInit>:
 800159c:	b51f      	push	{r0, r1, r2, r3, r4, lr}
 800159e:	4604      	mov	r4, r0
 80015a0:	2210      	movs	r2, #16
 80015a2:	2100      	movs	r1, #0
 80015a4:	4668      	mov	r0, sp
 80015a6:	f005 f849 	bl	800663c <memset>
 80015aa:	6822      	ldr	r2, [r4, #0]
 80015ac:	4b09      	ldr	r3, [pc, #36]	; (80015d4 <HAL_RTC_MspInit+0x38>)
 80015ae:	429a      	cmp	r2, r3
 80015b0:	d10d      	bne.n	80015ce <HAL_RTC_MspInit+0x32>
 80015b2:	2302      	movs	r3, #2
 80015b4:	9300      	str	r3, [sp, #0]
 80015b6:	4668      	mov	r0, sp
 80015b8:	f44f 7380 	mov.w	r3, #256	; 0x100
 80015bc:	9303      	str	r3, [sp, #12]
 80015be:	f001 fc63 	bl	8002e88 <HAL_RCCEx_PeriphCLKConfig>
 80015c2:	b108      	cbz	r0, 80015c8 <HAL_RTC_MspInit+0x2c>
 80015c4:	f7ff fe60 	bl	8001288 <Error_Handler>
 80015c8:	4b03      	ldr	r3, [pc, #12]	; (80015d8 <HAL_RTC_MspInit+0x3c>)
 80015ca:	2201      	movs	r2, #1
 80015cc:	601a      	str	r2, [r3, #0]
 80015ce:	b004      	add	sp, #16
 80015d0:	bd10      	pop	{r4, pc}
 80015d2:	bf00      	nop
 80015d4:	40002800 	.word	0x40002800
 80015d8:	42470e3c 	.word	0x42470e3c

080015dc <HAL_SD_MspInit>:
 80015dc:	e92d 43f0 	stmdb	sp!, {r4, r5, r6, r7, r8, r9, lr}
 80015e0:	4606      	mov	r6, r0
 80015e2:	b089      	sub	sp, #36	; 0x24
 80015e4:	2214      	movs	r2, #20
 80015e6:	2100      	movs	r1, #0
 80015e8:	a803      	add	r0, sp, #12
 80015ea:	f005 f827 	bl	800663c <memset>
 80015ee:	6832      	ldr	r2, [r6, #0]
 80015f0:	4b4c      	ldr	r3, [pc, #304]	; (8001724 <HAL_SD_MspInit+0x148>)
 80015f2:	429a      	cmp	r2, r3
 80015f4:	f040 8092 	bne.w	800171c <HAL_SD_MspInit+0x140>
 80015f8:	f503 3386 	add.w	r3, r3, #68608	; 0x10c00
 80015fc:	2500      	movs	r5, #0
 80015fe:	9500      	str	r5, [sp, #0]
 8001600:	6c5a      	ldr	r2, [r3, #68]	; 0x44
 8001602:	4849      	ldr	r0, [pc, #292]	; (8001728 <HAL_SD_MspInit+0x14c>)
 8001604:	f442 6200 	orr.w	r2, r2, #2048	; 0x800
 8001608:	645a      	str	r2, [r3, #68]	; 0x44
 800160a:	6c5a      	ldr	r2, [r3, #68]	; 0x44
 800160c:	f402 6200 	and.w	r2, r2, #2048	; 0x800
 8001610:	9200      	str	r2, [sp, #0]
 8001612:	9a00      	ldr	r2, [sp, #0]
 8001614:	9501      	str	r5, [sp, #4]
 8001616:	6b1a      	ldr	r2, [r3, #48]	; 0x30
 8001618:	f042 0204 	orr.w	r2, r2, #4
 800161c:	631a      	str	r2, [r3, #48]	; 0x30
 800161e:	6b1a      	ldr	r2, [r3, #48]	; 0x30
 8001620:	f002 0204 	and.w	r2, r2, #4
 8001624:	9201      	str	r2, [sp, #4]
 8001626:	9a01      	ldr	r2, [sp, #4]
 8001628:	9502      	str	r5, [sp, #8]
 800162a:	6b1a      	ldr	r2, [r3, #48]	; 0x30
 800162c:	f042 0208 	orr.w	r2, r2, #8
 8001630:	631a      	str	r2, [r3, #48]	; 0x30
 8001632:	6b1b      	ldr	r3, [r3, #48]	; 0x30
 8001634:	9505      	str	r5, [sp, #20]
 8001636:	f003 0308 	and.w	r3, r3, #8
 800163a:	240c      	movs	r4, #12
 800163c:	9302      	str	r3, [sp, #8]
 800163e:	f04f 0902 	mov.w	r9, #2
 8001642:	2703      	movs	r7, #3
 8001644:	eb0d 0104 	add.w	r1, sp, r4
 8001648:	9b02      	ldr	r3, [sp, #8]
 800164a:	f44f 53f8 	mov.w	r3, #7936	; 0x1f00
 800164e:	e9cd 3903 	strd	r3, r9, [sp, #12]
 8001652:	e9cd 7406 	strd	r7, r4, [sp, #24]
 8001656:	f04f 0804 	mov.w	r8, #4
 800165a:	f000 fc03 	bl	8001e64 <HAL_GPIO_Init>
 800165e:	eb0d 0104 	add.w	r1, sp, r4
 8001662:	4832      	ldr	r0, [pc, #200]	; (800172c <HAL_SD_MspInit+0x150>)
 8001664:	9407      	str	r4, [sp, #28]
 8001666:	e9cd 8903 	strd	r8, r9, [sp, #12]
 800166a:	4c31      	ldr	r4, [pc, #196]	; (8001730 <HAL_SD_MspInit+0x154>)
 800166c:	e9cd 5705 	strd	r5, r7, [sp, #20]
 8001670:	f000 fbf8 	bl	8001e64 <HAL_GPIO_Init>
 8001674:	f8df e0c4 	ldr.w	lr, [pc, #196]	; 800173c <HAL_SD_MspInit+0x160>
 8001678:	62a7      	str	r7, [r4, #40]	; 0x28
 800167a:	f04f 6300 	mov.w	r3, #134217728	; 0x8000000
 800167e:	e9c4 e300 	strd	lr, r3, [r4]
 8001682:	f44f 6980 	mov.w	r9, #1024	; 0x400
 8001686:	f44f 5380 	mov.w	r3, #4096	; 0x1000
 800168a:	e9c4 9304 	strd	r9, r3, [r4, #16]
 800168e:	f44f 4280 	mov.w	r2, #16384	; 0x4000
 8001692:	2320      	movs	r3, #32
 8001694:	e9c4 2306 	strd	r2, r3, [r4, #24]
 8001698:	f44f 0100 	mov.w	r1, #8388608	; 0x800000
 800169c:	f44f 1300 	mov.w	r3, #2097152	; 0x200000
 80016a0:	4620      	mov	r0, r4
 80016a2:	e9c4 5502 	strd	r5, r5, [r4, #8]
 80016a6:	e9c4 5808 	strd	r5, r8, [r4, #32]
 80016aa:	e9c4 130b 	strd	r1, r3, [r4, #44]	; 0x2c
 80016ae:	f000 f9f5 	bl	8001a9c <HAL_DMA_Init>
 80016b2:	b108      	cbz	r0, 80016b8 <HAL_SD_MspInit+0xdc>
 80016b4:	f7ff fde8 	bl	8001288 <Error_Handler>
 80016b8:	4a1e      	ldr	r2, [pc, #120]	; (8001734 <HAL_SD_MspInit+0x158>)
 80016ba:	6434      	str	r4, [r6, #64]	; 0x40
 80016bc:	63a6      	str	r6, [r4, #56]	; 0x38
 80016be:	4c1e      	ldr	r4, [pc, #120]	; (8001738 <HAL_SD_MspInit+0x15c>)
 80016c0:	f04f 6300 	mov.w	r3, #134217728	; 0x8000000
 80016c4:	e9c4 2300 	strd	r2, r3, [r4]
 80016c8:	2140      	movs	r1, #64	; 0x40
 80016ca:	2300      	movs	r3, #0
 80016cc:	f44f 6080 	mov.w	r0, #1024	; 0x400
 80016d0:	f44f 5280 	mov.w	r2, #4096	; 0x1000
 80016d4:	e9c4 1302 	strd	r1, r3, [r4, #8]
 80016d8:	6223      	str	r3, [r4, #32]
 80016da:	2704      	movs	r7, #4
 80016dc:	2303      	movs	r3, #3
 80016de:	e9c4 0204 	strd	r0, r2, [r4, #16]
 80016e2:	e9c4 7309 	strd	r7, r3, [r4, #36]	; 0x24
 80016e6:	f44f 4580 	mov.w	r5, #16384	; 0x4000
 80016ea:	2220      	movs	r2, #32
 80016ec:	f44f 0c00 	mov.w	ip, #8388608	; 0x800000
 80016f0:	f44f 1300 	mov.w	r3, #2097152	; 0x200000
 80016f4:	4620      	mov	r0, r4
 80016f6:	e9c4 5206 	strd	r5, r2, [r4, #24]
 80016fa:	e9c4 c30b 	strd	ip, r3, [r4, #44]	; 0x2c
 80016fe:	f000 f9cd 	bl	8001a9c <HAL_DMA_Init>
 8001702:	b108      	cbz	r0, 8001708 <HAL_SD_MspInit+0x12c>
 8001704:	f7ff fdc0 	bl	8001288 <Error_Handler>
 8001708:	2031      	movs	r0, #49	; 0x31
 800170a:	63f4      	str	r4, [r6, #60]	; 0x3c
 800170c:	2200      	movs	r2, #0
 800170e:	2102      	movs	r1, #2
 8001710:	63a6      	str	r6, [r4, #56]	; 0x38
 8001712:	f000 f957 	bl	80019c4 <HAL_NVIC_SetPriority>
 8001716:	2031      	movs	r0, #49	; 0x31
 8001718:	f000 f986 	bl	8001a28 <HAL_NVIC_EnableIRQ>
 800171c:	b009      	add	sp, #36	; 0x24
 800171e:	e8bd 83f0 	ldmia.w	sp!, {r4, r5, r6, r7, r8, r9, pc}
 8001722:	bf00      	nop
 8001724:	40012c00 	.word	0x40012c00
 8001728:	40020800 	.word	0x40020800
 800172c:	40020c00 	.word	0x40020c00
 8001730:	20000298 	.word	0x20000298
 8001734:	400264a0 	.word	0x400264a0
 8001738:	200006f0 	.word	0x200006f0
 800173c:	40026458 	.word	0x40026458

08001740 <HAL_UART_MspInit>:
 8001740:	b510      	push	{r4, lr}
 8001742:	4604      	mov	r4, r0
 8001744:	b088      	sub	sp, #32
 8001746:	2214      	movs	r2, #20
 8001748:	2100      	movs	r1, #0
 800174a:	a803      	add	r0, sp, #12
 800174c:	f004 ff76 	bl	800663c <memset>
 8001750:	6822      	ldr	r2, [r4, #0]
 8001752:	4b15      	ldr	r3, [pc, #84]	; (80017a8 <HAL_UART_MspInit+0x68>)
 8001754:	429a      	cmp	r2, r3
 8001756:	d124      	bne.n	80017a2 <HAL_UART_MspInit+0x62>
 8001758:	f503 3394 	add.w	r3, r3, #75776	; 0x12800
 800175c:	2200      	movs	r2, #0
 800175e:	9201      	str	r2, [sp, #4]
 8001760:	6c59      	ldr	r1, [r3, #68]	; 0x44
 8001762:	f041 0110 	orr.w	r1, r1, #16
 8001766:	6459      	str	r1, [r3, #68]	; 0x44
 8001768:	6c59      	ldr	r1, [r3, #68]	; 0x44
 800176a:	f001 0110 	and.w	r1, r1, #16
 800176e:	9101      	str	r1, [sp, #4]
 8001770:	9901      	ldr	r1, [sp, #4]
 8001772:	9202      	str	r2, [sp, #8]
 8001774:	6b19      	ldr	r1, [r3, #48]	; 0x30
 8001776:	f041 0101 	orr.w	r1, r1, #1
 800177a:	6319      	str	r1, [r3, #48]	; 0x30
 800177c:	6b1b      	ldr	r3, [r3, #48]	; 0x30
 800177e:	9205      	str	r2, [sp, #20]
 8001780:	f003 0301 	and.w	r3, r3, #1
 8001784:	9302      	str	r3, [sp, #8]
 8001786:	f44f 61c0 	mov.w	r1, #1536	; 0x600
 800178a:	9b02      	ldr	r3, [sp, #8]
 800178c:	2302      	movs	r3, #2
 800178e:	e9cd 1303 	strd	r1, r3, [sp, #12]
 8001792:	2003      	movs	r0, #3
 8001794:	2307      	movs	r3, #7
 8001796:	e9cd 0306 	strd	r0, r3, [sp, #24]
 800179a:	a903      	add	r1, sp, #12
 800179c:	4803      	ldr	r0, [pc, #12]	; (80017ac <HAL_UART_MspInit+0x6c>)
 800179e:	f000 fb61 	bl	8001e64 <HAL_GPIO_Init>
 80017a2:	b008      	add	sp, #32
 80017a4:	bd10      	pop	{r4, pc}
 80017a6:	bf00      	nop
 80017a8:	40011000 	.word	0x40011000
 80017ac:	40020000 	.word	0x40020000

080017b0 <NMI_Handler>:
 80017b0:	4770      	bx	lr

080017b2 <HardFault_Handler>:
 80017b2:	e7fe      	b.n	80017b2 <HardFault_Handler>

080017b4 <MemManage_Handler>:
 80017b4:	e7fe      	b.n	80017b4 <MemManage_Handler>

080017b6 <BusFault_Handler>:
 80017b6:	e7fe      	b.n	80017b6 <BusFault_Handler>

080017b8 <UsageFault_Handler>:
 80017b8:	e7fe      	b.n	80017b8 <UsageFault_Handler>

080017ba <SVC_Handler>:
 80017ba:	4770      	bx	lr

080017bc <DebugMon_Handler>:
 80017bc:	4770      	bx	lr

080017be <PendSV_Handler>:
 80017be:	4770      	bx	lr

080017c0 <SysTick_Handler>:
 80017c0:	f000 b8c8 	b.w	8001954 <HAL_IncTick>

080017c4 <SDIO_IRQHandler>:
 80017c4:	4801      	ldr	r0, [pc, #4]	; (80017cc <SDIO_IRQHandler+0x8>)
 80017c6:	f002 b977 	b.w	8003ab8 <HAL_SD_IRQHandler>
 80017ca:	bf00      	nop
 80017cc:	20000754 	.word	0x20000754

080017d0 <DMA2_Stream3_IRQHandler>:
 80017d0:	4801      	ldr	r0, [pc, #4]	; (80017d8 <DMA2_Stream3_IRQHandler+0x8>)
 80017d2:	f000 ba59 	b.w	8001c88 <HAL_DMA_IRQHandler>
 80017d6:	bf00      	nop
 80017d8:	20000298 	.word	0x20000298

080017dc <DMA2_Stream6_IRQHandler>:
 80017dc:	4801      	ldr	r0, [pc, #4]	; (80017e4 <DMA2_Stream6_IRQHandler+0x8>)
 80017de:	f000 ba53 	b.w	8001c88 <HAL_DMA_IRQHandler>
 80017e2:	bf00      	nop
 80017e4:	200006f0 	.word	0x200006f0

080017e8 <_read>:
 80017e8:	b570      	push	{r4, r5, r6, lr}
 80017ea:	460e      	mov	r6, r1
 80017ec:	4614      	mov	r4, r2
 80017ee:	2500      	movs	r5, #0
 80017f0:	42a5      	cmp	r5, r4
 80017f2:	db01      	blt.n	80017f8 <_read+0x10>
 80017f4:	4620      	mov	r0, r4
 80017f6:	bd70      	pop	{r4, r5, r6, pc}
 80017f8:	f3af 8000 	nop.w
 80017fc:	5570      	strb	r0, [r6, r5]
 80017fe:	3501      	adds	r5, #1
 8001800:	e7f6      	b.n	80017f0 <_read+0x8>

08001802 <_write>:
 8001802:	b570      	push	{r4, r5, r6, lr}
 8001804:	460e      	mov	r6, r1
 8001806:	4614      	mov	r4, r2
 8001808:	2500      	movs	r5, #0
 800180a:	42a5      	cmp	r5, r4
 800180c:	db01      	blt.n	8001812 <_write+0x10>
 800180e:	4620      	mov	r0, r4
 8001810:	bd70      	pop	{r4, r5, r6, pc}
 8001812:	5d70      	ldrb	r0, [r6, r5]
 8001814:	f7ff fd28 	bl	8001268 <__io_putchar>
 8001818:	3501      	adds	r5, #1
 800181a:	e7f6      	b.n	800180a <_write+0x8>

0800181c <_close>:
 800181c:	f04f 30ff 	mov.w	r0, #4294967295
 8001820:	4770      	bx	lr

08001822 <_fstat>:
 8001822:	f44f 5300 	mov.w	r3, #8192	; 0x2000
 8001826:	604b      	str	r3, [r1, #4]
 8001828:	2000      	movs	r0, #0
 800182a:	4770      	bx	lr

0800182c <_isatty>:
 800182c:	2001      	movs	r0, #1
 800182e:	4770      	bx	lr

08001830 <_lseek>:
 8001830:	2000      	movs	r0, #0
 8001832:	4770      	bx	lr

08001834 <_sbrk>:
 8001834:	b508      	push	{r3, lr}
 8001836:	4b0a      	ldr	r3, [pc, #40]	; (8001860 <_sbrk+0x2c>)
 8001838:	6819      	ldr	r1, [r3, #0]
 800183a:	4602      	mov	r2, r0
 800183c:	b909      	cbnz	r1, 8001842 <_sbrk+0xe>
 800183e:	4909      	ldr	r1, [pc, #36]	; (8001864 <_sbrk+0x30>)
 8001840:	6019      	str	r1, [r3, #0]
 8001842:	6818      	ldr	r0, [r3, #0]
 8001844:	4669      	mov	r1, sp
 8001846:	4402      	add	r2, r0
 8001848:	428a      	cmp	r2, r1
 800184a:	d906      	bls.n	800185a <_sbrk+0x26>
 800184c:	f004 feae 	bl	80065ac <__errno>
 8001850:	230c      	movs	r3, #12
 8001852:	6003      	str	r3, [r0, #0]
 8001854:	f04f 30ff 	mov.w	r0, #4294967295
 8001858:	bd08      	pop	{r3, pc}
 800185a:	601a      	str	r2, [r3, #0]
 800185c:	e7fc      	b.n	8001858 <_sbrk+0x24>
 800185e:	bf00      	nop
 8001860:	20000140 	.word	0x20000140
 8001864:	20016108 	.word	0x20016108

08001868 <SystemInit>:
 8001868:	4b05      	ldr	r3, [pc, #20]	; (8001880 <SystemInit+0x18>)
 800186a:	f8d3 2088 	ldr.w	r2, [r3, #136]	; 0x88
 800186e:	f442 0270 	orr.w	r2, r2, #15728640	; 0xf00000
 8001872:	f8c3 2088 	str.w	r2, [r3, #136]	; 0x88
 8001876:	f04f 6200 	mov.w	r2, #134217728	; 0x8000000
 800187a:	609a      	str	r2, [r3, #8]
 800187c:	4770      	bx	lr
 800187e:	bf00      	nop
 8001880:	e000ed00 	.word	0xe000ed00

08001884 <Reset_Handler>:
 8001884:	f8df d034 	ldr.w	sp, [pc, #52]	; 80018bc <LoopFillZerobss+0x14>
 8001888:	2100      	movs	r1, #0
 800188a:	e003      	b.n	8001894 <LoopCopyDataInit>

0800188c <CopyDataInit>:
 800188c:	4b0c      	ldr	r3, [pc, #48]	; (80018c0 <LoopFillZerobss+0x18>)
 800188e:	585b      	ldr	r3, [r3, r1]
 8001890:	5043      	str	r3, [r0, r1]
 8001892:	3104      	adds	r1, #4

08001894 <LoopCopyDataInit>:
 8001894:	480b      	ldr	r0, [pc, #44]	; (80018c4 <LoopFillZerobss+0x1c>)
 8001896:	4b0c      	ldr	r3, [pc, #48]	; (80018c8 <LoopFillZerobss+0x20>)
 8001898:	1842      	adds	r2, r0, r1
 800189a:	429a      	cmp	r2, r3
 800189c:	d3f6      	bcc.n	800188c <CopyDataInit>
 800189e:	4a0b      	ldr	r2, [pc, #44]	; (80018cc <LoopFillZerobss+0x24>)
 80018a0:	e002      	b.n	80018a8 <LoopFillZerobss>

080018a2 <FillZerobss>:
 80018a2:	2300      	movs	r3, #0
 80018a4:	f842 3b04 	str.w	r3, [r2], #4

080018a8 <LoopFillZerobss>:
 80018a8:	4b09      	ldr	r3, [pc, #36]	; (80018d0 <LoopFillZerobss+0x28>)
 80018aa:	429a      	cmp	r2, r3
 80018ac:	d3f9      	bcc.n	80018a2 <FillZerobss>
 80018ae:	f7ff ffdb 	bl	8001868 <SystemInit>
 80018b2:	f004 fe81 	bl	80065b8 <__libc_init_array>
 80018b6:	f7ff fa79 	bl	8000dac <main>
 80018ba:	4770      	bx	lr
 80018bc:	20020000 	.word	0x20020000
 80018c0:	0803260c 	.word	0x0803260c
 80018c4:	20000000 	.word	0x20000000
 80018c8:	200000fc 	.word	0x200000fc
 80018cc:	200000fc 	.word	0x200000fc
 80018d0:	20016104 	.word	0x20016104

080018d4 <ADC_IRQHandler>:
 80018d4:	e7fe      	b.n	80018d4 <ADC_IRQHandler>
	...

080018d8 <HAL_InitTick>:
 80018d8:	b538      	push	{r3, r4, r5, lr}
 80018da:	4a0e      	ldr	r2, [pc, #56]	; (8001914 <HAL_InitTick+0x3c>)
 80018dc:	4b0e      	ldr	r3, [pc, #56]	; (8001918 <HAL_InitTick+0x40>)
 80018de:	4605      	mov	r5, r0
 80018e0:	7818      	ldrb	r0, [r3, #0]
 80018e2:	f44f 737a 	mov.w	r3, #1000	; 0x3e8
 80018e6:	fbb3 f3f0 	udiv	r3, r3, r0
 80018ea:	6810      	ldr	r0, [r2, #0]
 80018ec:	fbb0 f0f3 	udiv	r0, r0, r3
 80018f0:	f000 f8a8 	bl	8001a44 <HAL_SYSTICK_Config>
 80018f4:	4604      	mov	r4, r0
 80018f6:	b958      	cbnz	r0, 8001910 <HAL_InitTick+0x38>
 80018f8:	2d0f      	cmp	r5, #15
 80018fa:	d809      	bhi.n	8001910 <HAL_InitTick+0x38>
 80018fc:	4602      	mov	r2, r0
 80018fe:	4629      	mov	r1, r5
 8001900:	f04f 30ff 	mov.w	r0, #4294967295
 8001904:	f000 f85e 	bl	80019c4 <HAL_NVIC_SetPriority>
 8001908:	4b04      	ldr	r3, [pc, #16]	; (800191c <HAL_InitTick+0x44>)
 800190a:	4620      	mov	r0, r4
 800190c:	601d      	str	r5, [r3, #0]
 800190e:	bd38      	pop	{r3, r4, r5, pc}
 8001910:	2001      	movs	r0, #1
 8001912:	e7fc      	b.n	800190e <HAL_InitTick+0x36>
 8001914:	20000088 	.word	0x20000088
 8001918:	2000008c 	.word	0x2000008c
 800191c:	20000090 	.word	0x20000090

08001920 <HAL_Init>:
 8001920:	b508      	push	{r3, lr}
 8001922:	4b0b      	ldr	r3, [pc, #44]	; (8001950 <HAL_Init+0x30>)
 8001924:	681a      	ldr	r2, [r3, #0]
 8001926:	f442 7200 	orr.w	r2, r2, #512	; 0x200
 800192a:	601a      	str	r2, [r3, #0]
 800192c:	681a      	ldr	r2, [r3, #0]
 800192e:	f442 6280 	orr.w	r2, r2, #1024	; 0x400
 8001932:	601a      	str	r2, [r3, #0]
 8001934:	681a      	ldr	r2, [r3, #0]
 8001936:	f442 7280 	orr.w	r2, r2, #256	; 0x100
 800193a:	601a      	str	r2, [r3, #0]
 800193c:	2003      	movs	r0, #3
 800193e:	f000 f82f 	bl	80019a0 <HAL_NVIC_SetPriorityGrouping>
 8001942:	2000      	movs	r0, #0
 8001944:	f7ff ffc8 	bl	80018d8 <HAL_InitTick>
 8001948:	f7ff fd4c 	bl	80013e4 <HAL_MspInit>
 800194c:	2000      	movs	r0, #0
 800194e:	bd08      	pop	{r3, pc}
 8001950:	40023c00 	.word	0x40023c00

08001954 <HAL_IncTick>:
 8001954:	4a03      	ldr	r2, [pc, #12]	; (8001964 <HAL_IncTick+0x10>)
 8001956:	4b04      	ldr	r3, [pc, #16]	; (8001968 <HAL_IncTick+0x14>)
 8001958:	6811      	ldr	r1, [r2, #0]
 800195a:	781b      	ldrb	r3, [r3, #0]
 800195c:	440b      	add	r3, r1
 800195e:	6013      	str	r3, [r2, #0]
 8001960:	4770      	bx	lr
 8001962:	bf00      	nop
 8001964:	20015c84 	.word	0x20015c84
 8001968:	2000008c 	.word	0x2000008c

0800196c <HAL_GetTick>:
 800196c:	4b01      	ldr	r3, [pc, #4]	; (8001974 <HAL_GetTick+0x8>)
 800196e:	6818      	ldr	r0, [r3, #0]
 8001970:	4770      	bx	lr
 8001972:	bf00      	nop
 8001974:	20015c84 	.word	0x20015c84

08001978 <HAL_Delay>:
 8001978:	b538      	push	{r3, r4, r5, lr}
 800197a:	4604      	mov	r4, r0
 800197c:	f7ff fff6 	bl	800196c <HAL_GetTick>
 8001980:	1c63      	adds	r3, r4, #1
 8001982:	bf1c      	itt	ne
 8001984:	4b05      	ldrne	r3, [pc, #20]	; (800199c <HAL_Delay+0x24>)
 8001986:	781b      	ldrbne	r3, [r3, #0]
 8001988:	4605      	mov	r5, r0
 800198a:	bf18      	it	ne
 800198c:	18e4      	addne	r4, r4, r3
 800198e:	f7ff ffed 	bl	800196c <HAL_GetTick>
 8001992:	1b43      	subs	r3, r0, r5
 8001994:	42a3      	cmp	r3, r4
 8001996:	d3fa      	bcc.n	800198e <HAL_Delay+0x16>
 8001998:	bd38      	pop	{r3, r4, r5, pc}
 800199a:	bf00      	nop
 800199c:	2000008c 	.word	0x2000008c

080019a0 <HAL_NVIC_SetPriorityGrouping>:
 80019a0:	4907      	ldr	r1, [pc, #28]	; (80019c0 <HAL_NVIC_SetPriorityGrouping+0x20>)
 80019a2:	68ca      	ldr	r2, [r1, #12]
 80019a4:	f422 62e0 	bic.w	r2, r2, #1792	; 0x700
 80019a8:	0203      	lsls	r3, r0, #8
 80019aa:	0412      	lsls	r2, r2, #16
 80019ac:	f403 63e0 	and.w	r3, r3, #1792	; 0x700
 80019b0:	0c12      	lsrs	r2, r2, #16
 80019b2:	4313      	orrs	r3, r2
 80019b4:	f043 63bf 	orr.w	r3, r3, #100139008	; 0x5f80000
 80019b8:	f443 3300 	orr.w	r3, r3, #131072	; 0x20000
 80019bc:	60cb      	str	r3, [r1, #12]
 80019be:	4770      	bx	lr
 80019c0:	e000ed00 	.word	0xe000ed00

080019c4 <HAL_NVIC_SetPriority>:
 80019c4:	4b16      	ldr	r3, [pc, #88]	; (8001a20 <HAL_NVIC_SetPriority+0x5c>)
 80019c6:	b530      	push	{r4, r5, lr}
 80019c8:	68dc      	ldr	r4, [r3, #12]
 80019ca:	f3c4 2402 	ubfx	r4, r4, #8, #3
 80019ce:	f1c4 0507 	rsb	r5, r4, #7
 80019d2:	1d23      	adds	r3, r4, #4
 80019d4:	2d04      	cmp	r5, #4
 80019d6:	bf28      	it	cs
 80019d8:	2504      	movcs	r5, #4
 80019da:	2b06      	cmp	r3, #6
 80019dc:	f04f 33ff 	mov.w	r3, #4294967295
 80019e0:	bf8c      	ite	hi
 80019e2:	3c03      	subhi	r4, #3
 80019e4:	2400      	movls	r4, #0
 80019e6:	fa03 f505 	lsl.w	r5, r3, r5
 80019ea:	ea21 0105 	bic.w	r1, r1, r5
 80019ee:	40a3      	lsls	r3, r4
 80019f0:	ea22 0203 	bic.w	r2, r2, r3
 80019f4:	40a1      	lsls	r1, r4
 80019f6:	2800      	cmp	r0, #0
 80019f8:	ea41 0302 	orr.w	r3, r1, r2
 80019fc:	bfac      	ite	ge
 80019fe:	f100 4060 	addge.w	r0, r0, #3758096384	; 0xe0000000
 8001a02:	4a08      	ldrlt	r2, [pc, #32]	; (8001a24 <HAL_NVIC_SetPriority+0x60>)
 8001a04:	ea4f 1303 	mov.w	r3, r3, lsl #4
 8001a08:	bfb8      	it	lt
 8001a0a:	f000 000f 	andlt.w	r0, r0, #15
 8001a0e:	b2db      	uxtb	r3, r3
 8001a10:	bfaa      	itet	ge
 8001a12:	f500 4061 	addge.w	r0, r0, #57600	; 0xe100
 8001a16:	5413      	strblt	r3, [r2, r0]
 8001a18:	f880 3300 	strbge.w	r3, [r0, #768]	; 0x300
 8001a1c:	bd30      	pop	{r4, r5, pc}
 8001a1e:	bf00      	nop
 8001a20:	e000ed00 	.word	0xe000ed00
 8001a24:	e000ed14 	.word	0xe000ed14

08001a28 <HAL_NVIC_EnableIRQ>:
 8001a28:	2800      	cmp	r0, #0
 8001a2a:	db08      	blt.n	8001a3e <HAL_NVIC_EnableIRQ+0x16>
 8001a2c:	0942      	lsrs	r2, r0, #5
 8001a2e:	2301      	movs	r3, #1
 8001a30:	f000 001f 	and.w	r0, r0, #31
 8001a34:	fa03 f000 	lsl.w	r0, r3, r0
 8001a38:	4b01      	ldr	r3, [pc, #4]	; (8001a40 <HAL_NVIC_EnableIRQ+0x18>)
 8001a3a:	f843 0022 	str.w	r0, [r3, r2, lsl #2]
 8001a3e:	4770      	bx	lr
 8001a40:	e000e100 	.word	0xe000e100

08001a44 <HAL_SYSTICK_Config>:
 8001a44:	3801      	subs	r0, #1
 8001a46:	f1b0 7f80 	cmp.w	r0, #16777216	; 0x1000000
 8001a4a:	d20a      	bcs.n	8001a62 <HAL_SYSTICK_Config+0x1e>
 8001a4c:	4b06      	ldr	r3, [pc, #24]	; (8001a68 <HAL_SYSTICK_Config+0x24>)
 8001a4e:	4a07      	ldr	r2, [pc, #28]	; (8001a6c <HAL_SYSTICK_Config+0x28>)
 8001a50:	6058      	str	r0, [r3, #4]
 8001a52:	21f0      	movs	r1, #240	; 0xf0
 8001a54:	f882 1023 	strb.w	r1, [r2, #35]	; 0x23
 8001a58:	2000      	movs	r0, #0
 8001a5a:	2207      	movs	r2, #7
 8001a5c:	6098      	str	r0, [r3, #8]
 8001a5e:	601a      	str	r2, [r3, #0]
 8001a60:	4770      	bx	lr
 8001a62:	2001      	movs	r0, #1
 8001a64:	4770      	bx	lr
 8001a66:	bf00      	nop
 8001a68:	e000e010 	.word	0xe000e010
 8001a6c:	e000ed00 	.word	0xe000ed00

08001a70 <DMA_CalcBaseAndBitshift>:
 8001a70:	6803      	ldr	r3, [r0, #0]
 8001a72:	b510      	push	{r4, lr}
 8001a74:	4c08      	ldr	r4, [pc, #32]	; (8001a98 <DMA_CalcBaseAndBitshift+0x28>)
 8001a76:	4602      	mov	r2, r0
 8001a78:	b2d9      	uxtb	r1, r3
 8001a7a:	3910      	subs	r1, #16
 8001a7c:	2018      	movs	r0, #24
 8001a7e:	fbb1 f0f0 	udiv	r0, r1, r0
 8001a82:	5c20      	ldrb	r0, [r4, r0]
 8001a84:	65d0      	str	r0, [r2, #92]	; 0x5c
 8001a86:	f423 707f 	bic.w	r0, r3, #1020	; 0x3fc
 8001a8a:	f020 0003 	bic.w	r0, r0, #3
 8001a8e:	295f      	cmp	r1, #95	; 0x5f
 8001a90:	bf88      	it	hi
 8001a92:	3004      	addhi	r0, #4
 8001a94:	6590      	str	r0, [r2, #88]	; 0x58
 8001a96:	bd10      	pop	{r4, pc}
 8001a98:	08007974 	.word	0x08007974

08001a9c <HAL_DMA_Init>:
 8001a9c:	b570      	push	{r4, r5, r6, lr}
 8001a9e:	4604      	mov	r4, r0
 8001aa0:	f7ff ff64 	bl	800196c <HAL_GetTick>
 8001aa4:	4605      	mov	r5, r0
 8001aa6:	2c00      	cmp	r4, #0
 8001aa8:	d073      	beq.n	8001b92 <HAL_DMA_Init+0xf6>
 8001aaa:	2302      	movs	r3, #2
 8001aac:	f884 3035 	strb.w	r3, [r4, #53]	; 0x35
 8001ab0:	6822      	ldr	r2, [r4, #0]
 8001ab2:	2300      	movs	r3, #0
 8001ab4:	f884 3034 	strb.w	r3, [r4, #52]	; 0x34
 8001ab8:	6813      	ldr	r3, [r2, #0]
 8001aba:	f023 0301 	bic.w	r3, r3, #1
 8001abe:	6013      	str	r3, [r2, #0]
 8001ac0:	6821      	ldr	r1, [r4, #0]
 8001ac2:	680b      	ldr	r3, [r1, #0]
 8001ac4:	07d8      	lsls	r0, r3, #31
 8001ac6:	d42f      	bmi.n	8001b28 <HAL_DMA_Init+0x8c>
 8001ac8:	680b      	ldr	r3, [r1, #0]
 8001aca:	4d33      	ldr	r5, [pc, #204]	; (8001b98 <HAL_DMA_Init+0xfc>)
 8001acc:	69a0      	ldr	r0, [r4, #24]
 8001ace:	401d      	ands	r5, r3
 8001ad0:	e9d4 2301 	ldrd	r2, r3, [r4, #4]
 8001ad4:	4313      	orrs	r3, r2
 8001ad6:	68e2      	ldr	r2, [r4, #12]
 8001ad8:	4313      	orrs	r3, r2
 8001ada:	6922      	ldr	r2, [r4, #16]
 8001adc:	4313      	orrs	r3, r2
 8001ade:	6962      	ldr	r2, [r4, #20]
 8001ae0:	4313      	orrs	r3, r2
 8001ae2:	69e2      	ldr	r2, [r4, #28]
 8001ae4:	4303      	orrs	r3, r0
 8001ae6:	4313      	orrs	r3, r2
 8001ae8:	6a22      	ldr	r2, [r4, #32]
 8001aea:	4313      	orrs	r3, r2
 8001aec:	6a62      	ldr	r2, [r4, #36]	; 0x24
 8001aee:	2a04      	cmp	r2, #4
 8001af0:	ea43 0305 	orr.w	r3, r3, r5
 8001af4:	bf02      	ittt	eq
 8001af6:	e9d4 560b 	ldrdeq	r5, r6, [r4, #44]	; 0x2c
 8001afa:	4335      	orreq	r5, r6
 8001afc:	432b      	orreq	r3, r5
 8001afe:	600b      	str	r3, [r1, #0]
 8001b00:	694b      	ldr	r3, [r1, #20]
 8001b02:	2a04      	cmp	r2, #4
 8001b04:	f023 0307 	bic.w	r3, r3, #7
 8001b08:	ea43 0302 	orr.w	r3, r3, r2
 8001b0c:	d133      	bne.n	8001b76 <HAL_DMA_Init+0xda>
 8001b0e:	6aa2      	ldr	r2, [r4, #40]	; 0x28
 8001b10:	6ae5      	ldr	r5, [r4, #44]	; 0x2c
 8001b12:	4313      	orrs	r3, r2
 8001b14:	b37d      	cbz	r5, 8001b76 <HAL_DMA_Init+0xda>
 8001b16:	b990      	cbnz	r0, 8001b3e <HAL_DMA_Init+0xa2>
 8001b18:	2a01      	cmp	r2, #1
 8001b1a:	d021      	beq.n	8001b60 <HAL_DMA_Init+0xc4>
 8001b1c:	f032 0202 	bics.w	r2, r2, #2
 8001b20:	d129      	bne.n	8001b76 <HAL_DMA_Init+0xda>
 8001b22:	01ea      	lsls	r2, r5, #7
 8001b24:	d527      	bpl.n	8001b76 <HAL_DMA_Init+0xda>
 8001b26:	e01e      	b.n	8001b66 <HAL_DMA_Init+0xca>
 8001b28:	f7ff ff20 	bl	800196c <HAL_GetTick>
 8001b2c:	1b40      	subs	r0, r0, r5
 8001b2e:	2805      	cmp	r0, #5
 8001b30:	d9c6      	bls.n	8001ac0 <HAL_DMA_Init+0x24>
 8001b32:	2320      	movs	r3, #32
 8001b34:	6563      	str	r3, [r4, #84]	; 0x54
 8001b36:	2003      	movs	r0, #3
 8001b38:	f884 0035 	strb.w	r0, [r4, #53]	; 0x35
 8001b3c:	bd70      	pop	{r4, r5, r6, pc}
 8001b3e:	f5b0 5f00 	cmp.w	r0, #8192	; 0x2000
 8001b42:	d114      	bne.n	8001b6e <HAL_DMA_Init+0xd2>
 8001b44:	2a03      	cmp	r2, #3
 8001b46:	d816      	bhi.n	8001b76 <HAL_DMA_Init+0xda>
 8001b48:	a001      	add	r0, pc, #4	; (adr r0, 8001b50 <HAL_DMA_Init+0xb4>)
 8001b4a:	f850 f022 	ldr.w	pc, [r0, r2, lsl #2]
 8001b4e:	bf00      	nop
 8001b50:	08001b67 	.word	0x08001b67
 8001b54:	08001b23 	.word	0x08001b23
 8001b58:	08001b67 	.word	0x08001b67
 8001b5c:	08001b61 	.word	0x08001b61
 8001b60:	f1b5 7fc0 	cmp.w	r5, #25165824	; 0x1800000
 8001b64:	d107      	bne.n	8001b76 <HAL_DMA_Init+0xda>
 8001b66:	2340      	movs	r3, #64	; 0x40
 8001b68:	6563      	str	r3, [r4, #84]	; 0x54
 8001b6a:	2001      	movs	r0, #1
 8001b6c:	e7e4      	b.n	8001b38 <HAL_DMA_Init+0x9c>
 8001b6e:	2a02      	cmp	r2, #2
 8001b70:	d9f9      	bls.n	8001b66 <HAL_DMA_Init+0xca>
 8001b72:	2a03      	cmp	r2, #3
 8001b74:	d0d5      	beq.n	8001b22 <HAL_DMA_Init+0x86>
 8001b76:	614b      	str	r3, [r1, #20]
 8001b78:	4620      	mov	r0, r4
 8001b7a:	f7ff ff79 	bl	8001a70 <DMA_CalcBaseAndBitshift>
 8001b7e:	6de2      	ldr	r2, [r4, #92]	; 0x5c
 8001b80:	233f      	movs	r3, #63	; 0x3f
 8001b82:	4093      	lsls	r3, r2
 8001b84:	6083      	str	r3, [r0, #8]
 8001b86:	2000      	movs	r0, #0
 8001b88:	2301      	movs	r3, #1
 8001b8a:	6560      	str	r0, [r4, #84]	; 0x54
 8001b8c:	f884 3035 	strb.w	r3, [r4, #53]	; 0x35
 8001b90:	e7d4      	b.n	8001b3c <HAL_DMA_Init+0xa0>
 8001b92:	2001      	movs	r0, #1
 8001b94:	e7d2      	b.n	8001b3c <HAL_DMA_Init+0xa0>
 8001b96:	bf00      	nop
 8001b98:	f010803f 	.word	0xf010803f

08001b9c <HAL_DMA_DeInit>:
 8001b9c:	b538      	push	{r3, r4, r5, lr}
 8001b9e:	4605      	mov	r5, r0
 8001ba0:	b320      	cbz	r0, 8001bec <HAL_DMA_DeInit+0x50>
 8001ba2:	f890 3035 	ldrb.w	r3, [r0, #53]	; 0x35
 8001ba6:	2b02      	cmp	r3, #2
 8001ba8:	b2dc      	uxtb	r4, r3
 8001baa:	d01d      	beq.n	8001be8 <HAL_DMA_DeInit+0x4c>
 8001bac:	6803      	ldr	r3, [r0, #0]
 8001bae:	681a      	ldr	r2, [r3, #0]
 8001bb0:	f022 0201 	bic.w	r2, r2, #1
 8001bb4:	2400      	movs	r4, #0
 8001bb6:	601a      	str	r2, [r3, #0]
 8001bb8:	2221      	movs	r2, #33	; 0x21
 8001bba:	601c      	str	r4, [r3, #0]
 8001bbc:	605c      	str	r4, [r3, #4]
 8001bbe:	609c      	str	r4, [r3, #8]
 8001bc0:	60dc      	str	r4, [r3, #12]
 8001bc2:	611c      	str	r4, [r3, #16]
 8001bc4:	615a      	str	r2, [r3, #20]
 8001bc6:	f7ff ff53 	bl	8001a70 <DMA_CalcBaseAndBitshift>
 8001bca:	6dea      	ldr	r2, [r5, #92]	; 0x5c
 8001bcc:	233f      	movs	r3, #63	; 0x3f
 8001bce:	4093      	lsls	r3, r2
 8001bd0:	e9c5 440f 	strd	r4, r4, [r5, #60]	; 0x3c
 8001bd4:	e9c5 4411 	strd	r4, r4, [r5, #68]	; 0x44
 8001bd8:	e9c5 4413 	strd	r4, r4, [r5, #76]	; 0x4c
 8001bdc:	6083      	str	r3, [r0, #8]
 8001bde:	656c      	str	r4, [r5, #84]	; 0x54
 8001be0:	f885 4034 	strb.w	r4, [r5, #52]	; 0x34
 8001be4:	f885 4035 	strb.w	r4, [r5, #53]	; 0x35
 8001be8:	4620      	mov	r0, r4
 8001bea:	bd38      	pop	{r3, r4, r5, pc}
 8001bec:	2401      	movs	r4, #1
 8001bee:	e7fb      	b.n	8001be8 <HAL_DMA_DeInit+0x4c>

08001bf0 <HAL_DMA_Start_IT>:
 8001bf0:	b570      	push	{r4, r5, r6, lr}
 8001bf2:	f890 4034 	ldrb.w	r4, [r0, #52]	; 0x34
 8001bf6:	6d86      	ldr	r6, [r0, #88]	; 0x58
 8001bf8:	2c01      	cmp	r4, #1
 8001bfa:	d031      	beq.n	8001c60 <HAL_DMA_Start_IT+0x70>
 8001bfc:	2401      	movs	r4, #1
 8001bfe:	f880 4034 	strb.w	r4, [r0, #52]	; 0x34
 8001c02:	f890 4035 	ldrb.w	r4, [r0, #53]	; 0x35
 8001c06:	2c01      	cmp	r4, #1
 8001c08:	f04f 0500 	mov.w	r5, #0
 8001c0c:	f04f 0402 	mov.w	r4, #2
 8001c10:	d124      	bne.n	8001c5c <HAL_DMA_Start_IT+0x6c>
 8001c12:	f880 4035 	strb.w	r4, [r0, #53]	; 0x35
 8001c16:	6804      	ldr	r4, [r0, #0]
 8001c18:	6545      	str	r5, [r0, #84]	; 0x54
 8001c1a:	6825      	ldr	r5, [r4, #0]
 8001c1c:	f425 2580 	bic.w	r5, r5, #262144	; 0x40000
 8001c20:	6025      	str	r5, [r4, #0]
 8001c22:	6063      	str	r3, [r4, #4]
 8001c24:	6883      	ldr	r3, [r0, #8]
 8001c26:	2b40      	cmp	r3, #64	; 0x40
 8001c28:	bf0e      	itee	eq
 8001c2a:	60a2      	streq	r2, [r4, #8]
 8001c2c:	60a1      	strne	r1, [r4, #8]
 8001c2e:	60e2      	strne	r2, [r4, #12]
 8001c30:	6dc2      	ldr	r2, [r0, #92]	; 0x5c
 8001c32:	bf08      	it	eq
 8001c34:	60e1      	streq	r1, [r4, #12]
 8001c36:	233f      	movs	r3, #63	; 0x3f
 8001c38:	4093      	lsls	r3, r2
 8001c3a:	60b3      	str	r3, [r6, #8]
 8001c3c:	6823      	ldr	r3, [r4, #0]
 8001c3e:	f043 0316 	orr.w	r3, r3, #22
 8001c42:	6023      	str	r3, [r4, #0]
 8001c44:	6c03      	ldr	r3, [r0, #64]	; 0x40
 8001c46:	b11b      	cbz	r3, 8001c50 <HAL_DMA_Start_IT+0x60>
 8001c48:	6823      	ldr	r3, [r4, #0]
 8001c4a:	f043 0308 	orr.w	r3, r3, #8
 8001c4e:	6023      	str	r3, [r4, #0]
 8001c50:	6823      	ldr	r3, [r4, #0]
 8001c52:	f043 0301 	orr.w	r3, r3, #1
 8001c56:	6023      	str	r3, [r4, #0]
 8001c58:	2000      	movs	r0, #0
 8001c5a:	bd70      	pop	{r4, r5, r6, pc}
 8001c5c:	f880 5034 	strb.w	r5, [r0, #52]	; 0x34
 8001c60:	2002      	movs	r0, #2
 8001c62:	e7fa      	b.n	8001c5a <HAL_DMA_Start_IT+0x6a>

08001c64 <HAL_DMA_Abort_IT>:
 8001c64:	f890 3035 	ldrb.w	r3, [r0, #53]	; 0x35
 8001c68:	2b02      	cmp	r3, #2
 8001c6a:	d003      	beq.n	8001c74 <HAL_DMA_Abort_IT+0x10>
 8001c6c:	2380      	movs	r3, #128	; 0x80
 8001c6e:	6543      	str	r3, [r0, #84]	; 0x54
 8001c70:	2001      	movs	r0, #1
 8001c72:	4770      	bx	lr
 8001c74:	6802      	ldr	r2, [r0, #0]
 8001c76:	2305      	movs	r3, #5
 8001c78:	f880 3035 	strb.w	r3, [r0, #53]	; 0x35
 8001c7c:	6813      	ldr	r3, [r2, #0]
 8001c7e:	f023 0301 	bic.w	r3, r3, #1
 8001c82:	6013      	str	r3, [r2, #0]
 8001c84:	2000      	movs	r0, #0
 8001c86:	4770      	bx	lr

08001c88 <HAL_DMA_IRQHandler>:
 8001c88:	b5f7      	push	{r0, r1, r2, r4, r5, r6, r7, lr}
 8001c8a:	2300      	movs	r3, #0
 8001c8c:	9301      	str	r3, [sp, #4]
 8001c8e:	4b5c      	ldr	r3, [pc, #368]	; (8001e00 <HAL_DMA_IRQHandler+0x178>)
 8001c90:	6d85      	ldr	r5, [r0, #88]	; 0x58
 8001c92:	681f      	ldr	r7, [r3, #0]
 8001c94:	6dc3      	ldr	r3, [r0, #92]	; 0x5c
 8001c96:	682e      	ldr	r6, [r5, #0]
 8001c98:	2208      	movs	r2, #8
 8001c9a:	409a      	lsls	r2, r3
 8001c9c:	4232      	tst	r2, r6
 8001c9e:	4604      	mov	r4, r0
 8001ca0:	d00c      	beq.n	8001cbc <HAL_DMA_IRQHandler+0x34>
 8001ca2:	6801      	ldr	r1, [r0, #0]
 8001ca4:	6808      	ldr	r0, [r1, #0]
 8001ca6:	0740      	lsls	r0, r0, #29
 8001ca8:	d508      	bpl.n	8001cbc <HAL_DMA_IRQHandler+0x34>
 8001caa:	6808      	ldr	r0, [r1, #0]
 8001cac:	f020 0004 	bic.w	r0, r0, #4
 8001cb0:	6008      	str	r0, [r1, #0]
 8001cb2:	60aa      	str	r2, [r5, #8]
 8001cb4:	6d62      	ldr	r2, [r4, #84]	; 0x54
 8001cb6:	f042 0201 	orr.w	r2, r2, #1
 8001cba:	6562      	str	r2, [r4, #84]	; 0x54
 8001cbc:	2201      	movs	r2, #1
 8001cbe:	409a      	lsls	r2, r3
 8001cc0:	4232      	tst	r2, r6
 8001cc2:	d008      	beq.n	8001cd6 <HAL_DMA_IRQHandler+0x4e>
 8001cc4:	6821      	ldr	r1, [r4, #0]
 8001cc6:	6949      	ldr	r1, [r1, #20]
 8001cc8:	0609      	lsls	r1, r1, #24
 8001cca:	bf41      	itttt	mi
 8001ccc:	60aa      	strmi	r2, [r5, #8]
 8001cce:	6d62      	ldrmi	r2, [r4, #84]	; 0x54
 8001cd0:	f042 0202 	orrmi.w	r2, r2, #2
 8001cd4:	6562      	strmi	r2, [r4, #84]	; 0x54
 8001cd6:	2204      	movs	r2, #4
 8001cd8:	409a      	lsls	r2, r3
 8001cda:	4232      	tst	r2, r6
 8001cdc:	d008      	beq.n	8001cf0 <HAL_DMA_IRQHandler+0x68>
 8001cde:	6821      	ldr	r1, [r4, #0]
 8001ce0:	6809      	ldr	r1, [r1, #0]
 8001ce2:	0788      	lsls	r0, r1, #30
 8001ce4:	bf41      	itttt	mi
 8001ce6:	60aa      	strmi	r2, [r5, #8]
 8001ce8:	6d62      	ldrmi	r2, [r4, #84]	; 0x54
 8001cea:	f042 0204 	orrmi.w	r2, r2, #4
 8001cee:	6562      	strmi	r2, [r4, #84]	; 0x54
 8001cf0:	2210      	movs	r2, #16
 8001cf2:	409a      	lsls	r2, r3
 8001cf4:	4232      	tst	r2, r6
 8001cf6:	d010      	beq.n	8001d1a <HAL_DMA_IRQHandler+0x92>
 8001cf8:	6823      	ldr	r3, [r4, #0]
 8001cfa:	6819      	ldr	r1, [r3, #0]
 8001cfc:	0709      	lsls	r1, r1, #28
 8001cfe:	d50c      	bpl.n	8001d1a <HAL_DMA_IRQHandler+0x92>
 8001d00:	60aa      	str	r2, [r5, #8]
 8001d02:	681a      	ldr	r2, [r3, #0]
 8001d04:	0350      	lsls	r0, r2, #13
 8001d06:	d537      	bpl.n	8001d78 <HAL_DMA_IRQHandler+0xf0>
 8001d08:	681b      	ldr	r3, [r3, #0]
 8001d0a:	0319      	lsls	r1, r3, #12
 8001d0c:	d401      	bmi.n	8001d12 <HAL_DMA_IRQHandler+0x8a>
 8001d0e:	6c23      	ldr	r3, [r4, #64]	; 0x40
 8001d10:	e000      	b.n	8001d14 <HAL_DMA_IRQHandler+0x8c>
 8001d12:	6ca3      	ldr	r3, [r4, #72]	; 0x48
 8001d14:	b10b      	cbz	r3, 8001d1a <HAL_DMA_IRQHandler+0x92>
 8001d16:	4620      	mov	r0, r4
 8001d18:	4798      	blx	r3
 8001d1a:	6de1      	ldr	r1, [r4, #92]	; 0x5c
 8001d1c:	2220      	movs	r2, #32
 8001d1e:	408a      	lsls	r2, r1
 8001d20:	4232      	tst	r2, r6
 8001d22:	d03a      	beq.n	8001d9a <HAL_DMA_IRQHandler+0x112>
 8001d24:	6823      	ldr	r3, [r4, #0]
 8001d26:	6818      	ldr	r0, [r3, #0]
 8001d28:	06c6      	lsls	r6, r0, #27
 8001d2a:	d536      	bpl.n	8001d9a <HAL_DMA_IRQHandler+0x112>
 8001d2c:	60aa      	str	r2, [r5, #8]
 8001d2e:	f894 2035 	ldrb.w	r2, [r4, #53]	; 0x35
 8001d32:	2a05      	cmp	r2, #5
 8001d34:	681a      	ldr	r2, [r3, #0]
 8001d36:	d127      	bne.n	8001d88 <HAL_DMA_IRQHandler+0x100>
 8001d38:	f022 0216 	bic.w	r2, r2, #22
 8001d3c:	601a      	str	r2, [r3, #0]
 8001d3e:	695a      	ldr	r2, [r3, #20]
 8001d40:	f022 0280 	bic.w	r2, r2, #128	; 0x80
 8001d44:	615a      	str	r2, [r3, #20]
 8001d46:	6c22      	ldr	r2, [r4, #64]	; 0x40
 8001d48:	b90a      	cbnz	r2, 8001d4e <HAL_DMA_IRQHandler+0xc6>
 8001d4a:	6ca2      	ldr	r2, [r4, #72]	; 0x48
 8001d4c:	b11a      	cbz	r2, 8001d56 <HAL_DMA_IRQHandler+0xce>
 8001d4e:	681a      	ldr	r2, [r3, #0]
 8001d50:	f022 0208 	bic.w	r2, r2, #8
 8001d54:	601a      	str	r2, [r3, #0]
 8001d56:	233f      	movs	r3, #63	; 0x3f
 8001d58:	408b      	lsls	r3, r1
 8001d5a:	60ab      	str	r3, [r5, #8]
 8001d5c:	2301      	movs	r3, #1
 8001d5e:	f884 3035 	strb.w	r3, [r4, #53]	; 0x35
 8001d62:	2300      	movs	r3, #0
 8001d64:	f884 3034 	strb.w	r3, [r4, #52]	; 0x34
 8001d68:	6d23      	ldr	r3, [r4, #80]	; 0x50
 8001d6a:	2b00      	cmp	r3, #0
 8001d6c:	d045      	beq.n	8001dfa <HAL_DMA_IRQHandler+0x172>
 8001d6e:	4620      	mov	r0, r4
 8001d70:	b003      	add	sp, #12
 8001d72:	e8bd 40f0 	ldmia.w	sp!, {r4, r5, r6, r7, lr}
 8001d76:	4718      	bx	r3
 8001d78:	681a      	ldr	r2, [r3, #0]
 8001d7a:	05d2      	lsls	r2, r2, #23
 8001d7c:	bf5e      	ittt	pl
 8001d7e:	681a      	ldrpl	r2, [r3, #0]
 8001d80:	f022 0208 	bicpl.w	r2, r2, #8
 8001d84:	601a      	strpl	r2, [r3, #0]
 8001d86:	e7c2      	b.n	8001d0e <HAL_DMA_IRQHandler+0x86>
 8001d88:	0350      	lsls	r0, r2, #13
 8001d8a:	d527      	bpl.n	8001ddc <HAL_DMA_IRQHandler+0x154>
 8001d8c:	681b      	ldr	r3, [r3, #0]
 8001d8e:	0319      	lsls	r1, r3, #12
 8001d90:	d431      	bmi.n	8001df6 <HAL_DMA_IRQHandler+0x16e>
 8001d92:	6c63      	ldr	r3, [r4, #68]	; 0x44
 8001d94:	b10b      	cbz	r3, 8001d9a <HAL_DMA_IRQHandler+0x112>
 8001d96:	4620      	mov	r0, r4
 8001d98:	4798      	blx	r3
 8001d9a:	6d63      	ldr	r3, [r4, #84]	; 0x54
 8001d9c:	b36b      	cbz	r3, 8001dfa <HAL_DMA_IRQHandler+0x172>
 8001d9e:	6d63      	ldr	r3, [r4, #84]	; 0x54
 8001da0:	07da      	lsls	r2, r3, #31
 8001da2:	d519      	bpl.n	8001dd8 <HAL_DMA_IRQHandler+0x150>
 8001da4:	6822      	ldr	r2, [r4, #0]
 8001da6:	f44f 5316 	mov.w	r3, #9600	; 0x2580
 8001daa:	fbb7 f7f3 	udiv	r7, r7, r3
 8001dae:	2305      	movs	r3, #5
 8001db0:	f884 3035 	strb.w	r3, [r4, #53]	; 0x35
 8001db4:	6813      	ldr	r3, [r2, #0]
 8001db6:	f023 0301 	bic.w	r3, r3, #1
 8001dba:	6013      	str	r3, [r2, #0]
 8001dbc:	9b01      	ldr	r3, [sp, #4]
 8001dbe:	3301      	adds	r3, #1
 8001dc0:	42bb      	cmp	r3, r7
 8001dc2:	9301      	str	r3, [sp, #4]
 8001dc4:	d802      	bhi.n	8001dcc <HAL_DMA_IRQHandler+0x144>
 8001dc6:	6813      	ldr	r3, [r2, #0]
 8001dc8:	07db      	lsls	r3, r3, #31
 8001dca:	d4f7      	bmi.n	8001dbc <HAL_DMA_IRQHandler+0x134>
 8001dcc:	2301      	movs	r3, #1
 8001dce:	f884 3035 	strb.w	r3, [r4, #53]	; 0x35
 8001dd2:	2300      	movs	r3, #0
 8001dd4:	f884 3034 	strb.w	r3, [r4, #52]	; 0x34
 8001dd8:	6ce3      	ldr	r3, [r4, #76]	; 0x4c
 8001dda:	e7c6      	b.n	8001d6a <HAL_DMA_IRQHandler+0xe2>
 8001ddc:	681a      	ldr	r2, [r3, #0]
 8001dde:	f412 7280 	ands.w	r2, r2, #256	; 0x100
 8001de2:	d108      	bne.n	8001df6 <HAL_DMA_IRQHandler+0x16e>
 8001de4:	6819      	ldr	r1, [r3, #0]
 8001de6:	f021 0110 	bic.w	r1, r1, #16
 8001dea:	6019      	str	r1, [r3, #0]
 8001dec:	2301      	movs	r3, #1
 8001dee:	f884 3035 	strb.w	r3, [r4, #53]	; 0x35
 8001df2:	f884 2034 	strb.w	r2, [r4, #52]	; 0x34
 8001df6:	6be3      	ldr	r3, [r4, #60]	; 0x3c
 8001df8:	e7cc      	b.n	8001d94 <HAL_DMA_IRQHandler+0x10c>
 8001dfa:	b003      	add	sp, #12
 8001dfc:	bdf0      	pop	{r4, r5, r6, r7, pc}
 8001dfe:	bf00      	nop
 8001e00:	20000088 	.word	0x20000088

08001e04 <HAL_DMA_GetError>:
 8001e04:	6d40      	ldr	r0, [r0, #84]	; 0x54
 8001e06:	4770      	bx	lr

08001e08 <HAL_DMAEx_MultiBufferStart>:
 8001e08:	b530      	push	{r4, r5, lr}
 8001e0a:	6885      	ldr	r5, [r0, #8]
 8001e0c:	2d80      	cmp	r5, #128	; 0x80
 8001e0e:	d104      	bne.n	8001e1a <HAL_DMAEx_MultiBufferStart+0x12>
 8001e10:	f44f 7380 	mov.w	r3, #256	; 0x100
 8001e14:	6543      	str	r3, [r0, #84]	; 0x54
 8001e16:	2001      	movs	r0, #1
 8001e18:	bd30      	pop	{r4, r5, pc}
 8001e1a:	f890 4034 	ldrb.w	r4, [r0, #52]	; 0x34
 8001e1e:	2c01      	cmp	r4, #1
 8001e20:	d101      	bne.n	8001e26 <HAL_DMAEx_MultiBufferStart+0x1e>
 8001e22:	2002      	movs	r0, #2
 8001e24:	e7f8      	b.n	8001e18 <HAL_DMAEx_MultiBufferStart+0x10>
 8001e26:	2401      	movs	r4, #1
 8001e28:	f880 4034 	strb.w	r4, [r0, #52]	; 0x34
 8001e2c:	f890 4035 	ldrb.w	r4, [r0, #53]	; 0x35
 8001e30:	2c01      	cmp	r4, #1
 8001e32:	d1f6      	bne.n	8001e22 <HAL_DMAEx_MultiBufferStart+0x1a>
 8001e34:	2402      	movs	r4, #2
 8001e36:	f880 4035 	strb.w	r4, [r0, #53]	; 0x35
 8001e3a:	6800      	ldr	r0, [r0, #0]
 8001e3c:	6804      	ldr	r4, [r0, #0]
 8001e3e:	f444 2480 	orr.w	r4, r4, #262144	; 0x40000
 8001e42:	6004      	str	r4, [r0, #0]
 8001e44:	2d40      	cmp	r5, #64	; 0x40
 8001e46:	6103      	str	r3, [r0, #16]
 8001e48:	9b03      	ldr	r3, [sp, #12]
 8001e4a:	6043      	str	r3, [r0, #4]
 8001e4c:	bf0b      	itete	eq
 8001e4e:	6082      	streq	r2, [r0, #8]
 8001e50:	6081      	strne	r1, [r0, #8]
 8001e52:	60c1      	streq	r1, [r0, #12]
 8001e54:	60c2      	strne	r2, [r0, #12]
 8001e56:	6803      	ldr	r3, [r0, #0]
 8001e58:	f043 0301 	orr.w	r3, r3, #1
 8001e5c:	6003      	str	r3, [r0, #0]
 8001e5e:	2000      	movs	r0, #0
 8001e60:	e7da      	b.n	8001e18 <HAL_DMAEx_MultiBufferStart+0x10>
	...

08001e64 <HAL_GPIO_Init>:
 8001e64:	e92d 4ff7 	stmdb	sp!, {r0, r1, r2, r4, r5, r6, r7, r8, r9, sl, fp, lr}
 8001e68:	f8df 91a8 	ldr.w	r9, [pc, #424]	; 8002014 <HAL_GPIO_Init+0x1b0>
 8001e6c:	4a67      	ldr	r2, [pc, #412]	; (800200c <HAL_GPIO_Init+0x1a8>)
 8001e6e:	2300      	movs	r3, #0
 8001e70:	680d      	ldr	r5, [r1, #0]
 8001e72:	2401      	movs	r4, #1
 8001e74:	409c      	lsls	r4, r3
 8001e76:	ea04 0c05 	and.w	ip, r4, r5
 8001e7a:	43ac      	bics	r4, r5
 8001e7c:	f040 80b1 	bne.w	8001fe2 <HAL_GPIO_Init+0x17e>
 8001e80:	684d      	ldr	r5, [r1, #4]
 8001e82:	f005 0403 	and.w	r4, r5, #3
 8001e86:	ea4f 0843 	mov.w	r8, r3, lsl #1
 8001e8a:	2603      	movs	r6, #3
 8001e8c:	1e67      	subs	r7, r4, #1
 8001e8e:	fa06 f608 	lsl.w	r6, r6, r8
 8001e92:	2f01      	cmp	r7, #1
 8001e94:	ea6f 0606 	mvn.w	r6, r6
 8001e98:	d834      	bhi.n	8001f04 <HAL_GPIO_Init+0xa0>
 8001e9a:	6887      	ldr	r7, [r0, #8]
 8001e9c:	ea07 0e06 	and.w	lr, r7, r6
 8001ea0:	68cf      	ldr	r7, [r1, #12]
 8001ea2:	fa07 f708 	lsl.w	r7, r7, r8
 8001ea6:	ea47 070e 	orr.w	r7, r7, lr
 8001eaa:	6087      	str	r7, [r0, #8]
 8001eac:	6847      	ldr	r7, [r0, #4]
 8001eae:	ea27 0e0c 	bic.w	lr, r7, ip
 8001eb2:	f3c5 1700 	ubfx	r7, r5, #4, #1
 8001eb6:	409f      	lsls	r7, r3
 8001eb8:	ea47 070e 	orr.w	r7, r7, lr
 8001ebc:	6047      	str	r7, [r0, #4]
 8001ebe:	68c7      	ldr	r7, [r0, #12]
 8001ec0:	ea07 0e06 	and.w	lr, r7, r6
 8001ec4:	688f      	ldr	r7, [r1, #8]
 8001ec6:	fa07 f708 	lsl.w	r7, r7, r8
 8001eca:	ea47 070e 	orr.w	r7, r7, lr
 8001ece:	2c02      	cmp	r4, #2
 8001ed0:	60c7      	str	r7, [r0, #12]
 8001ed2:	d119      	bne.n	8001f08 <HAL_GPIO_Init+0xa4>
 8001ed4:	ea4f 0ad3 	mov.w	sl, r3, lsr #3
 8001ed8:	eb00 0a8a 	add.w	sl, r0, sl, lsl #2
 8001edc:	f003 0b07 	and.w	fp, r3, #7
 8001ee0:	f8da 7020 	ldr.w	r7, [sl, #32]
 8001ee4:	ea4f 0b8b 	mov.w	fp, fp, lsl #2
 8001ee8:	f04f 0e0f 	mov.w	lr, #15
 8001eec:	fa0e fe0b 	lsl.w	lr, lr, fp
 8001ef0:	ea27 0e0e 	bic.w	lr, r7, lr
 8001ef4:	690f      	ldr	r7, [r1, #16]
 8001ef6:	fa07 f70b 	lsl.w	r7, r7, fp
 8001efa:	ea47 070e 	orr.w	r7, r7, lr
 8001efe:	f8ca 7020 	str.w	r7, [sl, #32]
 8001f02:	e001      	b.n	8001f08 <HAL_GPIO_Init+0xa4>
 8001f04:	2c03      	cmp	r4, #3
 8001f06:	d1da      	bne.n	8001ebe <HAL_GPIO_Init+0x5a>
 8001f08:	6807      	ldr	r7, [r0, #0]
 8001f0a:	fa04 f408 	lsl.w	r4, r4, r8
 8001f0e:	403e      	ands	r6, r7
 8001f10:	4326      	orrs	r6, r4
 8001f12:	f415 3f40 	tst.w	r5, #196608	; 0x30000
 8001f16:	6006      	str	r6, [r0, #0]
 8001f18:	d063      	beq.n	8001fe2 <HAL_GPIO_Init+0x17e>
 8001f1a:	f04f 0a00 	mov.w	sl, #0
 8001f1e:	f8cd a004 	str.w	sl, [sp, #4]
 8001f22:	f8d9 6044 	ldr.w	r6, [r9, #68]	; 0x44
 8001f26:	4c3a      	ldr	r4, [pc, #232]	; (8002010 <HAL_GPIO_Init+0x1ac>)
 8001f28:	f446 4680 	orr.w	r6, r6, #16384	; 0x4000
 8001f2c:	f8c9 6044 	str.w	r6, [r9, #68]	; 0x44
 8001f30:	f8d9 6044 	ldr.w	r6, [r9, #68]	; 0x44
 8001f34:	f406 4680 	and.w	r6, r6, #16384	; 0x4000
 8001f38:	9601      	str	r6, [sp, #4]
 8001f3a:	9e01      	ldr	r6, [sp, #4]
 8001f3c:	f023 0603 	bic.w	r6, r3, #3
 8001f40:	f106 4680 	add.w	r6, r6, #1073741824	; 0x40000000
 8001f44:	f506 369c 	add.w	r6, r6, #79872	; 0x13800
 8001f48:	f003 0e03 	and.w	lr, r3, #3
 8001f4c:	f8d6 8008 	ldr.w	r8, [r6, #8]
 8001f50:	ea4f 0e8e 	mov.w	lr, lr, lsl #2
 8001f54:	270f      	movs	r7, #15
 8001f56:	fa07 f70e 	lsl.w	r7, r7, lr
 8001f5a:	42a0      	cmp	r0, r4
 8001f5c:	ea28 0707 	bic.w	r7, r8, r7
 8001f60:	d046      	beq.n	8001ff0 <HAL_GPIO_Init+0x18c>
 8001f62:	f504 6480 	add.w	r4, r4, #1024	; 0x400
 8001f66:	42a0      	cmp	r0, r4
 8001f68:	d044      	beq.n	8001ff4 <HAL_GPIO_Init+0x190>
 8001f6a:	f504 6480 	add.w	r4, r4, #1024	; 0x400
 8001f6e:	42a0      	cmp	r0, r4
 8001f70:	d042      	beq.n	8001ff8 <HAL_GPIO_Init+0x194>
 8001f72:	f504 6480 	add.w	r4, r4, #1024	; 0x400
 8001f76:	42a0      	cmp	r0, r4
 8001f78:	d040      	beq.n	8001ffc <HAL_GPIO_Init+0x198>
 8001f7a:	f504 6480 	add.w	r4, r4, #1024	; 0x400
 8001f7e:	42a0      	cmp	r0, r4
 8001f80:	d03e      	beq.n	8002000 <HAL_GPIO_Init+0x19c>
 8001f82:	f504 6480 	add.w	r4, r4, #1024	; 0x400
 8001f86:	42a0      	cmp	r0, r4
 8001f88:	d03c      	beq.n	8002004 <HAL_GPIO_Init+0x1a0>
 8001f8a:	f504 6480 	add.w	r4, r4, #1024	; 0x400
 8001f8e:	42a0      	cmp	r0, r4
 8001f90:	d03a      	beq.n	8002008 <HAL_GPIO_Init+0x1a4>
 8001f92:	f504 6480 	add.w	r4, r4, #1024	; 0x400
 8001f96:	42a0      	cmp	r0, r4
 8001f98:	bf0c      	ite	eq
 8001f9a:	2407      	moveq	r4, #7
 8001f9c:	2408      	movne	r4, #8
 8001f9e:	fa04 f40e 	lsl.w	r4, r4, lr
 8001fa2:	433c      	orrs	r4, r7
 8001fa4:	60b4      	str	r4, [r6, #8]
 8001fa6:	6814      	ldr	r4, [r2, #0]
 8001fa8:	ea6f 060c 	mvn.w	r6, ip
 8001fac:	03ef      	lsls	r7, r5, #15
 8001fae:	bf54      	ite	pl
 8001fb0:	4034      	andpl	r4, r6
 8001fb2:	ea4c 0404 	orrmi.w	r4, ip, r4
 8001fb6:	6014      	str	r4, [r2, #0]
 8001fb8:	6854      	ldr	r4, [r2, #4]
 8001fba:	03af      	lsls	r7, r5, #14
 8001fbc:	bf54      	ite	pl
 8001fbe:	4034      	andpl	r4, r6
 8001fc0:	ea4c 0404 	orrmi.w	r4, ip, r4
 8001fc4:	6054      	str	r4, [r2, #4]
 8001fc6:	6894      	ldr	r4, [r2, #8]
 8001fc8:	02ef      	lsls	r7, r5, #11
 8001fca:	bf54      	ite	pl
 8001fcc:	4034      	andpl	r4, r6
 8001fce:	ea4c 0404 	orrmi.w	r4, ip, r4
 8001fd2:	6094      	str	r4, [r2, #8]
 8001fd4:	68d4      	ldr	r4, [r2, #12]
 8001fd6:	02ad      	lsls	r5, r5, #10
 8001fd8:	bf54      	ite	pl
 8001fda:	4034      	andpl	r4, r6
 8001fdc:	ea4c 0404 	orrmi.w	r4, ip, r4
 8001fe0:	60d4      	str	r4, [r2, #12]
 8001fe2:	3301      	adds	r3, #1
 8001fe4:	2b10      	cmp	r3, #16
 8001fe6:	f47f af43 	bne.w	8001e70 <HAL_GPIO_Init+0xc>
 8001fea:	b003      	add	sp, #12
 8001fec:	e8bd 8ff0 	ldmia.w	sp!, {r4, r5, r6, r7, r8, r9, sl, fp, pc}
 8001ff0:	4654      	mov	r4, sl
 8001ff2:	e7d4      	b.n	8001f9e <HAL_GPIO_Init+0x13a>
 8001ff4:	2401      	movs	r4, #1
 8001ff6:	e7d2      	b.n	8001f9e <HAL_GPIO_Init+0x13a>
 8001ff8:	2402      	movs	r4, #2
 8001ffa:	e7d0      	b.n	8001f9e <HAL_GPIO_Init+0x13a>
 8001ffc:	2403      	movs	r4, #3
 8001ffe:	e7ce      	b.n	8001f9e <HAL_GPIO_Init+0x13a>
 8002000:	2404      	movs	r4, #4
 8002002:	e7cc      	b.n	8001f9e <HAL_GPIO_Init+0x13a>
 8002004:	2405      	movs	r4, #5
 8002006:	e7ca      	b.n	8001f9e <HAL_GPIO_Init+0x13a>
 8002008:	2406      	movs	r4, #6
 800200a:	e7c8      	b.n	8001f9e <HAL_GPIO_Init+0x13a>
 800200c:	40013c00 	.word	0x40013c00
 8002010:	40020000 	.word	0x40020000
 8002014:	40023800 	.word	0x40023800

08002018 <HAL_GPIO_WritePin>:
 8002018:	b10a      	cbz	r2, 800201e <HAL_GPIO_WritePin+0x6>
 800201a:	6181      	str	r1, [r0, #24]
 800201c:	4770      	bx	lr
 800201e:	0409      	lsls	r1, r1, #16
 8002020:	e7fb      	b.n	800201a <HAL_GPIO_WritePin+0x2>

08002022 <HAL_GPIO_TogglePin>:
 8002022:	6943      	ldr	r3, [r0, #20]
 8002024:	ea01 0203 	and.w	r2, r1, r3
 8002028:	ea21 0103 	bic.w	r1, r1, r3
 800202c:	ea41 4102 	orr.w	r1, r1, r2, lsl #16
 8002030:	6181      	str	r1, [r0, #24]
 8002032:	4770      	bx	lr

08002034 <I2C_IsAcknowledgeFailed>:
 8002034:	6801      	ldr	r1, [r0, #0]
 8002036:	694b      	ldr	r3, [r1, #20]
 8002038:	f413 6380 	ands.w	r3, r3, #1024	; 0x400
 800203c:	f04f 0200 	mov.w	r2, #0
 8002040:	d010      	beq.n	8002064 <I2C_IsAcknowledgeFailed+0x30>
 8002042:	f46f 6380 	mvn.w	r3, #1024	; 0x400
 8002046:	614b      	str	r3, [r1, #20]
 8002048:	2320      	movs	r3, #32
 800204a:	6302      	str	r2, [r0, #48]	; 0x30
 800204c:	f880 303d 	strb.w	r3, [r0, #61]	; 0x3d
 8002050:	f880 203e 	strb.w	r2, [r0, #62]	; 0x3e
 8002054:	6c03      	ldr	r3, [r0, #64]	; 0x40
 8002056:	f880 203c 	strb.w	r2, [r0, #60]	; 0x3c
 800205a:	f043 0304 	orr.w	r3, r3, #4
 800205e:	6403      	str	r3, [r0, #64]	; 0x40
 8002060:	2001      	movs	r0, #1
 8002062:	4770      	bx	lr
 8002064:	4618      	mov	r0, r3
 8002066:	4770      	bx	lr

08002068 <I2C_WaitOnMasterAddressFlagUntilTimeout>:
 8002068:	e92d 41f0 	stmdb	sp!, {r4, r5, r6, r7, r8, lr}
 800206c:	4604      	mov	r4, r0
 800206e:	460f      	mov	r7, r1
 8002070:	4616      	mov	r6, r2
 8002072:	4698      	mov	r8, r3
 8002074:	6825      	ldr	r5, [r4, #0]
 8002076:	6968      	ldr	r0, [r5, #20]
 8002078:	ea27 0000 	bic.w	r0, r7, r0
 800207c:	b280      	uxth	r0, r0
 800207e:	b1b8      	cbz	r0, 80020b0 <I2C_WaitOnMasterAddressFlagUntilTimeout+0x48>
 8002080:	696b      	ldr	r3, [r5, #20]
 8002082:	055a      	lsls	r2, r3, #21
 8002084:	d516      	bpl.n	80020b4 <I2C_WaitOnMasterAddressFlagUntilTimeout+0x4c>
 8002086:	682b      	ldr	r3, [r5, #0]
 8002088:	f443 7300 	orr.w	r3, r3, #512	; 0x200
 800208c:	602b      	str	r3, [r5, #0]
 800208e:	f46f 6380 	mvn.w	r3, #1024	; 0x400
 8002092:	616b      	str	r3, [r5, #20]
 8002094:	2220      	movs	r2, #32
 8002096:	2300      	movs	r3, #0
 8002098:	6323      	str	r3, [r4, #48]	; 0x30
 800209a:	f884 203d 	strb.w	r2, [r4, #61]	; 0x3d
 800209e:	f884 303e 	strb.w	r3, [r4, #62]	; 0x3e
 80020a2:	6c22      	ldr	r2, [r4, #64]	; 0x40
 80020a4:	f042 0204 	orr.w	r2, r2, #4
 80020a8:	6422      	str	r2, [r4, #64]	; 0x40
 80020aa:	f884 303c 	strb.w	r3, [r4, #60]	; 0x3c
 80020ae:	2001      	movs	r0, #1
 80020b0:	e8bd 81f0 	ldmia.w	sp!, {r4, r5, r6, r7, r8, pc}
 80020b4:	1c73      	adds	r3, r6, #1
 80020b6:	d0de      	beq.n	8002076 <I2C_WaitOnMasterAddressFlagUntilTimeout+0xe>
 80020b8:	f7ff fc58 	bl	800196c <HAL_GetTick>
 80020bc:	eba0 0008 	sub.w	r0, r0, r8
 80020c0:	42b0      	cmp	r0, r6
 80020c2:	d801      	bhi.n	80020c8 <I2C_WaitOnMasterAddressFlagUntilTimeout+0x60>
 80020c4:	2e00      	cmp	r6, #0
 80020c6:	d1d5      	bne.n	8002074 <I2C_WaitOnMasterAddressFlagUntilTimeout+0xc>
 80020c8:	2300      	movs	r3, #0
 80020ca:	2220      	movs	r2, #32
 80020cc:	6323      	str	r3, [r4, #48]	; 0x30
 80020ce:	f884 203d 	strb.w	r2, [r4, #61]	; 0x3d
 80020d2:	f884 303e 	strb.w	r3, [r4, #62]	; 0x3e
 80020d6:	6c22      	ldr	r2, [r4, #64]	; 0x40
 80020d8:	f042 0220 	orr.w	r2, r2, #32
 80020dc:	e7e4      	b.n	80020a8 <I2C_WaitOnMasterAddressFlagUntilTimeout+0x40>

080020de <I2C_WaitOnBTFFlagUntilTimeout>:
 80020de:	b570      	push	{r4, r5, r6, lr}
 80020e0:	4604      	mov	r4, r0
 80020e2:	460d      	mov	r5, r1
 80020e4:	4616      	mov	r6, r2
 80020e6:	6823      	ldr	r3, [r4, #0]
 80020e8:	695b      	ldr	r3, [r3, #20]
 80020ea:	075b      	lsls	r3, r3, #29
 80020ec:	d501      	bpl.n	80020f2 <I2C_WaitOnBTFFlagUntilTimeout+0x14>
 80020ee:	2000      	movs	r0, #0
 80020f0:	bd70      	pop	{r4, r5, r6, pc}
 80020f2:	4620      	mov	r0, r4
 80020f4:	f7ff ff9e 	bl	8002034 <I2C_IsAcknowledgeFailed>
 80020f8:	b9a8      	cbnz	r0, 8002126 <I2C_WaitOnBTFFlagUntilTimeout+0x48>
 80020fa:	1c6a      	adds	r2, r5, #1
 80020fc:	d0f3      	beq.n	80020e6 <I2C_WaitOnBTFFlagUntilTimeout+0x8>
 80020fe:	f7ff fc35 	bl	800196c <HAL_GetTick>
 8002102:	1b80      	subs	r0, r0, r6
 8002104:	42a8      	cmp	r0, r5
 8002106:	d801      	bhi.n	800210c <I2C_WaitOnBTFFlagUntilTimeout+0x2e>
 8002108:	2d00      	cmp	r5, #0
 800210a:	d1ec      	bne.n	80020e6 <I2C_WaitOnBTFFlagUntilTimeout+0x8>
 800210c:	2300      	movs	r3, #0
 800210e:	2220      	movs	r2, #32
 8002110:	6323      	str	r3, [r4, #48]	; 0x30
 8002112:	f884 203d 	strb.w	r2, [r4, #61]	; 0x3d
 8002116:	f884 303e 	strb.w	r3, [r4, #62]	; 0x3e
 800211a:	6c22      	ldr	r2, [r4, #64]	; 0x40
 800211c:	f884 303c 	strb.w	r3, [r4, #60]	; 0x3c
 8002120:	f042 0220 	orr.w	r2, r2, #32
 8002124:	6422      	str	r2, [r4, #64]	; 0x40
 8002126:	2001      	movs	r0, #1
 8002128:	e7e2      	b.n	80020f0 <I2C_WaitOnBTFFlagUntilTimeout+0x12>

0800212a <I2C_WaitOnFlagUntilTimeout>:
 800212a:	e92d 46f8 	stmdb	sp!, {r3, r4, r5, r6, r7, r9, sl, lr}
 800212e:	4606      	mov	r6, r0
 8002130:	460f      	mov	r7, r1
 8002132:	4691      	mov	r9, r2
 8002134:	461d      	mov	r5, r3
 8002136:	ea4f 4a11 	mov.w	sl, r1, lsr #16
 800213a:	6833      	ldr	r3, [r6, #0]
 800213c:	f1ba 0f01 	cmp.w	sl, #1
 8002140:	bf0c      	ite	eq
 8002142:	695c      	ldreq	r4, [r3, #20]
 8002144:	699c      	ldrne	r4, [r3, #24]
 8002146:	ea27 0404 	bic.w	r4, r7, r4
 800214a:	b2a4      	uxth	r4, r4
 800214c:	fab4 f484 	clz	r4, r4
 8002150:	0964      	lsrs	r4, r4, #5
 8002152:	45a1      	cmp	r9, r4
 8002154:	d001      	beq.n	800215a <I2C_WaitOnFlagUntilTimeout+0x30>
 8002156:	2000      	movs	r0, #0
 8002158:	e017      	b.n	800218a <I2C_WaitOnFlagUntilTimeout+0x60>
 800215a:	1c6a      	adds	r2, r5, #1
 800215c:	d0ee      	beq.n	800213c <I2C_WaitOnFlagUntilTimeout+0x12>
 800215e:	f7ff fc05 	bl	800196c <HAL_GetTick>
 8002162:	9b08      	ldr	r3, [sp, #32]
 8002164:	1ac0      	subs	r0, r0, r3
 8002166:	42a8      	cmp	r0, r5
 8002168:	d801      	bhi.n	800216e <I2C_WaitOnFlagUntilTimeout+0x44>
 800216a:	2d00      	cmp	r5, #0
 800216c:	d1e5      	bne.n	800213a <I2C_WaitOnFlagUntilTimeout+0x10>
 800216e:	2300      	movs	r3, #0
 8002170:	2220      	movs	r2, #32
 8002172:	6333      	str	r3, [r6, #48]	; 0x30
 8002174:	f886 203d 	strb.w	r2, [r6, #61]	; 0x3d
 8002178:	f886 303e 	strb.w	r3, [r6, #62]	; 0x3e
 800217c:	6c32      	ldr	r2, [r6, #64]	; 0x40
 800217e:	f886 303c 	strb.w	r3, [r6, #60]	; 0x3c
 8002182:	f042 0220 	orr.w	r2, r2, #32
 8002186:	6432      	str	r2, [r6, #64]	; 0x40
 8002188:	2001      	movs	r0, #1
 800218a:	e8bd 86f8 	ldmia.w	sp!, {r3, r4, r5, r6, r7, r9, sl, pc}

0800218e <I2C_WaitOnTXEFlagUntilTimeout>:
 800218e:	b570      	push	{r4, r5, r6, lr}
 8002190:	4604      	mov	r4, r0
 8002192:	460d      	mov	r5, r1
 8002194:	4616      	mov	r6, r2
 8002196:	6823      	ldr	r3, [r4, #0]
 8002198:	695b      	ldr	r3, [r3, #20]
 800219a:	061b      	lsls	r3, r3, #24
 800219c:	d501      	bpl.n	80021a2 <I2C_WaitOnTXEFlagUntilTimeout+0x14>
 800219e:	2000      	movs	r0, #0
 80021a0:	bd70      	pop	{r4, r5, r6, pc}
 80021a2:	4620      	mov	r0, r4
 80021a4:	f7ff ff46 	bl	8002034 <I2C_IsAcknowledgeFailed>
 80021a8:	b9a8      	cbnz	r0, 80021d6 <I2C_WaitOnTXEFlagUntilTimeout+0x48>
 80021aa:	1c6a      	adds	r2, r5, #1
 80021ac:	d0f3      	beq.n	8002196 <I2C_WaitOnTXEFlagUntilTimeout+0x8>
 80021ae:	f7ff fbdd 	bl	800196c <HAL_GetTick>
 80021b2:	1b80      	subs	r0, r0, r6
 80021b4:	42a8      	cmp	r0, r5
 80021b6:	d801      	bhi.n	80021bc <I2C_WaitOnTXEFlagUntilTimeout+0x2e>
 80021b8:	2d00      	cmp	r5, #0
 80021ba:	d1ec      	bne.n	8002196 <I2C_WaitOnTXEFlagUntilTimeout+0x8>
 80021bc:	2300      	movs	r3, #0
 80021be:	2220      	movs	r2, #32
 80021c0:	6323      	str	r3, [r4, #48]	; 0x30
 80021c2:	f884 203d 	strb.w	r2, [r4, #61]	; 0x3d
 80021c6:	f884 303e 	strb.w	r3, [r4, #62]	; 0x3e
 80021ca:	6c22      	ldr	r2, [r4, #64]	; 0x40
 80021cc:	f884 303c 	strb.w	r3, [r4, #60]	; 0x3c
 80021d0:	f042 0220 	orr.w	r2, r2, #32
 80021d4:	6422      	str	r2, [r4, #64]	; 0x40
 80021d6:	2001      	movs	r0, #1
 80021d8:	e7e2      	b.n	80021a0 <I2C_WaitOnTXEFlagUntilTimeout+0x12>
	...

080021dc <HAL_I2C_Init>:
 80021dc:	b570      	push	{r4, r5, r6, lr}
 80021de:	4604      	mov	r4, r0
 80021e0:	b908      	cbnz	r0, 80021e6 <HAL_I2C_Init+0xa>
 80021e2:	2001      	movs	r0, #1
 80021e4:	bd70      	pop	{r4, r5, r6, pc}
 80021e6:	f890 303d 	ldrb.w	r3, [r0, #61]	; 0x3d
 80021ea:	f003 02ff 	and.w	r2, r3, #255	; 0xff
 80021ee:	b91b      	cbnz	r3, 80021f8 <HAL_I2C_Init+0x1c>
 80021f0:	f880 203c 	strb.w	r2, [r0, #60]	; 0x3c
 80021f4:	f7ff f912 	bl	800141c <HAL_I2C_MspInit>
 80021f8:	2324      	movs	r3, #36	; 0x24
 80021fa:	f884 303d 	strb.w	r3, [r4, #61]	; 0x3d
 80021fe:	6823      	ldr	r3, [r4, #0]
 8002200:	681a      	ldr	r2, [r3, #0]
 8002202:	f022 0201 	bic.w	r2, r2, #1
 8002206:	601a      	str	r2, [r3, #0]
 8002208:	681a      	ldr	r2, [r3, #0]
 800220a:	f442 4200 	orr.w	r2, r2, #32768	; 0x8000
 800220e:	601a      	str	r2, [r3, #0]
 8002210:	681a      	ldr	r2, [r3, #0]
 8002212:	f422 4200 	bic.w	r2, r2, #32768	; 0x8000
 8002216:	601a      	str	r2, [r3, #0]
 8002218:	f000 fe16 	bl	8002e48 <HAL_RCC_GetPCLK1Freq>
 800221c:	4a3f      	ldr	r2, [pc, #252]	; (800231c <HAL_I2C_Init+0x140>)
 800221e:	6863      	ldr	r3, [r4, #4]
 8002220:	4293      	cmp	r3, r2
 8002222:	bf94      	ite	ls
 8002224:	4a3e      	ldrls	r2, [pc, #248]	; (8002320 <HAL_I2C_Init+0x144>)
 8002226:	4a3f      	ldrhi	r2, [pc, #252]	; (8002324 <HAL_I2C_Init+0x148>)
 8002228:	4290      	cmp	r0, r2
 800222a:	bf8c      	ite	hi
 800222c:	2200      	movhi	r2, #0
 800222e:	2201      	movls	r2, #1
 8002230:	2a00      	cmp	r2, #0
 8002232:	d1d6      	bne.n	80021e2 <HAL_I2C_Init+0x6>
 8002234:	6821      	ldr	r1, [r4, #0]
 8002236:	4e3c      	ldr	r6, [pc, #240]	; (8002328 <HAL_I2C_Init+0x14c>)
 8002238:	684a      	ldr	r2, [r1, #4]
 800223a:	fbb0 f6f6 	udiv	r6, r0, r6
 800223e:	f022 023f 	bic.w	r2, r2, #63	; 0x3f
 8002242:	4332      	orrs	r2, r6
 8002244:	604a      	str	r2, [r1, #4]
 8002246:	4a35      	ldr	r2, [pc, #212]	; (800231c <HAL_I2C_Init+0x140>)
 8002248:	6a0d      	ldr	r5, [r1, #32]
 800224a:	4293      	cmp	r3, r2
 800224c:	bf84      	itt	hi
 800224e:	f44f 7296 	movhi.w	r2, #300	; 0x12c
 8002252:	4372      	mulhi	r2, r6
 8002254:	f025 053f 	bic.w	r5, r5, #63	; 0x3f
 8002258:	bf91      	iteee	ls
 800225a:	1c72      	addls	r2, r6, #1
 800225c:	f44f 767a 	movhi.w	r6, #1000	; 0x3e8
 8002260:	fbb2 f2f6 	udivhi	r2, r2, r6
 8002264:	3201      	addhi	r2, #1
 8002266:	432a      	orrs	r2, r5
 8002268:	620a      	str	r2, [r1, #32]
 800226a:	69cd      	ldr	r5, [r1, #28]
 800226c:	1e42      	subs	r2, r0, #1
 800226e:	482b      	ldr	r0, [pc, #172]	; (800231c <HAL_I2C_Init+0x140>)
 8002270:	f425 454f 	bic.w	r5, r5, #52992	; 0xcf00
 8002274:	4283      	cmp	r3, r0
 8002276:	f025 05ff 	bic.w	r5, r5, #255	; 0xff
 800227a:	d832      	bhi.n	80022e2 <HAL_I2C_Init+0x106>
 800227c:	005b      	lsls	r3, r3, #1
 800227e:	fbb2 f3f3 	udiv	r3, r2, r3
 8002282:	f640 72fc 	movw	r2, #4092	; 0xffc
 8002286:	3301      	adds	r3, #1
 8002288:	4213      	tst	r3, r2
 800228a:	d042      	beq.n	8002312 <HAL_I2C_Init+0x136>
 800228c:	f3c3 030b 	ubfx	r3, r3, #0, #12
 8002290:	432b      	orrs	r3, r5
 8002292:	61cb      	str	r3, [r1, #28]
 8002294:	e9d4 3007 	ldrd	r3, r0, [r4, #28]
 8002298:	680a      	ldr	r2, [r1, #0]
 800229a:	4303      	orrs	r3, r0
 800229c:	f022 02c0 	bic.w	r2, r2, #192	; 0xc0
 80022a0:	4313      	orrs	r3, r2
 80022a2:	600b      	str	r3, [r1, #0]
 80022a4:	688a      	ldr	r2, [r1, #8]
 80022a6:	e9d4 0303 	ldrd	r0, r3, [r4, #12]
 80022aa:	f422 4203 	bic.w	r2, r2, #33536	; 0x8300
 80022ae:	4303      	orrs	r3, r0
 80022b0:	f022 02ff 	bic.w	r2, r2, #255	; 0xff
 80022b4:	4313      	orrs	r3, r2
 80022b6:	608b      	str	r3, [r1, #8]
 80022b8:	e9d4 3005 	ldrd	r3, r0, [r4, #20]
 80022bc:	68ca      	ldr	r2, [r1, #12]
 80022be:	4303      	orrs	r3, r0
 80022c0:	f022 02ff 	bic.w	r2, r2, #255	; 0xff
 80022c4:	4313      	orrs	r3, r2
 80022c6:	60cb      	str	r3, [r1, #12]
 80022c8:	680b      	ldr	r3, [r1, #0]
 80022ca:	f043 0301 	orr.w	r3, r3, #1
 80022ce:	600b      	str	r3, [r1, #0]
 80022d0:	2000      	movs	r0, #0
 80022d2:	2320      	movs	r3, #32
 80022d4:	6420      	str	r0, [r4, #64]	; 0x40
 80022d6:	f884 303d 	strb.w	r3, [r4, #61]	; 0x3d
 80022da:	6320      	str	r0, [r4, #48]	; 0x30
 80022dc:	f884 003e 	strb.w	r0, [r4, #62]	; 0x3e
 80022e0:	e780      	b.n	80021e4 <HAL_I2C_Init+0x8>
 80022e2:	68a0      	ldr	r0, [r4, #8]
 80022e4:	b950      	cbnz	r0, 80022fc <HAL_I2C_Init+0x120>
 80022e6:	eb03 0343 	add.w	r3, r3, r3, lsl #1
 80022ea:	fbb2 f3f3 	udiv	r3, r2, r3
 80022ee:	3301      	adds	r3, #1
 80022f0:	f3c3 030b 	ubfx	r3, r3, #0, #12
 80022f4:	b17b      	cbz	r3, 8002316 <HAL_I2C_Init+0x13a>
 80022f6:	f443 4300 	orr.w	r3, r3, #32768	; 0x8000
 80022fa:	e7c9      	b.n	8002290 <HAL_I2C_Init+0xb4>
 80022fc:	2019      	movs	r0, #25
 80022fe:	4343      	muls	r3, r0
 8002300:	fbb2 f3f3 	udiv	r3, r2, r3
 8002304:	3301      	adds	r3, #1
 8002306:	f3c3 030b 	ubfx	r3, r3, #0, #12
 800230a:	b123      	cbz	r3, 8002316 <HAL_I2C_Init+0x13a>
 800230c:	f443 4340 	orr.w	r3, r3, #49152	; 0xc000
 8002310:	e7be      	b.n	8002290 <HAL_I2C_Init+0xb4>
 8002312:	2304      	movs	r3, #4
 8002314:	e7bc      	b.n	8002290 <HAL_I2C_Init+0xb4>
 8002316:	2301      	movs	r3, #1
 8002318:	e7ba      	b.n	8002290 <HAL_I2C_Init+0xb4>
 800231a:	bf00      	nop
 800231c:	000186a0 	.word	0x000186a0
 8002320:	001e847f 	.word	0x001e847f
 8002324:	003d08ff 	.word	0x003d08ff
 8002328:	000f4240 	.word	0x000f4240

0800232c <HAL_I2C_Master_Transmit>:
 800232c:	e92d 43f0 	stmdb	sp!, {r4, r5, r6, r7, r8, r9, lr}
 8002330:	4604      	mov	r4, r0
 8002332:	b085      	sub	sp, #20
 8002334:	4698      	mov	r8, r3
 8002336:	9f0c      	ldr	r7, [sp, #48]	; 0x30
 8002338:	460d      	mov	r5, r1
 800233a:	4691      	mov	r9, r2
 800233c:	f7ff fb16 	bl	800196c <HAL_GetTick>
 8002340:	f894 303d 	ldrb.w	r3, [r4, #61]	; 0x3d
 8002344:	2b20      	cmp	r3, #32
 8002346:	4606      	mov	r6, r0
 8002348:	d004      	beq.n	8002354 <HAL_I2C_Master_Transmit+0x28>
 800234a:	2502      	movs	r5, #2
 800234c:	4628      	mov	r0, r5
 800234e:	b005      	add	sp, #20
 8002350:	e8bd 83f0 	ldmia.w	sp!, {r4, r5, r6, r7, r8, r9, pc}
 8002354:	9000      	str	r0, [sp, #0]
 8002356:	495d      	ldr	r1, [pc, #372]	; (80024cc <HAL_I2C_Master_Transmit+0x1a0>)
 8002358:	2319      	movs	r3, #25
 800235a:	2201      	movs	r2, #1
 800235c:	4620      	mov	r0, r4
 800235e:	f7ff fee4 	bl	800212a <I2C_WaitOnFlagUntilTimeout>
 8002362:	2800      	cmp	r0, #0
 8002364:	d1f1      	bne.n	800234a <HAL_I2C_Master_Transmit+0x1e>
 8002366:	f894 303c 	ldrb.w	r3, [r4, #60]	; 0x3c
 800236a:	2b01      	cmp	r3, #1
 800236c:	d0ed      	beq.n	800234a <HAL_I2C_Master_Transmit+0x1e>
 800236e:	6821      	ldr	r1, [r4, #0]
 8002370:	2301      	movs	r3, #1
 8002372:	f884 303c 	strb.w	r3, [r4, #60]	; 0x3c
 8002376:	680b      	ldr	r3, [r1, #0]
 8002378:	07da      	lsls	r2, r3, #31
 800237a:	bf5e      	ittt	pl
 800237c:	680b      	ldrpl	r3, [r1, #0]
 800237e:	f043 0301 	orrpl.w	r3, r3, #1
 8002382:	600b      	strpl	r3, [r1, #0]
 8002384:	680b      	ldr	r3, [r1, #0]
 8002386:	f423 6300 	bic.w	r3, r3, #2048	; 0x800
 800238a:	600b      	str	r3, [r1, #0]
 800238c:	2321      	movs	r3, #33	; 0x21
 800238e:	f884 303d 	strb.w	r3, [r4, #61]	; 0x3d
 8002392:	2310      	movs	r3, #16
 8002394:	f884 303e 	strb.w	r3, [r4, #62]	; 0x3e
 8002398:	2300      	movs	r3, #0
 800239a:	6423      	str	r3, [r4, #64]	; 0x40
 800239c:	f8a4 802a 	strh.w	r8, [r4, #42]	; 0x2a
 80023a0:	8d63      	ldrh	r3, [r4, #42]	; 0x2a
 80023a2:	8523      	strh	r3, [r4, #40]	; 0x28
 80023a4:	4b4a      	ldr	r3, [pc, #296]	; (80024d0 <HAL_I2C_Master_Transmit+0x1a4>)
 80023a6:	62e3      	str	r3, [r4, #44]	; 0x2c
 80023a8:	6ae3      	ldr	r3, [r4, #44]	; 0x2c
 80023aa:	f8c4 9024 	str.w	r9, [r4, #36]	; 0x24
 80023ae:	2b08      	cmp	r3, #8
 80023b0:	d004      	beq.n	80023bc <HAL_I2C_Master_Transmit+0x90>
 80023b2:	2b01      	cmp	r3, #1
 80023b4:	d002      	beq.n	80023bc <HAL_I2C_Master_Transmit+0x90>
 80023b6:	f513 3f80 	cmn.w	r3, #65536	; 0x10000
 80023ba:	d104      	bne.n	80023c6 <HAL_I2C_Master_Transmit+0x9a>
 80023bc:	680b      	ldr	r3, [r1, #0]
 80023be:	f443 7380 	orr.w	r3, r3, #256	; 0x100
 80023c2:	600b      	str	r3, [r1, #0]
 80023c4:	e002      	b.n	80023cc <HAL_I2C_Master_Transmit+0xa0>
 80023c6:	6b23      	ldr	r3, [r4, #48]	; 0x30
 80023c8:	2b12      	cmp	r3, #18
 80023ca:	d0f7      	beq.n	80023bc <HAL_I2C_Master_Transmit+0x90>
 80023cc:	2200      	movs	r2, #0
 80023ce:	9600      	str	r6, [sp, #0]
 80023d0:	463b      	mov	r3, r7
 80023d2:	f04f 1101 	mov.w	r1, #65537	; 0x10001
 80023d6:	4620      	mov	r0, r4
 80023d8:	f7ff fea7 	bl	800212a <I2C_WaitOnFlagUntilTimeout>
 80023dc:	6822      	ldr	r2, [r4, #0]
 80023de:	b138      	cbz	r0, 80023f0 <HAL_I2C_Master_Transmit+0xc4>
 80023e0:	6813      	ldr	r3, [r2, #0]
 80023e2:	05db      	lsls	r3, r3, #23
 80023e4:	bf44      	itt	mi
 80023e6:	f44f 7300 	movmi.w	r3, #512	; 0x200
 80023ea:	6423      	strmi	r3, [r4, #64]	; 0x40
 80023ec:	2501      	movs	r5, #1
 80023ee:	e7ad      	b.n	800234c <HAL_I2C_Master_Transmit+0x20>
 80023f0:	6923      	ldr	r3, [r4, #16]
 80023f2:	f5b3 4f80 	cmp.w	r3, #16384	; 0x4000
 80023f6:	d121      	bne.n	800243c <HAL_I2C_Master_Transmit+0x110>
 80023f8:	f005 05fe 	and.w	r5, r5, #254	; 0xfe
 80023fc:	6115      	str	r5, [r2, #16]
 80023fe:	4935      	ldr	r1, [pc, #212]	; (80024d4 <HAL_I2C_Master_Transmit+0x1a8>)
 8002400:	4633      	mov	r3, r6
 8002402:	463a      	mov	r2, r7
 8002404:	4620      	mov	r0, r4
 8002406:	f7ff fe2f 	bl	8002068 <I2C_WaitOnMasterAddressFlagUntilTimeout>
 800240a:	4605      	mov	r5, r0
 800240c:	2800      	cmp	r0, #0
 800240e:	d1ed      	bne.n	80023ec <HAL_I2C_Master_Transmit+0xc0>
 8002410:	6823      	ldr	r3, [r4, #0]
 8002412:	9003      	str	r0, [sp, #12]
 8002414:	695a      	ldr	r2, [r3, #20]
 8002416:	9203      	str	r2, [sp, #12]
 8002418:	699b      	ldr	r3, [r3, #24]
 800241a:	9303      	str	r3, [sp, #12]
 800241c:	9b03      	ldr	r3, [sp, #12]
 800241e:	8d23      	ldrh	r3, [r4, #40]	; 0x28
 8002420:	b9f3      	cbnz	r3, 8002460 <HAL_I2C_Master_Transmit+0x134>
 8002422:	6821      	ldr	r1, [r4, #0]
 8002424:	680a      	ldr	r2, [r1, #0]
 8002426:	f442 7200 	orr.w	r2, r2, #512	; 0x200
 800242a:	600a      	str	r2, [r1, #0]
 800242c:	2220      	movs	r2, #32
 800242e:	f884 203d 	strb.w	r2, [r4, #61]	; 0x3d
 8002432:	f884 303c 	strb.w	r3, [r4, #60]	; 0x3c
 8002436:	f884 303e 	strb.w	r3, [r4, #62]	; 0x3e
 800243a:	e787      	b.n	800234c <HAL_I2C_Master_Transmit+0x20>
 800243c:	11eb      	asrs	r3, r5, #7
 800243e:	f003 0306 	and.w	r3, r3, #6
 8002442:	f043 03f0 	orr.w	r3, r3, #240	; 0xf0
 8002446:	6113      	str	r3, [r2, #16]
 8002448:	4923      	ldr	r1, [pc, #140]	; (80024d8 <HAL_I2C_Master_Transmit+0x1ac>)
 800244a:	4633      	mov	r3, r6
 800244c:	463a      	mov	r2, r7
 800244e:	4620      	mov	r0, r4
 8002450:	f7ff fe0a 	bl	8002068 <I2C_WaitOnMasterAddressFlagUntilTimeout>
 8002454:	2800      	cmp	r0, #0
 8002456:	d1c9      	bne.n	80023ec <HAL_I2C_Master_Transmit+0xc0>
 8002458:	6823      	ldr	r3, [r4, #0]
 800245a:	b2ed      	uxtb	r5, r5
 800245c:	611d      	str	r5, [r3, #16]
 800245e:	e7ce      	b.n	80023fe <HAL_I2C_Master_Transmit+0xd2>
 8002460:	4632      	mov	r2, r6
 8002462:	4639      	mov	r1, r7
 8002464:	4620      	mov	r0, r4
 8002466:	f7ff fe92 	bl	800218e <I2C_WaitOnTXEFlagUntilTimeout>
 800246a:	b140      	cbz	r0, 800247e <HAL_I2C_Master_Transmit+0x152>
 800246c:	6c23      	ldr	r3, [r4, #64]	; 0x40
 800246e:	2b04      	cmp	r3, #4
 8002470:	d1bc      	bne.n	80023ec <HAL_I2C_Master_Transmit+0xc0>
 8002472:	6822      	ldr	r2, [r4, #0]
 8002474:	6813      	ldr	r3, [r2, #0]
 8002476:	f443 7300 	orr.w	r3, r3, #512	; 0x200
 800247a:	6013      	str	r3, [r2, #0]
 800247c:	e7b6      	b.n	80023ec <HAL_I2C_Master_Transmit+0xc0>
 800247e:	6a63      	ldr	r3, [r4, #36]	; 0x24
 8002480:	6820      	ldr	r0, [r4, #0]
 8002482:	461a      	mov	r2, r3
 8002484:	f812 1b01 	ldrb.w	r1, [r2], #1
 8002488:	6101      	str	r1, [r0, #16]
 800248a:	6262      	str	r2, [r4, #36]	; 0x24
 800248c:	8d62      	ldrh	r2, [r4, #42]	; 0x2a
 800248e:	3a01      	subs	r2, #1
 8002490:	b292      	uxth	r2, r2
 8002492:	8562      	strh	r2, [r4, #42]	; 0x2a
 8002494:	8d22      	ldrh	r2, [r4, #40]	; 0x28
 8002496:	f8d0 c014 	ldr.w	ip, [r0, #20]
 800249a:	1e51      	subs	r1, r2, #1
 800249c:	b289      	uxth	r1, r1
 800249e:	f01c 0f04 	tst.w	ip, #4
 80024a2:	8521      	strh	r1, [r4, #40]	; 0x28
 80024a4:	d00a      	beq.n	80024bc <HAL_I2C_Master_Transmit+0x190>
 80024a6:	b149      	cbz	r1, 80024bc <HAL_I2C_Master_Transmit+0x190>
 80024a8:	7859      	ldrb	r1, [r3, #1]
 80024aa:	6101      	str	r1, [r0, #16]
 80024ac:	3302      	adds	r3, #2
 80024ae:	6263      	str	r3, [r4, #36]	; 0x24
 80024b0:	8d63      	ldrh	r3, [r4, #42]	; 0x2a
 80024b2:	3b01      	subs	r3, #1
 80024b4:	b29b      	uxth	r3, r3
 80024b6:	3a02      	subs	r2, #2
 80024b8:	8563      	strh	r3, [r4, #42]	; 0x2a
 80024ba:	8522      	strh	r2, [r4, #40]	; 0x28
 80024bc:	4632      	mov	r2, r6
 80024be:	4639      	mov	r1, r7
 80024c0:	4620      	mov	r0, r4
 80024c2:	f7ff fe0c 	bl	80020de <I2C_WaitOnBTFFlagUntilTimeout>
 80024c6:	2800      	cmp	r0, #0
 80024c8:	d0a9      	beq.n	800241e <HAL_I2C_Master_Transmit+0xf2>
 80024ca:	e7cf      	b.n	800246c <HAL_I2C_Master_Transmit+0x140>
 80024cc:	00100002 	.word	0x00100002
 80024d0:	ffff0000 	.word	0xffff0000
 80024d4:	00010002 	.word	0x00010002
 80024d8:	00010008 	.word	0x00010008

080024dc <HAL_I2S_Init>:
 80024dc:	b5f8      	push	{r3, r4, r5, r6, r7, lr}
 80024de:	4604      	mov	r4, r0
 80024e0:	2800      	cmp	r0, #0
 80024e2:	f000 8087 	beq.w	80025f4 <HAL_I2S_Init+0x118>
 80024e6:	f890 3041 	ldrb.w	r3, [r0, #65]	; 0x41
 80024ea:	f003 02ff 	and.w	r2, r3, #255	; 0xff
 80024ee:	b92b      	cbnz	r3, 80024fc <HAL_I2S_Init+0x20>
 80024f0:	4b42      	ldr	r3, [pc, #264]	; (80025fc <HAL_I2S_Init+0x120>)
 80024f2:	f880 2040 	strb.w	r2, [r0, #64]	; 0x40
 80024f6:	6343      	str	r3, [r0, #52]	; 0x34
 80024f8:	f7fe ffc8 	bl	800148c <HAL_I2S_MspInit>
 80024fc:	6822      	ldr	r2, [r4, #0]
 80024fe:	2102      	movs	r1, #2
 8002500:	f884 1041 	strb.w	r1, [r4, #65]	; 0x41
 8002504:	69d3      	ldr	r3, [r2, #28]
 8002506:	f423 637b 	bic.w	r3, r3, #4016	; 0xfb0
 800250a:	f023 030f 	bic.w	r3, r3, #15
 800250e:	61d3      	str	r3, [r2, #28]
 8002510:	6963      	ldr	r3, [r4, #20]
 8002512:	6211      	str	r1, [r2, #32]
 8002514:	428b      	cmp	r3, r1
 8002516:	d06f      	beq.n	80025f8 <HAL_I2S_Init+0x11c>
 8002518:	68e3      	ldr	r3, [r4, #12]
 800251a:	2b00      	cmp	r3, #0
 800251c:	68a3      	ldr	r3, [r4, #8]
 800251e:	bf0c      	ite	eq
 8002520:	2510      	moveq	r5, #16
 8002522:	2520      	movne	r5, #32
 8002524:	2001      	movs	r0, #1
 8002526:	2b20      	cmp	r3, #32
 8002528:	bf98      	it	ls
 800252a:	006d      	lslls	r5, r5, #1
 800252c:	f000 fd44 	bl	8002fb8 <HAL_RCCEx_GetPeriphCLKFreq>
 8002530:	6923      	ldr	r3, [r4, #16]
 8002532:	6961      	ldr	r1, [r4, #20]
 8002534:	f5b3 7f00 	cmp.w	r3, #512	; 0x200
 8002538:	d153      	bne.n	80025e2 <HAL_I2S_Init+0x106>
 800253a:	68e3      	ldr	r3, [r4, #12]
 800253c:	220a      	movs	r2, #10
 800253e:	2b00      	cmp	r3, #0
 8002540:	d04d      	beq.n	80025de <HAL_I2S_Init+0x102>
 8002542:	00ab      	lsls	r3, r5, #2
 8002544:	fbb0 f3f3 	udiv	r3, r0, r3
 8002548:	4353      	muls	r3, r2
 800254a:	220a      	movs	r2, #10
 800254c:	fbb3 f3f1 	udiv	r3, r3, r1
 8002550:	3305      	adds	r3, #5
 8002552:	fbb3 f3f2 	udiv	r3, r3, r2
 8002556:	f003 0201 	and.w	r2, r3, #1
 800255a:	085b      	lsrs	r3, r3, #1
 800255c:	1e99      	subs	r1, r3, #2
 800255e:	29fd      	cmp	r1, #253	; 0xfd
 8002560:	d844      	bhi.n	80025ec <HAL_I2S_Init+0x110>
 8002562:	0212      	lsls	r2, r2, #8
 8002564:	4313      	orrs	r3, r2
 8002566:	6922      	ldr	r2, [r4, #16]
 8002568:	6821      	ldr	r1, [r4, #0]
 800256a:	4f25      	ldr	r7, [pc, #148]	; (8002600 <HAL_I2S_Init+0x124>)
 800256c:	68e5      	ldr	r5, [r4, #12]
 800256e:	69a0      	ldr	r0, [r4, #24]
 8002570:	4313      	orrs	r3, r2
 8002572:	620b      	str	r3, [r1, #32]
 8002574:	e9d4 6301 	ldrd	r6, r3, [r4, #4]
 8002578:	69ca      	ldr	r2, [r1, #28]
 800257a:	ea46 0c03 	orr.w	ip, r6, r3
 800257e:	403a      	ands	r2, r7
 8002580:	ea42 020c 	orr.w	r2, r2, ip
 8002584:	432a      	orrs	r2, r5
 8002586:	4302      	orrs	r2, r0
 8002588:	f442 6200 	orr.w	r2, r2, #2048	; 0x800
 800258c:	61ca      	str	r2, [r1, #28]
 800258e:	6a22      	ldr	r2, [r4, #32]
 8002590:	2a01      	cmp	r2, #1
 8002592:	d11e      	bne.n	80025d2 <HAL_I2S_Init+0xf6>
 8002594:	4a1b      	ldr	r2, [pc, #108]	; (8002604 <HAL_I2S_Init+0x128>)
 8002596:	6362      	str	r2, [r4, #52]	; 0x34
 8002598:	f8df c070 	ldr.w	ip, [pc, #112]	; 800260c <HAL_I2S_Init+0x130>
 800259c:	4a1a      	ldr	r2, [pc, #104]	; (8002608 <HAL_I2S_Init+0x12c>)
 800259e:	4561      	cmp	r1, ip
 80025a0:	bf18      	it	ne
 80025a2:	f04f 2240 	movne.w	r2, #1073758208	; 0x40004000
 80025a6:	f436 7600 	bics.w	r6, r6, #512	; 0x200
 80025aa:	69d1      	ldr	r1, [r2, #28]
 80025ac:	ea01 0107 	and.w	r1, r1, r7
 80025b0:	61d1      	str	r1, [r2, #28]
 80025b2:	f04f 0102 	mov.w	r1, #2
 80025b6:	6211      	str	r1, [r2, #32]
 80025b8:	bf0c      	ite	eq
 80025ba:	f44f 7680 	moveq.w	r6, #256	; 0x100
 80025be:	2600      	movne	r6, #0
 80025c0:	432b      	orrs	r3, r5
 80025c2:	69d1      	ldr	r1, [r2, #28]
 80025c4:	4333      	orrs	r3, r6
 80025c6:	4303      	orrs	r3, r0
 80025c8:	430b      	orrs	r3, r1
 80025ca:	b29b      	uxth	r3, r3
 80025cc:	f443 6300 	orr.w	r3, r3, #2048	; 0x800
 80025d0:	61d3      	str	r3, [r2, #28]
 80025d2:	2000      	movs	r0, #0
 80025d4:	2301      	movs	r3, #1
 80025d6:	6460      	str	r0, [r4, #68]	; 0x44
 80025d8:	f884 3041 	strb.w	r3, [r4, #65]	; 0x41
 80025dc:	bdf8      	pop	{r3, r4, r5, r6, r7, pc}
 80025de:	00eb      	lsls	r3, r5, #3
 80025e0:	e7b0      	b.n	8002544 <HAL_I2S_Init+0x68>
 80025e2:	230a      	movs	r3, #10
 80025e4:	fbb0 f0f5 	udiv	r0, r0, r5
 80025e8:	4343      	muls	r3, r0
 80025ea:	e7ae      	b.n	800254a <HAL_I2S_Init+0x6e>
 80025ec:	6c63      	ldr	r3, [r4, #68]	; 0x44
 80025ee:	f043 0310 	orr.w	r3, r3, #16
 80025f2:	6463      	str	r3, [r4, #68]	; 0x44
 80025f4:	2001      	movs	r0, #1
 80025f6:	e7f1      	b.n	80025dc <HAL_I2S_Init+0x100>
 80025f8:	2200      	movs	r2, #0
 80025fa:	e7b3      	b.n	8002564 <HAL_I2S_Init+0x88>
 80025fc:	08002617 	.word	0x08002617
 8002600:	fffff040 	.word	0xfffff040
 8002604:	08002715 	.word	0x08002715
 8002608:	40003400 	.word	0x40003400
 800260c:	40003800 	.word	0x40003800

08002610 <HAL_I2S_TxCpltCallback>:
 8002610:	4770      	bx	lr

08002612 <HAL_I2S_RxCpltCallback>:
 8002612:	4770      	bx	lr

08002614 <HAL_I2S_ErrorCallback>:
 8002614:	4770      	bx	lr

08002616 <I2S_IRQHandler>:
 8002616:	b51f      	push	{r0, r1, r2, r3, r4, lr}
 8002618:	6803      	ldr	r3, [r0, #0]
 800261a:	689a      	ldr	r2, [r3, #8]
 800261c:	9201      	str	r2, [sp, #4]
 800261e:	f890 2041 	ldrb.w	r2, [r0, #65]	; 0x41
 8002622:	2a04      	cmp	r2, #4
 8002624:	4604      	mov	r4, r0
 8002626:	d136      	bne.n	8002696 <I2S_IRQHandler+0x80>
 8002628:	9a01      	ldr	r2, [sp, #4]
 800262a:	07d1      	lsls	r1, r2, #31
 800262c:	d517      	bpl.n	800265e <I2S_IRQHandler+0x48>
 800262e:	685a      	ldr	r2, [r3, #4]
 8002630:	0652      	lsls	r2, r2, #25
 8002632:	d514      	bpl.n	800265e <I2S_IRQHandler+0x48>
 8002634:	6ac2      	ldr	r2, [r0, #44]	; 0x2c
 8002636:	68d9      	ldr	r1, [r3, #12]
 8002638:	f822 1b02 	strh.w	r1, [r2], #2
 800263c:	62c2      	str	r2, [r0, #44]	; 0x2c
 800263e:	8e42      	ldrh	r2, [r0, #50]	; 0x32
 8002640:	3a01      	subs	r2, #1
 8002642:	b292      	uxth	r2, r2
 8002644:	8642      	strh	r2, [r0, #50]	; 0x32
 8002646:	8e42      	ldrh	r2, [r0, #50]	; 0x32
 8002648:	b292      	uxth	r2, r2
 800264a:	b942      	cbnz	r2, 800265e <I2S_IRQHandler+0x48>
 800264c:	685a      	ldr	r2, [r3, #4]
 800264e:	f022 0260 	bic.w	r2, r2, #96	; 0x60
 8002652:	605a      	str	r2, [r3, #4]
 8002654:	2301      	movs	r3, #1
 8002656:	f880 3041 	strb.w	r3, [r0, #65]	; 0x41
 800265a:	f7ff ffda 	bl	8002612 <HAL_I2S_RxCpltCallback>
 800265e:	9b01      	ldr	r3, [sp, #4]
 8002660:	0659      	lsls	r1, r3, #25
 8002662:	d518      	bpl.n	8002696 <I2S_IRQHandler+0x80>
 8002664:	6823      	ldr	r3, [r4, #0]
 8002666:	685a      	ldr	r2, [r3, #4]
 8002668:	0692      	lsls	r2, r2, #26
 800266a:	d514      	bpl.n	8002696 <I2S_IRQHandler+0x80>
 800266c:	685a      	ldr	r2, [r3, #4]
 800266e:	f022 0260 	bic.w	r2, r2, #96	; 0x60
 8002672:	605a      	str	r2, [r3, #4]
 8002674:	2200      	movs	r2, #0
 8002676:	9202      	str	r2, [sp, #8]
 8002678:	68da      	ldr	r2, [r3, #12]
 800267a:	9202      	str	r2, [sp, #8]
 800267c:	689b      	ldr	r3, [r3, #8]
 800267e:	9302      	str	r3, [sp, #8]
 8002680:	9b02      	ldr	r3, [sp, #8]
 8002682:	2301      	movs	r3, #1
 8002684:	f884 3041 	strb.w	r3, [r4, #65]	; 0x41
 8002688:	6c63      	ldr	r3, [r4, #68]	; 0x44
 800268a:	f043 0302 	orr.w	r3, r3, #2
 800268e:	6463      	str	r3, [r4, #68]	; 0x44
 8002690:	4620      	mov	r0, r4
 8002692:	f7ff ffbf 	bl	8002614 <HAL_I2S_ErrorCallback>
 8002696:	f894 3041 	ldrb.w	r3, [r4, #65]	; 0x41
 800269a:	2b03      	cmp	r3, #3
 800269c:	d136      	bne.n	800270c <I2S_IRQHandler+0xf6>
 800269e:	9b01      	ldr	r3, [sp, #4]
 80026a0:	079b      	lsls	r3, r3, #30
 80026a2:	d519      	bpl.n	80026d8 <I2S_IRQHandler+0xc2>
 80026a4:	6822      	ldr	r2, [r4, #0]
 80026a6:	6853      	ldr	r3, [r2, #4]
 80026a8:	0618      	lsls	r0, r3, #24
 80026aa:	d515      	bpl.n	80026d8 <I2S_IRQHandler+0xc2>
 80026ac:	6a63      	ldr	r3, [r4, #36]	; 0x24
 80026ae:	f833 1b02 	ldrh.w	r1, [r3], #2
 80026b2:	60d1      	str	r1, [r2, #12]
 80026b4:	6263      	str	r3, [r4, #36]	; 0x24
 80026b6:	8d63      	ldrh	r3, [r4, #42]	; 0x2a
 80026b8:	3b01      	subs	r3, #1
 80026ba:	b29b      	uxth	r3, r3
 80026bc:	8563      	strh	r3, [r4, #42]	; 0x2a
 80026be:	8d63      	ldrh	r3, [r4, #42]	; 0x2a
 80026c0:	b29b      	uxth	r3, r3
 80026c2:	b94b      	cbnz	r3, 80026d8 <I2S_IRQHandler+0xc2>
 80026c4:	6853      	ldr	r3, [r2, #4]
 80026c6:	f023 03a0 	bic.w	r3, r3, #160	; 0xa0
 80026ca:	6053      	str	r3, [r2, #4]
 80026cc:	2301      	movs	r3, #1
 80026ce:	f884 3041 	strb.w	r3, [r4, #65]	; 0x41
 80026d2:	4620      	mov	r0, r4
 80026d4:	f7ff ff9c 	bl	8002610 <HAL_I2S_TxCpltCallback>
 80026d8:	9b01      	ldr	r3, [sp, #4]
 80026da:	0719      	lsls	r1, r3, #28
 80026dc:	d516      	bpl.n	800270c <I2S_IRQHandler+0xf6>
 80026de:	6823      	ldr	r3, [r4, #0]
 80026e0:	685a      	ldr	r2, [r3, #4]
 80026e2:	0692      	lsls	r2, r2, #26
 80026e4:	d512      	bpl.n	800270c <I2S_IRQHandler+0xf6>
 80026e6:	685a      	ldr	r2, [r3, #4]
 80026e8:	f022 02a0 	bic.w	r2, r2, #160	; 0xa0
 80026ec:	605a      	str	r2, [r3, #4]
 80026ee:	2200      	movs	r2, #0
 80026f0:	9203      	str	r2, [sp, #12]
 80026f2:	689b      	ldr	r3, [r3, #8]
 80026f4:	9303      	str	r3, [sp, #12]
 80026f6:	9b03      	ldr	r3, [sp, #12]
 80026f8:	2301      	movs	r3, #1
 80026fa:	f884 3041 	strb.w	r3, [r4, #65]	; 0x41
 80026fe:	6c63      	ldr	r3, [r4, #68]	; 0x44
 8002700:	f043 0304 	orr.w	r3, r3, #4
 8002704:	6463      	str	r3, [r4, #68]	; 0x44
 8002706:	4620      	mov	r0, r4
 8002708:	f7ff ff84 	bl	8002614 <HAL_I2S_ErrorCallback>
 800270c:	b004      	add	sp, #16
 800270e:	bd10      	pop	{r4, pc}

08002710 <HAL_I2SEx_TxRxCpltCallback>:
 8002710:	4770      	bx	lr
	...

08002714 <HAL_I2SEx_FullDuplex_IRQHandler>:
 8002714:	b510      	push	{r4, lr}
 8002716:	6802      	ldr	r2, [r0, #0]
 8002718:	498e      	ldr	r1, [pc, #568]	; (8002954 <HAL_I2SEx_FullDuplex_IRQHandler+0x240>)
 800271a:	6893      	ldr	r3, [r2, #8]
 800271c:	b086      	sub	sp, #24
 800271e:	4604      	mov	r4, r0
 8002720:	9300      	str	r3, [sp, #0]
 8002722:	4b8d      	ldr	r3, [pc, #564]	; (8002958 <HAL_I2SEx_FullDuplex_IRQHandler+0x244>)
 8002724:	428a      	cmp	r2, r1
 8002726:	bf18      	it	ne
 8002728:	f04f 2340 	movne.w	r3, #1073758208	; 0x40004000
 800272c:	6899      	ldr	r1, [r3, #8]
 800272e:	9101      	str	r1, [sp, #4]
 8002730:	6851      	ldr	r1, [r2, #4]
 8002732:	9102      	str	r1, [sp, #8]
 8002734:	6859      	ldr	r1, [r3, #4]
 8002736:	9103      	str	r1, [sp, #12]
 8002738:	6841      	ldr	r1, [r0, #4]
 800273a:	f431 7100 	bics.w	r1, r1, #512	; 0x200
 800273e:	f040 8093 	bne.w	8002868 <HAL_I2SEx_FullDuplex_IRQHandler+0x154>
 8002742:	9b00      	ldr	r3, [sp, #0]
 8002744:	0799      	lsls	r1, r3, #30
 8002746:	d51a      	bpl.n	800277e <HAL_I2SEx_FullDuplex_IRQHandler+0x6a>
 8002748:	9b02      	ldr	r3, [sp, #8]
 800274a:	061b      	lsls	r3, r3, #24
 800274c:	d517      	bpl.n	800277e <HAL_I2SEx_FullDuplex_IRQHandler+0x6a>
 800274e:	6a43      	ldr	r3, [r0, #36]	; 0x24
 8002750:	1c99      	adds	r1, r3, #2
 8002752:	881b      	ldrh	r3, [r3, #0]
 8002754:	6241      	str	r1, [r0, #36]	; 0x24
 8002756:	60d3      	str	r3, [r2, #12]
 8002758:	8d43      	ldrh	r3, [r0, #42]	; 0x2a
 800275a:	3b01      	subs	r3, #1
 800275c:	b29b      	uxth	r3, r3
 800275e:	8543      	strh	r3, [r0, #42]	; 0x2a
 8002760:	8d43      	ldrh	r3, [r0, #42]	; 0x2a
 8002762:	b29b      	uxth	r3, r3
 8002764:	b95b      	cbnz	r3, 800277e <HAL_I2SEx_FullDuplex_IRQHandler+0x6a>
 8002766:	6853      	ldr	r3, [r2, #4]
 8002768:	f023 03a0 	bic.w	r3, r3, #160	; 0xa0
 800276c:	6053      	str	r3, [r2, #4]
 800276e:	8e43      	ldrh	r3, [r0, #50]	; 0x32
 8002770:	b29b      	uxth	r3, r3
 8002772:	b923      	cbnz	r3, 800277e <HAL_I2SEx_FullDuplex_IRQHandler+0x6a>
 8002774:	2301      	movs	r3, #1
 8002776:	f880 3041 	strb.w	r3, [r0, #65]	; 0x41
 800277a:	f7ff ffc9 	bl	8002710 <HAL_I2SEx_TxRxCpltCallback>
 800277e:	9b01      	ldr	r3, [sp, #4]
 8002780:	07d8      	lsls	r0, r3, #31
 8002782:	d522      	bpl.n	80027ca <HAL_I2SEx_FullDuplex_IRQHandler+0xb6>
 8002784:	9b03      	ldr	r3, [sp, #12]
 8002786:	0659      	lsls	r1, r3, #25
 8002788:	d51f      	bpl.n	80027ca <HAL_I2SEx_FullDuplex_IRQHandler+0xb6>
 800278a:	6821      	ldr	r1, [r4, #0]
 800278c:	4a71      	ldr	r2, [pc, #452]	; (8002954 <HAL_I2SEx_FullDuplex_IRQHandler+0x240>)
 800278e:	4b72      	ldr	r3, [pc, #456]	; (8002958 <HAL_I2SEx_FullDuplex_IRQHandler+0x244>)
 8002790:	4291      	cmp	r1, r2
 8002792:	bf18      	it	ne
 8002794:	f04f 2340 	movne.w	r3, #1073758208	; 0x40004000
 8002798:	6ae2      	ldr	r2, [r4, #44]	; 0x2c
 800279a:	68d9      	ldr	r1, [r3, #12]
 800279c:	1c90      	adds	r0, r2, #2
 800279e:	62e0      	str	r0, [r4, #44]	; 0x2c
 80027a0:	8011      	strh	r1, [r2, #0]
 80027a2:	8e62      	ldrh	r2, [r4, #50]	; 0x32
 80027a4:	3a01      	subs	r2, #1
 80027a6:	b292      	uxth	r2, r2
 80027a8:	8662      	strh	r2, [r4, #50]	; 0x32
 80027aa:	8e62      	ldrh	r2, [r4, #50]	; 0x32
 80027ac:	b292      	uxth	r2, r2
 80027ae:	b962      	cbnz	r2, 80027ca <HAL_I2SEx_FullDuplex_IRQHandler+0xb6>
 80027b0:	685a      	ldr	r2, [r3, #4]
 80027b2:	f022 0260 	bic.w	r2, r2, #96	; 0x60
 80027b6:	605a      	str	r2, [r3, #4]
 80027b8:	8d63      	ldrh	r3, [r4, #42]	; 0x2a
 80027ba:	b29b      	uxth	r3, r3
 80027bc:	b92b      	cbnz	r3, 80027ca <HAL_I2SEx_FullDuplex_IRQHandler+0xb6>
 80027be:	2301      	movs	r3, #1
 80027c0:	f884 3041 	strb.w	r3, [r4, #65]	; 0x41
 80027c4:	4620      	mov	r0, r4
 80027c6:	f7ff ffa3 	bl	8002710 <HAL_I2SEx_TxRxCpltCallback>
 80027ca:	9b01      	ldr	r3, [sp, #4]
 80027cc:	065a      	lsls	r2, r3, #25
 80027ce:	d522      	bpl.n	8002816 <HAL_I2SEx_FullDuplex_IRQHandler+0x102>
 80027d0:	9b03      	ldr	r3, [sp, #12]
 80027d2:	069b      	lsls	r3, r3, #26
 80027d4:	d51f      	bpl.n	8002816 <HAL_I2SEx_FullDuplex_IRQHandler+0x102>
 80027d6:	6823      	ldr	r3, [r4, #0]
 80027d8:	495e      	ldr	r1, [pc, #376]	; (8002954 <HAL_I2SEx_FullDuplex_IRQHandler+0x240>)
 80027da:	4a5f      	ldr	r2, [pc, #380]	; (8002958 <HAL_I2SEx_FullDuplex_IRQHandler+0x244>)
 80027dc:	428b      	cmp	r3, r1
 80027de:	bf18      	it	ne
 80027e0:	f04f 2240 	movne.w	r2, #1073758208	; 0x40004000
 80027e4:	4620      	mov	r0, r4
 80027e6:	6851      	ldr	r1, [r2, #4]
 80027e8:	f021 0160 	bic.w	r1, r1, #96	; 0x60
 80027ec:	6051      	str	r1, [r2, #4]
 80027ee:	685a      	ldr	r2, [r3, #4]
 80027f0:	f022 02a0 	bic.w	r2, r2, #160	; 0xa0
 80027f4:	605a      	str	r2, [r3, #4]
 80027f6:	2200      	movs	r2, #0
 80027f8:	9204      	str	r2, [sp, #16]
 80027fa:	68da      	ldr	r2, [r3, #12]
 80027fc:	9204      	str	r2, [sp, #16]
 80027fe:	689b      	ldr	r3, [r3, #8]
 8002800:	9304      	str	r3, [sp, #16]
 8002802:	9b04      	ldr	r3, [sp, #16]
 8002804:	2301      	movs	r3, #1
 8002806:	f884 3041 	strb.w	r3, [r4, #65]	; 0x41
 800280a:	6c63      	ldr	r3, [r4, #68]	; 0x44
 800280c:	f043 0302 	orr.w	r3, r3, #2
 8002810:	6463      	str	r3, [r4, #68]	; 0x44
 8002812:	f7ff feff 	bl	8002614 <HAL_I2S_ErrorCallback>
 8002816:	9b00      	ldr	r3, [sp, #0]
 8002818:	0718      	lsls	r0, r3, #28
 800281a:	f140 8098 	bpl.w	800294e <HAL_I2SEx_FullDuplex_IRQHandler+0x23a>
 800281e:	9b02      	ldr	r3, [sp, #8]
 8002820:	0699      	lsls	r1, r3, #26
 8002822:	f140 8094 	bpl.w	800294e <HAL_I2SEx_FullDuplex_IRQHandler+0x23a>
 8002826:	6823      	ldr	r3, [r4, #0]
 8002828:	494a      	ldr	r1, [pc, #296]	; (8002954 <HAL_I2SEx_FullDuplex_IRQHandler+0x240>)
 800282a:	685a      	ldr	r2, [r3, #4]
 800282c:	f022 02a0 	bic.w	r2, r2, #160	; 0xa0
 8002830:	605a      	str	r2, [r3, #4]
 8002832:	4a49      	ldr	r2, [pc, #292]	; (8002958 <HAL_I2SEx_FullDuplex_IRQHandler+0x244>)
 8002834:	428b      	cmp	r3, r1
 8002836:	bf18      	it	ne
 8002838:	f04f 2240 	movne.w	r2, #1073758208	; 0x40004000
 800283c:	6851      	ldr	r1, [r2, #4]
 800283e:	f021 0160 	bic.w	r1, r1, #96	; 0x60
 8002842:	6051      	str	r1, [r2, #4]
 8002844:	2200      	movs	r2, #0
 8002846:	9205      	str	r2, [sp, #20]
 8002848:	689b      	ldr	r3, [r3, #8]
 800284a:	9305      	str	r3, [sp, #20]
 800284c:	9b05      	ldr	r3, [sp, #20]
 800284e:	2301      	movs	r3, #1
 8002850:	f884 3041 	strb.w	r3, [r4, #65]	; 0x41
 8002854:	6c63      	ldr	r3, [r4, #68]	; 0x44
 8002856:	4620      	mov	r0, r4
 8002858:	f043 0304 	orr.w	r3, r3, #4
 800285c:	6463      	str	r3, [r4, #68]	; 0x44
 800285e:	b006      	add	sp, #24
 8002860:	e8bd 4010 	ldmia.w	sp!, {r4, lr}
 8002864:	f7ff bed6 	b.w	8002614 <HAL_I2S_ErrorCallback>
 8002868:	9a01      	ldr	r2, [sp, #4]
 800286a:	0792      	lsls	r2, r2, #30
 800286c:	d51a      	bpl.n	80028a4 <HAL_I2SEx_FullDuplex_IRQHandler+0x190>
 800286e:	9a03      	ldr	r2, [sp, #12]
 8002870:	0611      	lsls	r1, r2, #24
 8002872:	d517      	bpl.n	80028a4 <HAL_I2SEx_FullDuplex_IRQHandler+0x190>
 8002874:	6a42      	ldr	r2, [r0, #36]	; 0x24
 8002876:	1c91      	adds	r1, r2, #2
 8002878:	8812      	ldrh	r2, [r2, #0]
 800287a:	6241      	str	r1, [r0, #36]	; 0x24
 800287c:	60da      	str	r2, [r3, #12]
 800287e:	8d42      	ldrh	r2, [r0, #42]	; 0x2a
 8002880:	3a01      	subs	r2, #1
 8002882:	b292      	uxth	r2, r2
 8002884:	8542      	strh	r2, [r0, #42]	; 0x2a
 8002886:	8d42      	ldrh	r2, [r0, #42]	; 0x2a
 8002888:	b292      	uxth	r2, r2
 800288a:	b95a      	cbnz	r2, 80028a4 <HAL_I2SEx_FullDuplex_IRQHandler+0x190>
 800288c:	685a      	ldr	r2, [r3, #4]
 800288e:	f022 02a0 	bic.w	r2, r2, #160	; 0xa0
 8002892:	605a      	str	r2, [r3, #4]
 8002894:	8e43      	ldrh	r3, [r0, #50]	; 0x32
 8002896:	b29b      	uxth	r3, r3
 8002898:	b923      	cbnz	r3, 80028a4 <HAL_I2SEx_FullDuplex_IRQHandler+0x190>
 800289a:	2301      	movs	r3, #1
 800289c:	f880 3041 	strb.w	r3, [r0, #65]	; 0x41
 80028a0:	f7ff ff36 	bl	8002710 <HAL_I2SEx_TxRxCpltCallback>
 80028a4:	9b00      	ldr	r3, [sp, #0]
 80028a6:	07da      	lsls	r2, r3, #31
 80028a8:	d51c      	bpl.n	80028e4 <HAL_I2SEx_FullDuplex_IRQHandler+0x1d0>
 80028aa:	9b02      	ldr	r3, [sp, #8]
 80028ac:	065b      	lsls	r3, r3, #25
 80028ae:	d519      	bpl.n	80028e4 <HAL_I2SEx_FullDuplex_IRQHandler+0x1d0>
 80028b0:	6ae3      	ldr	r3, [r4, #44]	; 0x2c
 80028b2:	6822      	ldr	r2, [r4, #0]
 80028b4:	1c98      	adds	r0, r3, #2
 80028b6:	68d1      	ldr	r1, [r2, #12]
 80028b8:	62e0      	str	r0, [r4, #44]	; 0x2c
 80028ba:	8019      	strh	r1, [r3, #0]
 80028bc:	8e63      	ldrh	r3, [r4, #50]	; 0x32
 80028be:	3b01      	subs	r3, #1
 80028c0:	b29b      	uxth	r3, r3
 80028c2:	8663      	strh	r3, [r4, #50]	; 0x32
 80028c4:	8e63      	ldrh	r3, [r4, #50]	; 0x32
 80028c6:	b29b      	uxth	r3, r3
 80028c8:	b963      	cbnz	r3, 80028e4 <HAL_I2SEx_FullDuplex_IRQHandler+0x1d0>
 80028ca:	6853      	ldr	r3, [r2, #4]
 80028cc:	f023 0360 	bic.w	r3, r3, #96	; 0x60
 80028d0:	6053      	str	r3, [r2, #4]
 80028d2:	8d63      	ldrh	r3, [r4, #42]	; 0x2a
 80028d4:	b29b      	uxth	r3, r3
 80028d6:	b92b      	cbnz	r3, 80028e4 <HAL_I2SEx_FullDuplex_IRQHandler+0x1d0>
 80028d8:	2301      	movs	r3, #1
 80028da:	f884 3041 	strb.w	r3, [r4, #65]	; 0x41
 80028de:	4620      	mov	r0, r4
 80028e0:	f7ff ff16 	bl	8002710 <HAL_I2SEx_TxRxCpltCallback>
 80028e4:	9b00      	ldr	r3, [sp, #0]
 80028e6:	0658      	lsls	r0, r3, #25
 80028e8:	d51b      	bpl.n	8002922 <HAL_I2SEx_FullDuplex_IRQHandler+0x20e>
 80028ea:	9b02      	ldr	r3, [sp, #8]
 80028ec:	0699      	lsls	r1, r3, #26
 80028ee:	d518      	bpl.n	8002922 <HAL_I2SEx_FullDuplex_IRQHandler+0x20e>
 80028f0:	6822      	ldr	r2, [r4, #0]
 80028f2:	4918      	ldr	r1, [pc, #96]	; (8002954 <HAL_I2SEx_FullDuplex_IRQHandler+0x240>)
 80028f4:	6853      	ldr	r3, [r2, #4]
 80028f6:	f023 0360 	bic.w	r3, r3, #96	; 0x60
 80028fa:	6053      	str	r3, [r2, #4]
 80028fc:	4b16      	ldr	r3, [pc, #88]	; (8002958 <HAL_I2SEx_FullDuplex_IRQHandler+0x244>)
 80028fe:	428a      	cmp	r2, r1
 8002900:	bf18      	it	ne
 8002902:	f04f 2340 	movne.w	r3, #1073758208	; 0x40004000
 8002906:	4620      	mov	r0, r4
 8002908:	685a      	ldr	r2, [r3, #4]
 800290a:	f022 02a0 	bic.w	r2, r2, #160	; 0xa0
 800290e:	605a      	str	r2, [r3, #4]
 8002910:	2301      	movs	r3, #1
 8002912:	f884 3041 	strb.w	r3, [r4, #65]	; 0x41
 8002916:	6c63      	ldr	r3, [r4, #68]	; 0x44
 8002918:	f043 0302 	orr.w	r3, r3, #2
 800291c:	6463      	str	r3, [r4, #68]	; 0x44
 800291e:	f7ff fe79 	bl	8002614 <HAL_I2S_ErrorCallback>
 8002922:	9b01      	ldr	r3, [sp, #4]
 8002924:	071a      	lsls	r2, r3, #28
 8002926:	d512      	bpl.n	800294e <HAL_I2SEx_FullDuplex_IRQHandler+0x23a>
 8002928:	9b03      	ldr	r3, [sp, #12]
 800292a:	069b      	lsls	r3, r3, #26
 800292c:	d50f      	bpl.n	800294e <HAL_I2SEx_FullDuplex_IRQHandler+0x23a>
 800292e:	6822      	ldr	r2, [r4, #0]
 8002930:	4908      	ldr	r1, [pc, #32]	; (8002954 <HAL_I2SEx_FullDuplex_IRQHandler+0x240>)
 8002932:	4b09      	ldr	r3, [pc, #36]	; (8002958 <HAL_I2SEx_FullDuplex_IRQHandler+0x244>)
 8002934:	428a      	cmp	r2, r1
 8002936:	bf18      	it	ne
 8002938:	f04f 2340 	movne.w	r3, #1073758208	; 0x40004000
 800293c:	6859      	ldr	r1, [r3, #4]
 800293e:	f021 01a0 	bic.w	r1, r1, #160	; 0xa0
 8002942:	6059      	str	r1, [r3, #4]
 8002944:	6853      	ldr	r3, [r2, #4]
 8002946:	f023 0360 	bic.w	r3, r3, #96	; 0x60
 800294a:	6053      	str	r3, [r2, #4]
 800294c:	e77f      	b.n	800284e <HAL_I2SEx_FullDuplex_IRQHandler+0x13a>
 800294e:	b006      	add	sp, #24
 8002950:	bd10      	pop	{r4, pc}
 8002952:	bf00      	nop
 8002954:	40003800 	.word	0x40003800
 8002958:	40003400 	.word	0x40003400

0800295c <HAL_RCC_OscConfig>:
 800295c:	e92d 41f3 	stmdb	sp!, {r0, r1, r4, r5, r6, r7, r8, lr}
 8002960:	4604      	mov	r4, r0
 8002962:	b340      	cbz	r0, 80029b6 <HAL_RCC_OscConfig+0x5a>
 8002964:	6803      	ldr	r3, [r0, #0]
 8002966:	07dd      	lsls	r5, r3, #31
 8002968:	d410      	bmi.n	800298c <HAL_RCC_OscConfig+0x30>
 800296a:	6823      	ldr	r3, [r4, #0]
 800296c:	0798      	lsls	r0, r3, #30
 800296e:	d45e      	bmi.n	8002a2e <HAL_RCC_OscConfig+0xd2>
 8002970:	6823      	ldr	r3, [r4, #0]
 8002972:	071a      	lsls	r2, r3, #28
 8002974:	f100 80a0 	bmi.w	8002ab8 <HAL_RCC_OscConfig+0x15c>
 8002978:	6823      	ldr	r3, [r4, #0]
 800297a:	075b      	lsls	r3, r3, #29
 800297c:	f100 80be 	bmi.w	8002afc <HAL_RCC_OscConfig+0x1a0>
 8002980:	69a0      	ldr	r0, [r4, #24]
 8002982:	2800      	cmp	r0, #0
 8002984:	f040 811f 	bne.w	8002bc6 <HAL_RCC_OscConfig+0x26a>
 8002988:	2000      	movs	r0, #0
 800298a:	e02b      	b.n	80029e4 <HAL_RCC_OscConfig+0x88>
 800298c:	4ba6      	ldr	r3, [pc, #664]	; (8002c28 <HAL_RCC_OscConfig+0x2cc>)
 800298e:	689a      	ldr	r2, [r3, #8]
 8002990:	f002 020c 	and.w	r2, r2, #12
 8002994:	2a04      	cmp	r2, #4
 8002996:	d007      	beq.n	80029a8 <HAL_RCC_OscConfig+0x4c>
 8002998:	689a      	ldr	r2, [r3, #8]
 800299a:	f002 020c 	and.w	r2, r2, #12
 800299e:	2a08      	cmp	r2, #8
 80029a0:	d10b      	bne.n	80029ba <HAL_RCC_OscConfig+0x5e>
 80029a2:	685a      	ldr	r2, [r3, #4]
 80029a4:	0251      	lsls	r1, r2, #9
 80029a6:	d508      	bpl.n	80029ba <HAL_RCC_OscConfig+0x5e>
 80029a8:	4b9f      	ldr	r3, [pc, #636]	; (8002c28 <HAL_RCC_OscConfig+0x2cc>)
 80029aa:	681b      	ldr	r3, [r3, #0]
 80029ac:	039a      	lsls	r2, r3, #14
 80029ae:	d5dc      	bpl.n	800296a <HAL_RCC_OscConfig+0xe>
 80029b0:	6863      	ldr	r3, [r4, #4]
 80029b2:	2b00      	cmp	r3, #0
 80029b4:	d1d9      	bne.n	800296a <HAL_RCC_OscConfig+0xe>
 80029b6:	2001      	movs	r0, #1
 80029b8:	e014      	b.n	80029e4 <HAL_RCC_OscConfig+0x88>
 80029ba:	6862      	ldr	r2, [r4, #4]
 80029bc:	f5b2 3f80 	cmp.w	r2, #65536	; 0x10000
 80029c0:	d113      	bne.n	80029ea <HAL_RCC_OscConfig+0x8e>
 80029c2:	681a      	ldr	r2, [r3, #0]
 80029c4:	f442 3280 	orr.w	r2, r2, #65536	; 0x10000
 80029c8:	601a      	str	r2, [r3, #0]
 80029ca:	f7fe ffcf 	bl	800196c <HAL_GetTick>
 80029ce:	4e96      	ldr	r6, [pc, #600]	; (8002c28 <HAL_RCC_OscConfig+0x2cc>)
 80029d0:	4605      	mov	r5, r0
 80029d2:	6833      	ldr	r3, [r6, #0]
 80029d4:	039b      	lsls	r3, r3, #14
 80029d6:	d4c8      	bmi.n	800296a <HAL_RCC_OscConfig+0xe>
 80029d8:	f7fe ffc8 	bl	800196c <HAL_GetTick>
 80029dc:	1b40      	subs	r0, r0, r5
 80029de:	2864      	cmp	r0, #100	; 0x64
 80029e0:	d9f7      	bls.n	80029d2 <HAL_RCC_OscConfig+0x76>
 80029e2:	2003      	movs	r0, #3
 80029e4:	b002      	add	sp, #8
 80029e6:	e8bd 81f0 	ldmia.w	sp!, {r4, r5, r6, r7, r8, pc}
 80029ea:	4d8f      	ldr	r5, [pc, #572]	; (8002c28 <HAL_RCC_OscConfig+0x2cc>)
 80029ec:	f5b2 2fa0 	cmp.w	r2, #327680	; 0x50000
 80029f0:	682b      	ldr	r3, [r5, #0]
 80029f2:	d107      	bne.n	8002a04 <HAL_RCC_OscConfig+0xa8>
 80029f4:	f443 2380 	orr.w	r3, r3, #262144	; 0x40000
 80029f8:	602b      	str	r3, [r5, #0]
 80029fa:	682b      	ldr	r3, [r5, #0]
 80029fc:	f443 3380 	orr.w	r3, r3, #65536	; 0x10000
 8002a00:	602b      	str	r3, [r5, #0]
 8002a02:	e7e2      	b.n	80029ca <HAL_RCC_OscConfig+0x6e>
 8002a04:	f423 3380 	bic.w	r3, r3, #65536	; 0x10000
 8002a08:	602b      	str	r3, [r5, #0]
 8002a0a:	682b      	ldr	r3, [r5, #0]
 8002a0c:	f423 2380 	bic.w	r3, r3, #262144	; 0x40000
 8002a10:	602b      	str	r3, [r5, #0]
 8002a12:	2a00      	cmp	r2, #0
 8002a14:	d1d9      	bne.n	80029ca <HAL_RCC_OscConfig+0x6e>
 8002a16:	f7fe ffa9 	bl	800196c <HAL_GetTick>
 8002a1a:	4606      	mov	r6, r0
 8002a1c:	682b      	ldr	r3, [r5, #0]
 8002a1e:	039f      	lsls	r7, r3, #14
 8002a20:	d5a3      	bpl.n	800296a <HAL_RCC_OscConfig+0xe>
 8002a22:	f7fe ffa3 	bl	800196c <HAL_GetTick>
 8002a26:	1b80      	subs	r0, r0, r6
 8002a28:	2864      	cmp	r0, #100	; 0x64
 8002a2a:	d9f7      	bls.n	8002a1c <HAL_RCC_OscConfig+0xc0>
 8002a2c:	e7d9      	b.n	80029e2 <HAL_RCC_OscConfig+0x86>
 8002a2e:	4b7e      	ldr	r3, [pc, #504]	; (8002c28 <HAL_RCC_OscConfig+0x2cc>)
 8002a30:	689a      	ldr	r2, [r3, #8]
 8002a32:	f012 0f0c 	tst.w	r2, #12
 8002a36:	d007      	beq.n	8002a48 <HAL_RCC_OscConfig+0xec>
 8002a38:	689a      	ldr	r2, [r3, #8]
 8002a3a:	f002 020c 	and.w	r2, r2, #12
 8002a3e:	2a08      	cmp	r2, #8
 8002a40:	d111      	bne.n	8002a66 <HAL_RCC_OscConfig+0x10a>
 8002a42:	685b      	ldr	r3, [r3, #4]
 8002a44:	025e      	lsls	r6, r3, #9
 8002a46:	d40e      	bmi.n	8002a66 <HAL_RCC_OscConfig+0x10a>
 8002a48:	4b77      	ldr	r3, [pc, #476]	; (8002c28 <HAL_RCC_OscConfig+0x2cc>)
 8002a4a:	681a      	ldr	r2, [r3, #0]
 8002a4c:	0795      	lsls	r5, r2, #30
 8002a4e:	d502      	bpl.n	8002a56 <HAL_RCC_OscConfig+0xfa>
 8002a50:	68e2      	ldr	r2, [r4, #12]
 8002a52:	2a01      	cmp	r2, #1
 8002a54:	d1af      	bne.n	80029b6 <HAL_RCC_OscConfig+0x5a>
 8002a56:	681a      	ldr	r2, [r3, #0]
 8002a58:	6921      	ldr	r1, [r4, #16]
 8002a5a:	f022 02f8 	bic.w	r2, r2, #248	; 0xf8
 8002a5e:	ea42 02c1 	orr.w	r2, r2, r1, lsl #3
 8002a62:	601a      	str	r2, [r3, #0]
 8002a64:	e784      	b.n	8002970 <HAL_RCC_OscConfig+0x14>
 8002a66:	68e2      	ldr	r2, [r4, #12]
 8002a68:	4b70      	ldr	r3, [pc, #448]	; (8002c2c <HAL_RCC_OscConfig+0x2d0>)
 8002a6a:	b1b2      	cbz	r2, 8002a9a <HAL_RCC_OscConfig+0x13e>
 8002a6c:	2201      	movs	r2, #1
 8002a6e:	601a      	str	r2, [r3, #0]
 8002a70:	f7fe ff7c 	bl	800196c <HAL_GetTick>
 8002a74:	4d6c      	ldr	r5, [pc, #432]	; (8002c28 <HAL_RCC_OscConfig+0x2cc>)
 8002a76:	4606      	mov	r6, r0
 8002a78:	682b      	ldr	r3, [r5, #0]
 8002a7a:	0798      	lsls	r0, r3, #30
 8002a7c:	d507      	bpl.n	8002a8e <HAL_RCC_OscConfig+0x132>
 8002a7e:	682b      	ldr	r3, [r5, #0]
 8002a80:	6922      	ldr	r2, [r4, #16]
 8002a82:	f023 03f8 	bic.w	r3, r3, #248	; 0xf8
 8002a86:	ea43 03c2 	orr.w	r3, r3, r2, lsl #3
 8002a8a:	602b      	str	r3, [r5, #0]
 8002a8c:	e770      	b.n	8002970 <HAL_RCC_OscConfig+0x14>
 8002a8e:	f7fe ff6d 	bl	800196c <HAL_GetTick>
 8002a92:	1b80      	subs	r0, r0, r6
 8002a94:	2802      	cmp	r0, #2
 8002a96:	d9ef      	bls.n	8002a78 <HAL_RCC_OscConfig+0x11c>
 8002a98:	e7a3      	b.n	80029e2 <HAL_RCC_OscConfig+0x86>
 8002a9a:	601a      	str	r2, [r3, #0]
 8002a9c:	f7fe ff66 	bl	800196c <HAL_GetTick>
 8002aa0:	4e61      	ldr	r6, [pc, #388]	; (8002c28 <HAL_RCC_OscConfig+0x2cc>)
 8002aa2:	4605      	mov	r5, r0
 8002aa4:	6833      	ldr	r3, [r6, #0]
 8002aa6:	0799      	lsls	r1, r3, #30
 8002aa8:	f57f af62 	bpl.w	8002970 <HAL_RCC_OscConfig+0x14>
 8002aac:	f7fe ff5e 	bl	800196c <HAL_GetTick>
 8002ab0:	1b40      	subs	r0, r0, r5
 8002ab2:	2802      	cmp	r0, #2
 8002ab4:	d9f6      	bls.n	8002aa4 <HAL_RCC_OscConfig+0x148>
 8002ab6:	e794      	b.n	80029e2 <HAL_RCC_OscConfig+0x86>
 8002ab8:	6962      	ldr	r2, [r4, #20]
 8002aba:	4b5d      	ldr	r3, [pc, #372]	; (8002c30 <HAL_RCC_OscConfig+0x2d4>)
 8002abc:	b17a      	cbz	r2, 8002ade <HAL_RCC_OscConfig+0x182>
 8002abe:	2201      	movs	r2, #1
 8002ac0:	601a      	str	r2, [r3, #0]
 8002ac2:	f7fe ff53 	bl	800196c <HAL_GetTick>
 8002ac6:	4e58      	ldr	r6, [pc, #352]	; (8002c28 <HAL_RCC_OscConfig+0x2cc>)
 8002ac8:	4605      	mov	r5, r0
 8002aca:	6f73      	ldr	r3, [r6, #116]	; 0x74
 8002acc:	079f      	lsls	r7, r3, #30
 8002ace:	f53f af53 	bmi.w	8002978 <HAL_RCC_OscConfig+0x1c>
 8002ad2:	f7fe ff4b 	bl	800196c <HAL_GetTick>
 8002ad6:	1b40      	subs	r0, r0, r5
 8002ad8:	2802      	cmp	r0, #2
 8002ada:	d9f6      	bls.n	8002aca <HAL_RCC_OscConfig+0x16e>
 8002adc:	e781      	b.n	80029e2 <HAL_RCC_OscConfig+0x86>
 8002ade:	601a      	str	r2, [r3, #0]
 8002ae0:	f7fe ff44 	bl	800196c <HAL_GetTick>
 8002ae4:	4e50      	ldr	r6, [pc, #320]	; (8002c28 <HAL_RCC_OscConfig+0x2cc>)
 8002ae6:	4605      	mov	r5, r0
 8002ae8:	6f73      	ldr	r3, [r6, #116]	; 0x74
 8002aea:	0798      	lsls	r0, r3, #30
 8002aec:	f57f af44 	bpl.w	8002978 <HAL_RCC_OscConfig+0x1c>
 8002af0:	f7fe ff3c 	bl	800196c <HAL_GetTick>
 8002af4:	1b40      	subs	r0, r0, r5
 8002af6:	2802      	cmp	r0, #2
 8002af8:	d9f6      	bls.n	8002ae8 <HAL_RCC_OscConfig+0x18c>
 8002afa:	e772      	b.n	80029e2 <HAL_RCC_OscConfig+0x86>
 8002afc:	4b4a      	ldr	r3, [pc, #296]	; (8002c28 <HAL_RCC_OscConfig+0x2cc>)
 8002afe:	6c1a      	ldr	r2, [r3, #64]	; 0x40
 8002b00:	f012 5280 	ands.w	r2, r2, #268435456	; 0x10000000
 8002b04:	d128      	bne.n	8002b58 <HAL_RCC_OscConfig+0x1fc>
 8002b06:	9201      	str	r2, [sp, #4]
 8002b08:	6c1a      	ldr	r2, [r3, #64]	; 0x40
 8002b0a:	f042 5280 	orr.w	r2, r2, #268435456	; 0x10000000
 8002b0e:	641a      	str	r2, [r3, #64]	; 0x40
 8002b10:	6c1b      	ldr	r3, [r3, #64]	; 0x40
 8002b12:	f003 5380 	and.w	r3, r3, #268435456	; 0x10000000
 8002b16:	9301      	str	r3, [sp, #4]
 8002b18:	9b01      	ldr	r3, [sp, #4]
 8002b1a:	2701      	movs	r7, #1
 8002b1c:	4d45      	ldr	r5, [pc, #276]	; (8002c34 <HAL_RCC_OscConfig+0x2d8>)
 8002b1e:	682b      	ldr	r3, [r5, #0]
 8002b20:	05d9      	lsls	r1, r3, #23
 8002b22:	d51b      	bpl.n	8002b5c <HAL_RCC_OscConfig+0x200>
 8002b24:	68a3      	ldr	r3, [r4, #8]
 8002b26:	4d40      	ldr	r5, [pc, #256]	; (8002c28 <HAL_RCC_OscConfig+0x2cc>)
 8002b28:	2b01      	cmp	r3, #1
 8002b2a:	d127      	bne.n	8002b7c <HAL_RCC_OscConfig+0x220>
 8002b2c:	6f2b      	ldr	r3, [r5, #112]	; 0x70
 8002b2e:	f043 0301 	orr.w	r3, r3, #1
 8002b32:	672b      	str	r3, [r5, #112]	; 0x70
 8002b34:	f7fe ff1a 	bl	800196c <HAL_GetTick>
 8002b38:	4e3b      	ldr	r6, [pc, #236]	; (8002c28 <HAL_RCC_OscConfig+0x2cc>)
 8002b3a:	4605      	mov	r5, r0
 8002b3c:	f241 3888 	movw	r8, #5000	; 0x1388
 8002b40:	6f33      	ldr	r3, [r6, #112]	; 0x70
 8002b42:	079b      	lsls	r3, r3, #30
 8002b44:	d539      	bpl.n	8002bba <HAL_RCC_OscConfig+0x25e>
 8002b46:	2f00      	cmp	r7, #0
 8002b48:	f43f af1a 	beq.w	8002980 <HAL_RCC_OscConfig+0x24>
 8002b4c:	4a36      	ldr	r2, [pc, #216]	; (8002c28 <HAL_RCC_OscConfig+0x2cc>)
 8002b4e:	6c13      	ldr	r3, [r2, #64]	; 0x40
 8002b50:	f023 5380 	bic.w	r3, r3, #268435456	; 0x10000000
 8002b54:	6413      	str	r3, [r2, #64]	; 0x40
 8002b56:	e713      	b.n	8002980 <HAL_RCC_OscConfig+0x24>
 8002b58:	2700      	movs	r7, #0
 8002b5a:	e7df      	b.n	8002b1c <HAL_RCC_OscConfig+0x1c0>
 8002b5c:	682b      	ldr	r3, [r5, #0]
 8002b5e:	f443 7380 	orr.w	r3, r3, #256	; 0x100
 8002b62:	602b      	str	r3, [r5, #0]
 8002b64:	f7fe ff02 	bl	800196c <HAL_GetTick>
 8002b68:	4606      	mov	r6, r0
 8002b6a:	682b      	ldr	r3, [r5, #0]
 8002b6c:	05da      	lsls	r2, r3, #23
 8002b6e:	d4d9      	bmi.n	8002b24 <HAL_RCC_OscConfig+0x1c8>
 8002b70:	f7fe fefc 	bl	800196c <HAL_GetTick>
 8002b74:	1b80      	subs	r0, r0, r6
 8002b76:	2802      	cmp	r0, #2
 8002b78:	d9f7      	bls.n	8002b6a <HAL_RCC_OscConfig+0x20e>
 8002b7a:	e732      	b.n	80029e2 <HAL_RCC_OscConfig+0x86>
 8002b7c:	2b05      	cmp	r3, #5
 8002b7e:	d104      	bne.n	8002b8a <HAL_RCC_OscConfig+0x22e>
 8002b80:	6f2b      	ldr	r3, [r5, #112]	; 0x70
 8002b82:	f043 0304 	orr.w	r3, r3, #4
 8002b86:	672b      	str	r3, [r5, #112]	; 0x70
 8002b88:	e7d0      	b.n	8002b2c <HAL_RCC_OscConfig+0x1d0>
 8002b8a:	6f2a      	ldr	r2, [r5, #112]	; 0x70
 8002b8c:	f022 0201 	bic.w	r2, r2, #1
 8002b90:	672a      	str	r2, [r5, #112]	; 0x70
 8002b92:	6f2a      	ldr	r2, [r5, #112]	; 0x70
 8002b94:	f022 0204 	bic.w	r2, r2, #4
 8002b98:	672a      	str	r2, [r5, #112]	; 0x70
 8002b9a:	2b00      	cmp	r3, #0
 8002b9c:	d1ca      	bne.n	8002b34 <HAL_RCC_OscConfig+0x1d8>
 8002b9e:	f7fe fee5 	bl	800196c <HAL_GetTick>
 8002ba2:	f241 3888 	movw	r8, #5000	; 0x1388
 8002ba6:	4606      	mov	r6, r0
 8002ba8:	6f2b      	ldr	r3, [r5, #112]	; 0x70
 8002baa:	0798      	lsls	r0, r3, #30
 8002bac:	d5cb      	bpl.n	8002b46 <HAL_RCC_OscConfig+0x1ea>
 8002bae:	f7fe fedd 	bl	800196c <HAL_GetTick>
 8002bb2:	1b80      	subs	r0, r0, r6
 8002bb4:	4540      	cmp	r0, r8
 8002bb6:	d9f7      	bls.n	8002ba8 <HAL_RCC_OscConfig+0x24c>
 8002bb8:	e713      	b.n	80029e2 <HAL_RCC_OscConfig+0x86>
 8002bba:	f7fe fed7 	bl	800196c <HAL_GetTick>
 8002bbe:	1b40      	subs	r0, r0, r5
 8002bc0:	4540      	cmp	r0, r8
 8002bc2:	d9bd      	bls.n	8002b40 <HAL_RCC_OscConfig+0x1e4>
 8002bc4:	e70d      	b.n	80029e2 <HAL_RCC_OscConfig+0x86>
 8002bc6:	4d18      	ldr	r5, [pc, #96]	; (8002c28 <HAL_RCC_OscConfig+0x2cc>)
 8002bc8:	68ab      	ldr	r3, [r5, #8]
 8002bca:	f003 030c 	and.w	r3, r3, #12
 8002bce:	2b08      	cmp	r3, #8
 8002bd0:	d047      	beq.n	8002c62 <HAL_RCC_OscConfig+0x306>
 8002bd2:	4e19      	ldr	r6, [pc, #100]	; (8002c38 <HAL_RCC_OscConfig+0x2dc>)
 8002bd4:	2300      	movs	r3, #0
 8002bd6:	2802      	cmp	r0, #2
 8002bd8:	6033      	str	r3, [r6, #0]
 8002bda:	d135      	bne.n	8002c48 <HAL_RCC_OscConfig+0x2ec>
 8002bdc:	f7fe fec6 	bl	800196c <HAL_GetTick>
 8002be0:	4607      	mov	r7, r0
 8002be2:	682b      	ldr	r3, [r5, #0]
 8002be4:	0199      	lsls	r1, r3, #6
 8002be6:	d429      	bmi.n	8002c3c <HAL_RCC_OscConfig+0x2e0>
 8002be8:	e9d4 3207 	ldrd	r3, r2, [r4, #28]
 8002bec:	4313      	orrs	r3, r2
 8002bee:	6a62      	ldr	r2, [r4, #36]	; 0x24
 8002bf0:	ea43 1382 	orr.w	r3, r3, r2, lsl #6
 8002bf4:	6ae2      	ldr	r2, [r4, #44]	; 0x2c
 8002bf6:	ea43 6302 	orr.w	r3, r3, r2, lsl #24
 8002bfa:	6aa2      	ldr	r2, [r4, #40]	; 0x28
 8002bfc:	0852      	lsrs	r2, r2, #1
 8002bfe:	3a01      	subs	r2, #1
 8002c00:	ea43 4302 	orr.w	r3, r3, r2, lsl #16
 8002c04:	606b      	str	r3, [r5, #4]
 8002c06:	2301      	movs	r3, #1
 8002c08:	6033      	str	r3, [r6, #0]
 8002c0a:	f7fe feaf 	bl	800196c <HAL_GetTick>
 8002c0e:	4d06      	ldr	r5, [pc, #24]	; (8002c28 <HAL_RCC_OscConfig+0x2cc>)
 8002c10:	4604      	mov	r4, r0
 8002c12:	682b      	ldr	r3, [r5, #0]
 8002c14:	019a      	lsls	r2, r3, #6
 8002c16:	f53f aeb7 	bmi.w	8002988 <HAL_RCC_OscConfig+0x2c>
 8002c1a:	f7fe fea7 	bl	800196c <HAL_GetTick>
 8002c1e:	1b00      	subs	r0, r0, r4
 8002c20:	2802      	cmp	r0, #2
 8002c22:	d9f6      	bls.n	8002c12 <HAL_RCC_OscConfig+0x2b6>
 8002c24:	e6dd      	b.n	80029e2 <HAL_RCC_OscConfig+0x86>
 8002c26:	bf00      	nop
 8002c28:	40023800 	.word	0x40023800
 8002c2c:	42470000 	.word	0x42470000
 8002c30:	42470e80 	.word	0x42470e80
 8002c34:	40007000 	.word	0x40007000
 8002c38:	42470060 	.word	0x42470060
 8002c3c:	f7fe fe96 	bl	800196c <HAL_GetTick>
 8002c40:	1bc0      	subs	r0, r0, r7
 8002c42:	2802      	cmp	r0, #2
 8002c44:	d9cd      	bls.n	8002be2 <HAL_RCC_OscConfig+0x286>
 8002c46:	e6cc      	b.n	80029e2 <HAL_RCC_OscConfig+0x86>
 8002c48:	f7fe fe90 	bl	800196c <HAL_GetTick>
 8002c4c:	4604      	mov	r4, r0
 8002c4e:	682b      	ldr	r3, [r5, #0]
 8002c50:	019b      	lsls	r3, r3, #6
 8002c52:	f57f ae99 	bpl.w	8002988 <HAL_RCC_OscConfig+0x2c>
 8002c56:	f7fe fe89 	bl	800196c <HAL_GetTick>
 8002c5a:	1b00      	subs	r0, r0, r4
 8002c5c:	2802      	cmp	r0, #2
 8002c5e:	d9f6      	bls.n	8002c4e <HAL_RCC_OscConfig+0x2f2>
 8002c60:	e6bf      	b.n	80029e2 <HAL_RCC_OscConfig+0x86>
 8002c62:	2801      	cmp	r0, #1
 8002c64:	f43f aebe 	beq.w	80029e4 <HAL_RCC_OscConfig+0x88>
 8002c68:	686b      	ldr	r3, [r5, #4]
 8002c6a:	69e2      	ldr	r2, [r4, #28]
 8002c6c:	f403 0180 	and.w	r1, r3, #4194304	; 0x400000
 8002c70:	4291      	cmp	r1, r2
 8002c72:	f47f aea0 	bne.w	80029b6 <HAL_RCC_OscConfig+0x5a>
 8002c76:	6a21      	ldr	r1, [r4, #32]
 8002c78:	f003 023f 	and.w	r2, r3, #63	; 0x3f
 8002c7c:	428a      	cmp	r2, r1
 8002c7e:	f47f ae9a 	bne.w	80029b6 <HAL_RCC_OscConfig+0x5a>
 8002c82:	6a61      	ldr	r1, [r4, #36]	; 0x24
 8002c84:	f647 72c0 	movw	r2, #32704	; 0x7fc0
 8002c88:	401a      	ands	r2, r3
 8002c8a:	ebb2 1f81 	cmp.w	r2, r1, lsl #6
 8002c8e:	f47f ae92 	bne.w	80029b6 <HAL_RCC_OscConfig+0x5a>
 8002c92:	6aa2      	ldr	r2, [r4, #40]	; 0x28
 8002c94:	0852      	lsrs	r2, r2, #1
 8002c96:	f403 3140 	and.w	r1, r3, #196608	; 0x30000
 8002c9a:	3a01      	subs	r2, #1
 8002c9c:	ebb1 4f02 	cmp.w	r1, r2, lsl #16
 8002ca0:	f47f ae89 	bne.w	80029b6 <HAL_RCC_OscConfig+0x5a>
 8002ca4:	6ae2      	ldr	r2, [r4, #44]	; 0x2c
 8002ca6:	f003 6370 	and.w	r3, r3, #251658240	; 0xf000000
 8002caa:	ebb3 6f02 	cmp.w	r3, r2, lsl #24
 8002cae:	f43f ae6b 	beq.w	8002988 <HAL_RCC_OscConfig+0x2c>
 8002cb2:	e680      	b.n	80029b6 <HAL_RCC_OscConfig+0x5a>

08002cb4 <HAL_RCC_GetSysClockFreq>:
 8002cb4:	4913      	ldr	r1, [pc, #76]	; (8002d04 <HAL_RCC_GetSysClockFreq+0x50>)
 8002cb6:	b508      	push	{r3, lr}
 8002cb8:	688b      	ldr	r3, [r1, #8]
 8002cba:	f003 030c 	and.w	r3, r3, #12
 8002cbe:	2b04      	cmp	r3, #4
 8002cc0:	d01c      	beq.n	8002cfc <HAL_RCC_GetSysClockFreq+0x48>
 8002cc2:	2b08      	cmp	r3, #8
 8002cc4:	d11c      	bne.n	8002d00 <HAL_RCC_GetSysClockFreq+0x4c>
 8002cc6:	684a      	ldr	r2, [r1, #4]
 8002cc8:	684b      	ldr	r3, [r1, #4]
 8002cca:	6849      	ldr	r1, [r1, #4]
 8002ccc:	f413 0380 	ands.w	r3, r3, #4194304	; 0x400000
 8002cd0:	bf14      	ite	ne
 8002cd2:	480d      	ldrne	r0, [pc, #52]	; (8002d08 <HAL_RCC_GetSysClockFreq+0x54>)
 8002cd4:	480d      	ldreq	r0, [pc, #52]	; (8002d0c <HAL_RCC_GetSysClockFreq+0x58>)
 8002cd6:	f3c1 1188 	ubfx	r1, r1, #6, #9
 8002cda:	bf18      	it	ne
 8002cdc:	2300      	movne	r3, #0
 8002cde:	f002 023f 	and.w	r2, r2, #63	; 0x3f
 8002ce2:	fba1 0100 	umull	r0, r1, r1, r0
 8002ce6:	f7fd facb 	bl	8000280 <__aeabi_uldivmod>
 8002cea:	4b06      	ldr	r3, [pc, #24]	; (8002d04 <HAL_RCC_GetSysClockFreq+0x50>)
 8002cec:	685b      	ldr	r3, [r3, #4]
 8002cee:	f3c3 4301 	ubfx	r3, r3, #16, #2
 8002cf2:	3301      	adds	r3, #1
 8002cf4:	005b      	lsls	r3, r3, #1
 8002cf6:	fbb0 f0f3 	udiv	r0, r0, r3
 8002cfa:	bd08      	pop	{r3, pc}
 8002cfc:	4802      	ldr	r0, [pc, #8]	; (8002d08 <HAL_RCC_GetSysClockFreq+0x54>)
 8002cfe:	e7fc      	b.n	8002cfa <HAL_RCC_GetSysClockFreq+0x46>
 8002d00:	4802      	ldr	r0, [pc, #8]	; (8002d0c <HAL_RCC_GetSysClockFreq+0x58>)
 8002d02:	e7fa      	b.n	8002cfa <HAL_RCC_GetSysClockFreq+0x46>
 8002d04:	40023800 	.word	0x40023800
 8002d08:	007a1200 	.word	0x007a1200
 8002d0c:	00f42400 	.word	0x00f42400

08002d10 <HAL_RCC_ClockConfig>:
 8002d10:	e92d 41f0 	stmdb	sp!, {r4, r5, r6, r7, r8, lr}
 8002d14:	460d      	mov	r5, r1
 8002d16:	4604      	mov	r4, r0
 8002d18:	b910      	cbnz	r0, 8002d20 <HAL_RCC_ClockConfig+0x10>
 8002d1a:	2001      	movs	r0, #1
 8002d1c:	e8bd 81f0 	ldmia.w	sp!, {r4, r5, r6, r7, r8, pc}
 8002d20:	4b44      	ldr	r3, [pc, #272]	; (8002e34 <HAL_RCC_ClockConfig+0x124>)
 8002d22:	681a      	ldr	r2, [r3, #0]
 8002d24:	f002 0207 	and.w	r2, r2, #7
 8002d28:	428a      	cmp	r2, r1
 8002d2a:	d328      	bcc.n	8002d7e <HAL_RCC_ClockConfig+0x6e>
 8002d2c:	6822      	ldr	r2, [r4, #0]
 8002d2e:	0797      	lsls	r7, r2, #30
 8002d30:	d42d      	bmi.n	8002d8e <HAL_RCC_ClockConfig+0x7e>
 8002d32:	07d0      	lsls	r0, r2, #31
 8002d34:	d441      	bmi.n	8002dba <HAL_RCC_ClockConfig+0xaa>
 8002d36:	4b3f      	ldr	r3, [pc, #252]	; (8002e34 <HAL_RCC_ClockConfig+0x124>)
 8002d38:	681a      	ldr	r2, [r3, #0]
 8002d3a:	f002 0207 	and.w	r2, r2, #7
 8002d3e:	42aa      	cmp	r2, r5
 8002d40:	d866      	bhi.n	8002e10 <HAL_RCC_ClockConfig+0x100>
 8002d42:	6822      	ldr	r2, [r4, #0]
 8002d44:	0751      	lsls	r1, r2, #29
 8002d46:	d46c      	bmi.n	8002e22 <HAL_RCC_ClockConfig+0x112>
 8002d48:	0713      	lsls	r3, r2, #28
 8002d4a:	d507      	bpl.n	8002d5c <HAL_RCC_ClockConfig+0x4c>
 8002d4c:	4a3a      	ldr	r2, [pc, #232]	; (8002e38 <HAL_RCC_ClockConfig+0x128>)
 8002d4e:	6921      	ldr	r1, [r4, #16]
 8002d50:	6893      	ldr	r3, [r2, #8]
 8002d52:	f423 4360 	bic.w	r3, r3, #57344	; 0xe000
 8002d56:	ea43 03c1 	orr.w	r3, r3, r1, lsl #3
 8002d5a:	6093      	str	r3, [r2, #8]
 8002d5c:	f7ff ffaa 	bl	8002cb4 <HAL_RCC_GetSysClockFreq>
 8002d60:	4b35      	ldr	r3, [pc, #212]	; (8002e38 <HAL_RCC_ClockConfig+0x128>)
 8002d62:	4a36      	ldr	r2, [pc, #216]	; (8002e3c <HAL_RCC_ClockConfig+0x12c>)
 8002d64:	689b      	ldr	r3, [r3, #8]
 8002d66:	f3c3 1303 	ubfx	r3, r3, #4, #4
 8002d6a:	5cd3      	ldrb	r3, [r2, r3]
 8002d6c:	40d8      	lsrs	r0, r3
 8002d6e:	4b34      	ldr	r3, [pc, #208]	; (8002e40 <HAL_RCC_ClockConfig+0x130>)
 8002d70:	6018      	str	r0, [r3, #0]
 8002d72:	4b34      	ldr	r3, [pc, #208]	; (8002e44 <HAL_RCC_ClockConfig+0x134>)
 8002d74:	6818      	ldr	r0, [r3, #0]
 8002d76:	f7fe fdaf 	bl	80018d8 <HAL_InitTick>
 8002d7a:	2000      	movs	r0, #0
 8002d7c:	e7ce      	b.n	8002d1c <HAL_RCC_ClockConfig+0xc>
 8002d7e:	b2ca      	uxtb	r2, r1
 8002d80:	701a      	strb	r2, [r3, #0]
 8002d82:	681b      	ldr	r3, [r3, #0]
 8002d84:	f003 0307 	and.w	r3, r3, #7
 8002d88:	428b      	cmp	r3, r1
 8002d8a:	d1c6      	bne.n	8002d1a <HAL_RCC_ClockConfig+0xa>
 8002d8c:	e7ce      	b.n	8002d2c <HAL_RCC_ClockConfig+0x1c>
 8002d8e:	4b2a      	ldr	r3, [pc, #168]	; (8002e38 <HAL_RCC_ClockConfig+0x128>)
 8002d90:	f012 0f04 	tst.w	r2, #4
 8002d94:	bf1e      	ittt	ne
 8002d96:	6899      	ldrne	r1, [r3, #8]
 8002d98:	f441 51e0 	orrne.w	r1, r1, #7168	; 0x1c00
 8002d9c:	6099      	strne	r1, [r3, #8]
 8002d9e:	0716      	lsls	r6, r2, #28
 8002da0:	bf42      	ittt	mi
 8002da2:	6899      	ldrmi	r1, [r3, #8]
 8002da4:	f441 4160 	orrmi.w	r1, r1, #57344	; 0xe000
 8002da8:	6099      	strmi	r1, [r3, #8]
 8002daa:	4923      	ldr	r1, [pc, #140]	; (8002e38 <HAL_RCC_ClockConfig+0x128>)
 8002dac:	68a0      	ldr	r0, [r4, #8]
 8002dae:	688b      	ldr	r3, [r1, #8]
 8002db0:	f023 03f0 	bic.w	r3, r3, #240	; 0xf0
 8002db4:	4303      	orrs	r3, r0
 8002db6:	608b      	str	r3, [r1, #8]
 8002db8:	e7bb      	b.n	8002d32 <HAL_RCC_ClockConfig+0x22>
 8002dba:	6862      	ldr	r2, [r4, #4]
 8002dbc:	4b1e      	ldr	r3, [pc, #120]	; (8002e38 <HAL_RCC_ClockConfig+0x128>)
 8002dbe:	2a01      	cmp	r2, #1
 8002dc0:	d11c      	bne.n	8002dfc <HAL_RCC_ClockConfig+0xec>
 8002dc2:	681b      	ldr	r3, [r3, #0]
 8002dc4:	f413 3f00 	tst.w	r3, #131072	; 0x20000
 8002dc8:	d0a7      	beq.n	8002d1a <HAL_RCC_ClockConfig+0xa>
 8002dca:	4e1b      	ldr	r6, [pc, #108]	; (8002e38 <HAL_RCC_ClockConfig+0x128>)
 8002dcc:	68b3      	ldr	r3, [r6, #8]
 8002dce:	f023 0303 	bic.w	r3, r3, #3
 8002dd2:	4313      	orrs	r3, r2
 8002dd4:	60b3      	str	r3, [r6, #8]
 8002dd6:	f7fe fdc9 	bl	800196c <HAL_GetTick>
 8002dda:	f241 3888 	movw	r8, #5000	; 0x1388
 8002dde:	4607      	mov	r7, r0
 8002de0:	68b3      	ldr	r3, [r6, #8]
 8002de2:	6862      	ldr	r2, [r4, #4]
 8002de4:	f003 030c 	and.w	r3, r3, #12
 8002de8:	ebb3 0f82 	cmp.w	r3, r2, lsl #2
 8002dec:	d0a3      	beq.n	8002d36 <HAL_RCC_ClockConfig+0x26>
 8002dee:	f7fe fdbd 	bl	800196c <HAL_GetTick>
 8002df2:	1bc0      	subs	r0, r0, r7
 8002df4:	4540      	cmp	r0, r8
 8002df6:	d9f3      	bls.n	8002de0 <HAL_RCC_ClockConfig+0xd0>
 8002df8:	2003      	movs	r0, #3
 8002dfa:	e78f      	b.n	8002d1c <HAL_RCC_ClockConfig+0xc>
 8002dfc:	1e91      	subs	r1, r2, #2
 8002dfe:	2901      	cmp	r1, #1
 8002e00:	681b      	ldr	r3, [r3, #0]
 8002e02:	d802      	bhi.n	8002e0a <HAL_RCC_ClockConfig+0xfa>
 8002e04:	f013 7f00 	tst.w	r3, #33554432	; 0x2000000
 8002e08:	e7de      	b.n	8002dc8 <HAL_RCC_ClockConfig+0xb8>
 8002e0a:	f013 0f02 	tst.w	r3, #2
 8002e0e:	e7db      	b.n	8002dc8 <HAL_RCC_ClockConfig+0xb8>
 8002e10:	b2ea      	uxtb	r2, r5
 8002e12:	701a      	strb	r2, [r3, #0]
 8002e14:	681b      	ldr	r3, [r3, #0]
 8002e16:	f003 0307 	and.w	r3, r3, #7
 8002e1a:	42ab      	cmp	r3, r5
 8002e1c:	f47f af7d 	bne.w	8002d1a <HAL_RCC_ClockConfig+0xa>
 8002e20:	e78f      	b.n	8002d42 <HAL_RCC_ClockConfig+0x32>
 8002e22:	4905      	ldr	r1, [pc, #20]	; (8002e38 <HAL_RCC_ClockConfig+0x128>)
 8002e24:	68e0      	ldr	r0, [r4, #12]
 8002e26:	688b      	ldr	r3, [r1, #8]
 8002e28:	f423 53e0 	bic.w	r3, r3, #7168	; 0x1c00
 8002e2c:	4303      	orrs	r3, r0
 8002e2e:	608b      	str	r3, [r1, #8]
 8002e30:	e78a      	b.n	8002d48 <HAL_RCC_ClockConfig+0x38>
 8002e32:	bf00      	nop
 8002e34:	40023c00 	.word	0x40023c00
 8002e38:	40023800 	.word	0x40023800
 8002e3c:	0800795c 	.word	0x0800795c
 8002e40:	20000088 	.word	0x20000088
 8002e44:	20000090 	.word	0x20000090

08002e48 <HAL_RCC_GetPCLK1Freq>:
 8002e48:	4b04      	ldr	r3, [pc, #16]	; (8002e5c <HAL_RCC_GetPCLK1Freq+0x14>)
 8002e4a:	4a05      	ldr	r2, [pc, #20]	; (8002e60 <HAL_RCC_GetPCLK1Freq+0x18>)
 8002e4c:	689b      	ldr	r3, [r3, #8]
 8002e4e:	f3c3 2382 	ubfx	r3, r3, #10, #3
 8002e52:	5cd3      	ldrb	r3, [r2, r3]
 8002e54:	4a03      	ldr	r2, [pc, #12]	; (8002e64 <HAL_RCC_GetPCLK1Freq+0x1c>)
 8002e56:	6810      	ldr	r0, [r2, #0]
 8002e58:	40d8      	lsrs	r0, r3
 8002e5a:	4770      	bx	lr
 8002e5c:	40023800 	.word	0x40023800
 8002e60:	0800796c 	.word	0x0800796c
 8002e64:	20000088 	.word	0x20000088

08002e68 <HAL_RCC_GetPCLK2Freq>:
 8002e68:	4b04      	ldr	r3, [pc, #16]	; (8002e7c <HAL_RCC_GetPCLK2Freq+0x14>)
 8002e6a:	4a05      	ldr	r2, [pc, #20]	; (8002e80 <HAL_RCC_GetPCLK2Freq+0x18>)
 8002e6c:	689b      	ldr	r3, [r3, #8]
 8002e6e:	f3c3 3342 	ubfx	r3, r3, #13, #3
 8002e72:	5cd3      	ldrb	r3, [r2, r3]
 8002e74:	4a03      	ldr	r2, [pc, #12]	; (8002e84 <HAL_RCC_GetPCLK2Freq+0x1c>)
 8002e76:	6810      	ldr	r0, [r2, #0]
 8002e78:	40d8      	lsrs	r0, r3
 8002e7a:	4770      	bx	lr
 8002e7c:	40023800 	.word	0x40023800
 8002e80:	0800796c 	.word	0x0800796c
 8002e84:	20000088 	.word	0x20000088

08002e88 <HAL_RCCEx_PeriphCLKConfig>:
 8002e88:	6803      	ldr	r3, [r0, #0]
 8002e8a:	f013 0f05 	tst.w	r3, #5
 8002e8e:	b5f7      	push	{r0, r1, r2, r4, r5, r6, r7, lr}
 8002e90:	4604      	mov	r4, r0
 8002e92:	d105      	bne.n	8002ea0 <HAL_RCCEx_PeriphCLKConfig+0x18>
 8002e94:	6823      	ldr	r3, [r4, #0]
 8002e96:	f013 0302 	ands.w	r3, r3, #2
 8002e9a:	d129      	bne.n	8002ef0 <HAL_RCCEx_PeriphCLKConfig+0x68>
 8002e9c:	2000      	movs	r0, #0
 8002e9e:	e025      	b.n	8002eec <HAL_RCCEx_PeriphCLKConfig+0x64>
 8002ea0:	4f41      	ldr	r7, [pc, #260]	; (8002fa8 <HAL_RCCEx_PeriphCLKConfig+0x120>)
 8002ea2:	4e42      	ldr	r6, [pc, #264]	; (8002fac <HAL_RCCEx_PeriphCLKConfig+0x124>)
 8002ea4:	2300      	movs	r3, #0
 8002ea6:	603b      	str	r3, [r7, #0]
 8002ea8:	f7fe fd60 	bl	800196c <HAL_GetTick>
 8002eac:	4605      	mov	r5, r0
 8002eae:	6833      	ldr	r3, [r6, #0]
 8002eb0:	011b      	lsls	r3, r3, #4
 8002eb2:	d415      	bmi.n	8002ee0 <HAL_RCCEx_PeriphCLKConfig+0x58>
 8002eb4:	e9d4 2301 	ldrd	r2, r3, [r4, #4]
 8002eb8:	071b      	lsls	r3, r3, #28
 8002eba:	ea43 1382 	orr.w	r3, r3, r2, lsl #6
 8002ebe:	f8c6 3084 	str.w	r3, [r6, #132]	; 0x84
 8002ec2:	2301      	movs	r3, #1
 8002ec4:	603b      	str	r3, [r7, #0]
 8002ec6:	f7fe fd51 	bl	800196c <HAL_GetTick>
 8002eca:	4e38      	ldr	r6, [pc, #224]	; (8002fac <HAL_RCCEx_PeriphCLKConfig+0x124>)
 8002ecc:	4605      	mov	r5, r0
 8002ece:	6833      	ldr	r3, [r6, #0]
 8002ed0:	0118      	lsls	r0, r3, #4
 8002ed2:	d4df      	bmi.n	8002e94 <HAL_RCCEx_PeriphCLKConfig+0xc>
 8002ed4:	f7fe fd4a 	bl	800196c <HAL_GetTick>
 8002ed8:	1b40      	subs	r0, r0, r5
 8002eda:	2802      	cmp	r0, #2
 8002edc:	d9f7      	bls.n	8002ece <HAL_RCCEx_PeriphCLKConfig+0x46>
 8002ede:	e004      	b.n	8002eea <HAL_RCCEx_PeriphCLKConfig+0x62>
 8002ee0:	f7fe fd44 	bl	800196c <HAL_GetTick>
 8002ee4:	1b40      	subs	r0, r0, r5
 8002ee6:	2802      	cmp	r0, #2
 8002ee8:	d9e1      	bls.n	8002eae <HAL_RCCEx_PeriphCLKConfig+0x26>
 8002eea:	2003      	movs	r0, #3
 8002eec:	b003      	add	sp, #12
 8002eee:	bdf0      	pop	{r4, r5, r6, r7, pc}
 8002ef0:	2300      	movs	r3, #0
 8002ef2:	9301      	str	r3, [sp, #4]
 8002ef4:	4b2d      	ldr	r3, [pc, #180]	; (8002fac <HAL_RCCEx_PeriphCLKConfig+0x124>)
 8002ef6:	4d2e      	ldr	r5, [pc, #184]	; (8002fb0 <HAL_RCCEx_PeriphCLKConfig+0x128>)
 8002ef8:	6c1a      	ldr	r2, [r3, #64]	; 0x40
 8002efa:	f042 5280 	orr.w	r2, r2, #268435456	; 0x10000000
 8002efe:	641a      	str	r2, [r3, #64]	; 0x40
 8002f00:	6c1b      	ldr	r3, [r3, #64]	; 0x40
 8002f02:	f003 5380 	and.w	r3, r3, #268435456	; 0x10000000
 8002f06:	9301      	str	r3, [sp, #4]
 8002f08:	9b01      	ldr	r3, [sp, #4]
 8002f0a:	682b      	ldr	r3, [r5, #0]
 8002f0c:	f443 7380 	orr.w	r3, r3, #256	; 0x100
 8002f10:	602b      	str	r3, [r5, #0]
 8002f12:	f7fe fd2b 	bl	800196c <HAL_GetTick>
 8002f16:	4606      	mov	r6, r0
 8002f18:	682b      	ldr	r3, [r5, #0]
 8002f1a:	05d9      	lsls	r1, r3, #23
 8002f1c:	d51a      	bpl.n	8002f54 <HAL_RCCEx_PeriphCLKConfig+0xcc>
 8002f1e:	4d23      	ldr	r5, [pc, #140]	; (8002fac <HAL_RCCEx_PeriphCLKConfig+0x124>)
 8002f20:	6f2b      	ldr	r3, [r5, #112]	; 0x70
 8002f22:	f413 7340 	ands.w	r3, r3, #768	; 0x300
 8002f26:	d11b      	bne.n	8002f60 <HAL_RCCEx_PeriphCLKConfig+0xd8>
 8002f28:	68e3      	ldr	r3, [r4, #12]
 8002f2a:	f403 7240 	and.w	r2, r3, #768	; 0x300
 8002f2e:	f5b2 7f40 	cmp.w	r2, #768	; 0x300
 8002f32:	4a1e      	ldr	r2, [pc, #120]	; (8002fac <HAL_RCCEx_PeriphCLKConfig+0x124>)
 8002f34:	d133      	bne.n	8002f9e <HAL_RCCEx_PeriphCLKConfig+0x116>
 8002f36:	6891      	ldr	r1, [r2, #8]
 8002f38:	f023 4070 	bic.w	r0, r3, #4026531840	; 0xf0000000
 8002f3c:	f421 11f8 	bic.w	r1, r1, #2031616	; 0x1f0000
 8002f40:	f420 7040 	bic.w	r0, r0, #768	; 0x300
 8002f44:	4301      	orrs	r1, r0
 8002f46:	6091      	str	r1, [r2, #8]
 8002f48:	6f11      	ldr	r1, [r2, #112]	; 0x70
 8002f4a:	f3c3 030b 	ubfx	r3, r3, #0, #12
 8002f4e:	430b      	orrs	r3, r1
 8002f50:	6713      	str	r3, [r2, #112]	; 0x70
 8002f52:	e7a3      	b.n	8002e9c <HAL_RCCEx_PeriphCLKConfig+0x14>
 8002f54:	f7fe fd0a 	bl	800196c <HAL_GetTick>
 8002f58:	1b80      	subs	r0, r0, r6
 8002f5a:	2802      	cmp	r0, #2
 8002f5c:	d9dc      	bls.n	8002f18 <HAL_RCCEx_PeriphCLKConfig+0x90>
 8002f5e:	e7c4      	b.n	8002eea <HAL_RCCEx_PeriphCLKConfig+0x62>
 8002f60:	68e2      	ldr	r2, [r4, #12]
 8002f62:	f402 7240 	and.w	r2, r2, #768	; 0x300
 8002f66:	4293      	cmp	r3, r2
 8002f68:	d0de      	beq.n	8002f28 <HAL_RCCEx_PeriphCLKConfig+0xa0>
 8002f6a:	6f2b      	ldr	r3, [r5, #112]	; 0x70
 8002f6c:	4a11      	ldr	r2, [pc, #68]	; (8002fb4 <HAL_RCCEx_PeriphCLKConfig+0x12c>)
 8002f6e:	2101      	movs	r1, #1
 8002f70:	6011      	str	r1, [r2, #0]
 8002f72:	f423 7340 	bic.w	r3, r3, #768	; 0x300
 8002f76:	2100      	movs	r1, #0
 8002f78:	6011      	str	r1, [r2, #0]
 8002f7a:	672b      	str	r3, [r5, #112]	; 0x70
 8002f7c:	6f2b      	ldr	r3, [r5, #112]	; 0x70
 8002f7e:	07da      	lsls	r2, r3, #31
 8002f80:	d5d2      	bpl.n	8002f28 <HAL_RCCEx_PeriphCLKConfig+0xa0>
 8002f82:	f7fe fcf3 	bl	800196c <HAL_GetTick>
 8002f86:	f241 3788 	movw	r7, #5000	; 0x1388
 8002f8a:	4606      	mov	r6, r0
 8002f8c:	6f2b      	ldr	r3, [r5, #112]	; 0x70
 8002f8e:	079b      	lsls	r3, r3, #30
 8002f90:	d4ca      	bmi.n	8002f28 <HAL_RCCEx_PeriphCLKConfig+0xa0>
 8002f92:	f7fe fceb 	bl	800196c <HAL_GetTick>
 8002f96:	1b80      	subs	r0, r0, r6
 8002f98:	42b8      	cmp	r0, r7
 8002f9a:	d9f7      	bls.n	8002f8c <HAL_RCCEx_PeriphCLKConfig+0x104>
 8002f9c:	e7a5      	b.n	8002eea <HAL_RCCEx_PeriphCLKConfig+0x62>
 8002f9e:	6891      	ldr	r1, [r2, #8]
 8002fa0:	f421 11f8 	bic.w	r1, r1, #2031616	; 0x1f0000
 8002fa4:	e7cf      	b.n	8002f46 <HAL_RCCEx_PeriphCLKConfig+0xbe>
 8002fa6:	bf00      	nop
 8002fa8:	42470068 	.word	0x42470068
 8002fac:	40023800 	.word	0x40023800
 8002fb0:	40007000 	.word	0x40007000
 8002fb4:	42470e40 	.word	0x42470e40

08002fb8 <HAL_RCCEx_GetPeriphCLKFreq>:
 8002fb8:	2801      	cmp	r0, #1
 8002fba:	d11a      	bne.n	8002ff2 <HAL_RCCEx_GetPeriphCLKFreq+0x3a>
 8002fbc:	4b0e      	ldr	r3, [pc, #56]	; (8002ff8 <HAL_RCCEx_GetPeriphCLKFreq+0x40>)
 8002fbe:	689a      	ldr	r2, [r3, #8]
 8002fc0:	0212      	lsls	r2, r2, #8
 8002fc2:	d416      	bmi.n	8002ff2 <HAL_RCCEx_GetPeriphCLKFreq+0x3a>
 8002fc4:	685a      	ldr	r2, [r3, #4]
 8002fc6:	490c      	ldr	r1, [pc, #48]	; (8002ff8 <HAL_RCCEx_GetPeriphCLKFreq+0x40>)
 8002fc8:	6858      	ldr	r0, [r3, #4]
 8002fca:	0253      	lsls	r3, r2, #9
 8002fcc:	f8d1 2084 	ldr.w	r2, [r1, #132]	; 0x84
 8002fd0:	bf4c      	ite	mi
 8002fd2:	4b0a      	ldrmi	r3, [pc, #40]	; (8002ffc <HAL_RCCEx_GetPeriphCLKFreq+0x44>)
 8002fd4:	4b0a      	ldrpl	r3, [pc, #40]	; (8003000 <HAL_RCCEx_GetPeriphCLKFreq+0x48>)
 8002fd6:	f000 003f 	and.w	r0, r0, #63	; 0x3f
 8002fda:	fbb3 f3f0 	udiv	r3, r3, r0
 8002fde:	f8d1 0084 	ldr.w	r0, [r1, #132]	; 0x84
 8002fe2:	f3c2 1288 	ubfx	r2, r2, #6, #9
 8002fe6:	4353      	muls	r3, r2
 8002fe8:	f3c0 7002 	ubfx	r0, r0, #28, #3
 8002fec:	fbb3 f0f0 	udiv	r0, r3, r0
 8002ff0:	4770      	bx	lr
 8002ff2:	2000      	movs	r0, #0
 8002ff4:	4770      	bx	lr
 8002ff6:	bf00      	nop
 8002ff8:	40023800 	.word	0x40023800
 8002ffc:	007a1200 	.word	0x007a1200
 8003000:	00f42400 	.word	0x00f42400

08003004 <HAL_RTC_WaitForSynchro>:
 8003004:	6802      	ldr	r2, [r0, #0]
 8003006:	b538      	push	{r3, r4, r5, lr}
 8003008:	68d3      	ldr	r3, [r2, #12]
 800300a:	f023 03a0 	bic.w	r3, r3, #160	; 0xa0
 800300e:	60d3      	str	r3, [r2, #12]
 8003010:	4604      	mov	r4, r0
 8003012:	f7fe fcab 	bl	800196c <HAL_GetTick>
 8003016:	4605      	mov	r5, r0
 8003018:	6823      	ldr	r3, [r4, #0]
 800301a:	68db      	ldr	r3, [r3, #12]
 800301c:	069b      	lsls	r3, r3, #26
 800301e:	d501      	bpl.n	8003024 <HAL_RTC_WaitForSynchro+0x20>
 8003020:	2000      	movs	r0, #0
 8003022:	bd38      	pop	{r3, r4, r5, pc}
 8003024:	f7fe fca2 	bl	800196c <HAL_GetTick>
 8003028:	1b40      	subs	r0, r0, r5
 800302a:	f5b0 7f7a 	cmp.w	r0, #1000	; 0x3e8
 800302e:	d9f3      	bls.n	8003018 <HAL_RTC_WaitForSynchro+0x14>
 8003030:	2003      	movs	r0, #3
 8003032:	e7f6      	b.n	8003022 <HAL_RTC_WaitForSynchro+0x1e>

08003034 <RTC_EnterInitMode>:
 8003034:	b538      	push	{r3, r4, r5, lr}
 8003036:	6803      	ldr	r3, [r0, #0]
 8003038:	68da      	ldr	r2, [r3, #12]
 800303a:	0652      	lsls	r2, r2, #25
 800303c:	4604      	mov	r4, r0
 800303e:	d501      	bpl.n	8003044 <RTC_EnterInitMode+0x10>
 8003040:	2000      	movs	r0, #0
 8003042:	bd38      	pop	{r3, r4, r5, pc}
 8003044:	f04f 32ff 	mov.w	r2, #4294967295
 8003048:	60da      	str	r2, [r3, #12]
 800304a:	f7fe fc8f 	bl	800196c <HAL_GetTick>
 800304e:	4605      	mov	r5, r0
 8003050:	6823      	ldr	r3, [r4, #0]
 8003052:	68db      	ldr	r3, [r3, #12]
 8003054:	065b      	lsls	r3, r3, #25
 8003056:	d4f3      	bmi.n	8003040 <RTC_EnterInitMode+0xc>
 8003058:	f7fe fc88 	bl	800196c <HAL_GetTick>
 800305c:	1b40      	subs	r0, r0, r5
 800305e:	f5b0 7f7a 	cmp.w	r0, #1000	; 0x3e8
 8003062:	d9f5      	bls.n	8003050 <RTC_EnterInitMode+0x1c>
 8003064:	2003      	movs	r0, #3
 8003066:	e7ec      	b.n	8003042 <RTC_EnterInitMode+0xe>

08003068 <HAL_RTC_Init>:
 8003068:	b538      	push	{r3, r4, r5, lr}
 800306a:	4604      	mov	r4, r0
 800306c:	b1b8      	cbz	r0, 800309e <HAL_RTC_Init+0x36>
 800306e:	7f43      	ldrb	r3, [r0, #29]
 8003070:	f003 02ff 	and.w	r2, r3, #255	; 0xff
 8003074:	b913      	cbnz	r3, 800307c <HAL_RTC_Init+0x14>
 8003076:	7702      	strb	r2, [r0, #28]
 8003078:	f7fe fa90 	bl	800159c <HAL_RTC_MspInit>
 800307c:	2302      	movs	r3, #2
 800307e:	7763      	strb	r3, [r4, #29]
 8003080:	6823      	ldr	r3, [r4, #0]
 8003082:	22ca      	movs	r2, #202	; 0xca
 8003084:	625a      	str	r2, [r3, #36]	; 0x24
 8003086:	2253      	movs	r2, #83	; 0x53
 8003088:	625a      	str	r2, [r3, #36]	; 0x24
 800308a:	4620      	mov	r0, r4
 800308c:	f7ff ffd2 	bl	8003034 <RTC_EnterInitMode>
 8003090:	6823      	ldr	r3, [r4, #0]
 8003092:	4605      	mov	r5, r0
 8003094:	b128      	cbz	r0, 80030a2 <HAL_RTC_Init+0x3a>
 8003096:	22ff      	movs	r2, #255	; 0xff
 8003098:	625a      	str	r2, [r3, #36]	; 0x24
 800309a:	2304      	movs	r3, #4
 800309c:	7763      	strb	r3, [r4, #29]
 800309e:	2501      	movs	r5, #1
 80030a0:	e02e      	b.n	8003100 <HAL_RTC_Init+0x98>
 80030a2:	689a      	ldr	r2, [r3, #8]
 80030a4:	6920      	ldr	r0, [r4, #16]
 80030a6:	f422 02e0 	bic.w	r2, r2, #7340032	; 0x700000
 80030aa:	f022 0240 	bic.w	r2, r2, #64	; 0x40
 80030ae:	609a      	str	r2, [r3, #8]
 80030b0:	6862      	ldr	r2, [r4, #4]
 80030b2:	6899      	ldr	r1, [r3, #8]
 80030b4:	4302      	orrs	r2, r0
 80030b6:	6960      	ldr	r0, [r4, #20]
 80030b8:	4302      	orrs	r2, r0
 80030ba:	430a      	orrs	r2, r1
 80030bc:	609a      	str	r2, [r3, #8]
 80030be:	68e2      	ldr	r2, [r4, #12]
 80030c0:	611a      	str	r2, [r3, #16]
 80030c2:	691a      	ldr	r2, [r3, #16]
 80030c4:	68a1      	ldr	r1, [r4, #8]
 80030c6:	ea42 4201 	orr.w	r2, r2, r1, lsl #16
 80030ca:	611a      	str	r2, [r3, #16]
 80030cc:	68da      	ldr	r2, [r3, #12]
 80030ce:	f022 0280 	bic.w	r2, r2, #128	; 0x80
 80030d2:	60da      	str	r2, [r3, #12]
 80030d4:	689b      	ldr	r3, [r3, #8]
 80030d6:	069b      	lsls	r3, r3, #26
 80030d8:	d405      	bmi.n	80030e6 <HAL_RTC_Init+0x7e>
 80030da:	4620      	mov	r0, r4
 80030dc:	f7ff ff92 	bl	8003004 <HAL_RTC_WaitForSynchro>
 80030e0:	b108      	cbz	r0, 80030e6 <HAL_RTC_Init+0x7e>
 80030e2:	6823      	ldr	r3, [r4, #0]
 80030e4:	e7d7      	b.n	8003096 <HAL_RTC_Init+0x2e>
 80030e6:	6823      	ldr	r3, [r4, #0]
 80030e8:	69a1      	ldr	r1, [r4, #24]
 80030ea:	6c1a      	ldr	r2, [r3, #64]	; 0x40
 80030ec:	f422 2280 	bic.w	r2, r2, #262144	; 0x40000
 80030f0:	641a      	str	r2, [r3, #64]	; 0x40
 80030f2:	6c1a      	ldr	r2, [r3, #64]	; 0x40
 80030f4:	430a      	orrs	r2, r1
 80030f6:	641a      	str	r2, [r3, #64]	; 0x40
 80030f8:	22ff      	movs	r2, #255	; 0xff
 80030fa:	625a      	str	r2, [r3, #36]	; 0x24
 80030fc:	2301      	movs	r3, #1
 80030fe:	7763      	strb	r3, [r4, #29]
 8003100:	4628      	mov	r0, r5
 8003102:	bd38      	pop	{r3, r4, r5, pc}

08003104 <RTC_Bcd2ToByte>:
 8003104:	0903      	lsrs	r3, r0, #4
 8003106:	eb03 0383 	add.w	r3, r3, r3, lsl #2
 800310a:	f000 000f 	and.w	r0, r0, #15
 800310e:	eb00 0043 	add.w	r0, r0, r3, lsl #1
 8003112:	b2c0      	uxtb	r0, r0
 8003114:	4770      	bx	lr

08003116 <HAL_RTC_GetTime>:
 8003116:	6803      	ldr	r3, [r0, #0]
 8003118:	6a98      	ldr	r0, [r3, #40]	; 0x28
 800311a:	6048      	str	r0, [r1, #4]
 800311c:	b570      	push	{r4, r5, r6, lr}
 800311e:	6918      	ldr	r0, [r3, #16]
 8003120:	681c      	ldr	r4, [r3, #0]
 8003122:	f3c0 000e 	ubfx	r0, r0, #0, #15
 8003126:	f3c4 4506 	ubfx	r5, r4, #16, #7
 800312a:	f3c4 2606 	ubfx	r6, r4, #8, #7
 800312e:	6088      	str	r0, [r1, #8]
 8003130:	f005 0340 	and.w	r3, r5, #64	; 0x40
 8003134:	f3c4 4005 	ubfx	r0, r4, #16, #6
 8003138:	f004 047f 	and.w	r4, r4, #127	; 0x7f
 800313c:	7008      	strb	r0, [r1, #0]
 800313e:	704e      	strb	r6, [r1, #1]
 8003140:	708c      	strb	r4, [r1, #2]
 8003142:	70cb      	strb	r3, [r1, #3]
 8003144:	b952      	cbnz	r2, 800315c <HAL_RTC_GetTime+0x46>
 8003146:	f7ff ffdd 	bl	8003104 <RTC_Bcd2ToByte>
 800314a:	7008      	strb	r0, [r1, #0]
 800314c:	4630      	mov	r0, r6
 800314e:	f7ff ffd9 	bl	8003104 <RTC_Bcd2ToByte>
 8003152:	7048      	strb	r0, [r1, #1]
 8003154:	4620      	mov	r0, r4
 8003156:	f7ff ffd5 	bl	8003104 <RTC_Bcd2ToByte>
 800315a:	7088      	strb	r0, [r1, #2]
 800315c:	2000      	movs	r0, #0
 800315e:	bd70      	pop	{r4, r5, r6, pc}

08003160 <HAL_RTC_GetDate>:
 8003160:	b538      	push	{r3, r4, r5, lr}
 8003162:	6803      	ldr	r3, [r0, #0]
 8003164:	685b      	ldr	r3, [r3, #4]
 8003166:	f3c3 4007 	ubfx	r0, r3, #16, #8
 800316a:	f3c3 2504 	ubfx	r5, r3, #8, #5
 800316e:	f003 043f 	and.w	r4, r3, #63	; 0x3f
 8003172:	f3c3 3342 	ubfx	r3, r3, #13, #3
 8003176:	70c8      	strb	r0, [r1, #3]
 8003178:	704d      	strb	r5, [r1, #1]
 800317a:	708c      	strb	r4, [r1, #2]
 800317c:	700b      	strb	r3, [r1, #0]
 800317e:	b952      	cbnz	r2, 8003196 <HAL_RTC_GetDate+0x36>
 8003180:	f7ff ffc0 	bl	8003104 <RTC_Bcd2ToByte>
 8003184:	70c8      	strb	r0, [r1, #3]
 8003186:	4628      	mov	r0, r5
 8003188:	f7ff ffbc 	bl	8003104 <RTC_Bcd2ToByte>
 800318c:	7048      	strb	r0, [r1, #1]
 800318e:	4620      	mov	r0, r4
 8003190:	f7ff ffb8 	bl	8003104 <RTC_Bcd2ToByte>
 8003194:	7088      	strb	r0, [r1, #2]
 8003196:	2000      	movs	r0, #0
 8003198:	bd38      	pop	{r3, r4, r5, pc}

0800319a <SD_DMATransmitCplt>:
 800319a:	6b83      	ldr	r3, [r0, #56]	; 0x38
 800319c:	681a      	ldr	r2, [r3, #0]
 800319e:	6bd3      	ldr	r3, [r2, #60]	; 0x3c
 80031a0:	f443 7380 	orr.w	r3, r3, #256	; 0x100
 80031a4:	63d3      	str	r3, [r2, #60]	; 0x3c
 80031a6:	4770      	bx	lr

080031a8 <SD_FindSCR>:
 80031a8:	b5f0      	push	{r4, r5, r6, r7, lr}
 80031aa:	b089      	sub	sp, #36	; 0x24
 80031ac:	4605      	mov	r5, r0
 80031ae:	460e      	mov	r6, r1
 80031b0:	f7fe fbdc 	bl	800196c <HAL_GetTick>
 80031b4:	2300      	movs	r3, #0
 80031b6:	4607      	mov	r7, r0
 80031b8:	2108      	movs	r1, #8
 80031ba:	6828      	ldr	r0, [r5, #0]
 80031bc:	e9cd 3300 	strd	r3, r3, [sp]
 80031c0:	f000 ffcd 	bl	800415e <SDMMC_CmdBlockLength>
 80031c4:	4604      	mov	r4, r0
 80031c6:	b9d8      	cbnz	r0, 8003200 <SD_FindSCR+0x58>
 80031c8:	6d29      	ldr	r1, [r5, #80]	; 0x50
 80031ca:	6828      	ldr	r0, [r5, #0]
 80031cc:	0409      	lsls	r1, r1, #16
 80031ce:	f001 f8d3 	bl	8004378 <SDMMC_CmdAppCommand>
 80031d2:	4604      	mov	r4, r0
 80031d4:	b9a0      	cbnz	r0, 8003200 <SD_FindSCR+0x58>
 80031d6:	f04f 32ff 	mov.w	r2, #4294967295
 80031da:	2308      	movs	r3, #8
 80031dc:	e9cd 2302 	strd	r2, r3, [sp, #8]
 80031e0:	2130      	movs	r1, #48	; 0x30
 80031e2:	2302      	movs	r3, #2
 80031e4:	e9cd 1304 	strd	r1, r3, [sp, #16]
 80031e8:	9006      	str	r0, [sp, #24]
 80031ea:	2301      	movs	r3, #1
 80031ec:	a902      	add	r1, sp, #8
 80031ee:	6828      	ldr	r0, [r5, #0]
 80031f0:	9307      	str	r3, [sp, #28]
 80031f2:	f000 ffa1 	bl	8004138 <SDIO_ConfigData>
 80031f6:	6828      	ldr	r0, [r5, #0]
 80031f8:	f001 f907 	bl	800440a <SDMMC_CmdSendSCR>
 80031fc:	4604      	mov	r4, r0
 80031fe:	b190      	cbz	r0, 8003226 <SD_FindSCR+0x7e>
 8003200:	4620      	mov	r0, r4
 8003202:	b009      	add	sp, #36	; 0x24
 8003204:	bdf0      	pop	{r4, r5, r6, r7, pc}
 8003206:	6b42      	ldr	r2, [r0, #52]	; 0x34
 8003208:	0293      	lsls	r3, r2, #10
 800320a:	d512      	bpl.n	8003232 <SD_FindSCR+0x8a>
 800320c:	f000 ff6a 	bl	80040e4 <SDIO_ReadFIFO>
 8003210:	ab08      	add	r3, sp, #32
 8003212:	eb03 0384 	add.w	r3, r3, r4, lsl #2
 8003216:	3401      	adds	r4, #1
 8003218:	f843 0c20 	str.w	r0, [r3, #-32]
 800321c:	f7fe fba6 	bl	800196c <HAL_GetTick>
 8003220:	1bc0      	subs	r0, r0, r7
 8003222:	3001      	adds	r0, #1
 8003224:	d023      	beq.n	800326e <SD_FindSCR+0xc6>
 8003226:	6828      	ldr	r0, [r5, #0]
 8003228:	6b42      	ldr	r2, [r0, #52]	; 0x34
 800322a:	f012 0f2a 	tst.w	r2, #42	; 0x2a
 800322e:	d0ea      	beq.n	8003206 <SD_FindSCR+0x5e>
 8003230:	e002      	b.n	8003238 <SD_FindSCR+0x90>
 8003232:	6b42      	ldr	r2, [r0, #52]	; 0x34
 8003234:	0491      	lsls	r1, r2, #18
 8003236:	d4f1      	bmi.n	800321c <SD_FindSCR+0x74>
 8003238:	6b42      	ldr	r2, [r0, #52]	; 0x34
 800323a:	0712      	lsls	r2, r2, #28
 800323c:	d502      	bpl.n	8003244 <SD_FindSCR+0x9c>
 800323e:	2408      	movs	r4, #8
 8003240:	6384      	str	r4, [r0, #56]	; 0x38
 8003242:	e7dd      	b.n	8003200 <SD_FindSCR+0x58>
 8003244:	6b42      	ldr	r2, [r0, #52]	; 0x34
 8003246:	0793      	lsls	r3, r2, #30
 8003248:	d501      	bpl.n	800324e <SD_FindSCR+0xa6>
 800324a:	2402      	movs	r4, #2
 800324c:	e7f8      	b.n	8003240 <SD_FindSCR+0x98>
 800324e:	6b44      	ldr	r4, [r0, #52]	; 0x34
 8003250:	f014 0420 	ands.w	r4, r4, #32
 8003254:	d001      	beq.n	800325a <SD_FindSCR+0xb2>
 8003256:	2420      	movs	r4, #32
 8003258:	e7f2      	b.n	8003240 <SD_FindSCR+0x98>
 800325a:	9b01      	ldr	r3, [sp, #4]
 800325c:	f240 523a 	movw	r2, #1338	; 0x53a
 8003260:	ba1b      	rev	r3, r3
 8003262:	6382      	str	r2, [r0, #56]	; 0x38
 8003264:	6033      	str	r3, [r6, #0]
 8003266:	9b00      	ldr	r3, [sp, #0]
 8003268:	ba1b      	rev	r3, r3
 800326a:	6073      	str	r3, [r6, #4]
 800326c:	e7c8      	b.n	8003200 <SD_FindSCR+0x58>
 800326e:	f04f 4400 	mov.w	r4, #2147483648	; 0x80000000
 8003272:	e7c5      	b.n	8003200 <SD_FindSCR+0x58>

08003274 <HAL_SD_ReadBlocks_DMA>:
 8003274:	e92d 41f0 	stmdb	sp!, {r4, r5, r6, r7, r8, lr}
 8003278:	4604      	mov	r4, r0
 800327a:	b086      	sub	sp, #24
 800327c:	4615      	mov	r5, r2
 800327e:	461f      	mov	r7, r3
 8003280:	b941      	cbnz	r1, 8003294 <HAL_SD_ReadBlocks_DMA+0x20>
 8003282:	6b83      	ldr	r3, [r0, #56]	; 0x38
 8003284:	f043 6300 	orr.w	r3, r3, #134217728	; 0x8000000
 8003288:	6383      	str	r3, [r0, #56]	; 0x38
 800328a:	2601      	movs	r6, #1
 800328c:	4630      	mov	r0, r6
 800328e:	b006      	add	sp, #24
 8003290:	e8bd 81f0 	ldmia.w	sp!, {r4, r5, r6, r7, r8, pc}
 8003294:	f890 3034 	ldrb.w	r3, [r0, #52]	; 0x34
 8003298:	2b01      	cmp	r3, #1
 800329a:	b2de      	uxtb	r6, r3
 800329c:	d173      	bne.n	8003386 <HAL_SD_ReadBlocks_DMA+0x112>
 800329e:	2200      	movs	r2, #0
 80032a0:	6382      	str	r2, [r0, #56]	; 0x38
 80032a2:	6dc0      	ldr	r0, [r0, #92]	; 0x5c
 80032a4:	19eb      	adds	r3, r5, r7
 80032a6:	4283      	cmp	r3, r0
 80032a8:	d904      	bls.n	80032b4 <HAL_SD_ReadBlocks_DMA+0x40>
 80032aa:	6ba3      	ldr	r3, [r4, #56]	; 0x38
 80032ac:	f043 7300 	orr.w	r3, r3, #33554432	; 0x2000000
 80032b0:	63a3      	str	r3, [r4, #56]	; 0x38
 80032b2:	e7eb      	b.n	800328c <HAL_SD_ReadBlocks_DMA+0x18>
 80032b4:	f8d4 c000 	ldr.w	ip, [r4]
 80032b8:	6c20      	ldr	r0, [r4, #64]	; 0x40
 80032ba:	2303      	movs	r3, #3
 80032bc:	f884 3034 	strb.w	r3, [r4, #52]	; 0x34
 80032c0:	f8cc 202c 	str.w	r2, [ip, #44]	; 0x2c
 80032c4:	f8dc 303c 	ldr.w	r3, [ip, #60]	; 0x3c
 80032c8:	f443 734a 	orr.w	r3, r3, #808	; 0x328
 80032cc:	f043 0302 	orr.w	r3, r3, #2
 80032d0:	f8cc 303c 	str.w	r3, [ip, #60]	; 0x3c
 80032d4:	4b2e      	ldr	r3, [pc, #184]	; (8003390 <HAL_SD_ReadBlocks_DMA+0x11c>)
 80032d6:	63c3      	str	r3, [r0, #60]	; 0x3c
 80032d8:	4b2e      	ldr	r3, [pc, #184]	; (8003394 <HAL_SD_ReadBlocks_DMA+0x120>)
 80032da:	6082      	str	r2, [r0, #8]
 80032dc:	e9c0 3213 	strd	r3, r2, [r0, #76]	; 0x4c
 80032e0:	6802      	ldr	r2, [r0, #0]
 80032e2:	6813      	ldr	r3, [r2, #0]
 80032e4:	ea4f 2847 	mov.w	r8, r7, lsl #9
 80032e8:	f023 03c0 	bic.w	r3, r3, #192	; 0xc0
 80032ec:	6013      	str	r3, [r2, #0]
 80032ee:	460a      	mov	r2, r1
 80032f0:	ea4f 0398 	mov.w	r3, r8, lsr #2
 80032f4:	f10c 0180 	add.w	r1, ip, #128	; 0x80
 80032f8:	f7fe fc7a 	bl	8001bf0 <HAL_DMA_Start_IT>
 80032fc:	b168      	cbz	r0, 800331a <HAL_SD_ReadBlocks_DMA+0xa6>
 80032fe:	6823      	ldr	r3, [r4, #0]
 8003300:	6bda      	ldr	r2, [r3, #60]	; 0x3c
 8003302:	f422 7295 	bic.w	r2, r2, #298	; 0x12a
 8003306:	63da      	str	r2, [r3, #60]	; 0x3c
 8003308:	4a23      	ldr	r2, [pc, #140]	; (8003398 <HAL_SD_ReadBlocks_DMA+0x124>)
 800330a:	639a      	str	r2, [r3, #56]	; 0x38
 800330c:	6ba3      	ldr	r3, [r4, #56]	; 0x38
 800330e:	f043 4380 	orr.w	r3, r3, #1073741824	; 0x40000000
 8003312:	63a3      	str	r3, [r4, #56]	; 0x38
 8003314:	f884 6034 	strb.w	r6, [r4, #52]	; 0x34
 8003318:	e7b8      	b.n	800328c <HAL_SD_ReadBlocks_DMA+0x18>
 800331a:	4b20      	ldr	r3, [pc, #128]	; (800339c <HAL_SD_ReadBlocks_DMA+0x128>)
 800331c:	6820      	ldr	r0, [r4, #0]
 800331e:	601e      	str	r6, [r3, #0]
 8003320:	6c63      	ldr	r3, [r4, #68]	; 0x44
 8003322:	2b01      	cmp	r3, #1
 8003324:	f04f 33ff 	mov.w	r3, #4294967295
 8003328:	e9cd 3800 	strd	r3, r8, [sp]
 800332c:	f04f 0290 	mov.w	r2, #144	; 0x90
 8003330:	f04f 0302 	mov.w	r3, #2
 8003334:	e9cd 2302 	strd	r2, r3, [sp, #8]
 8003338:	f04f 0100 	mov.w	r1, #0
 800333c:	f04f 0301 	mov.w	r3, #1
 8003340:	e9cd 1304 	strd	r1, r3, [sp, #16]
 8003344:	4669      	mov	r1, sp
 8003346:	bf18      	it	ne
 8003348:	026d      	lslne	r5, r5, #9
 800334a:	f000 fef5 	bl	8004138 <SDIO_ConfigData>
 800334e:	2f01      	cmp	r7, #1
 8003350:	d912      	bls.n	8003378 <HAL_SD_ReadBlocks_DMA+0x104>
 8003352:	2382      	movs	r3, #130	; 0x82
 8003354:	6820      	ldr	r0, [r4, #0]
 8003356:	6323      	str	r3, [r4, #48]	; 0x30
 8003358:	4629      	mov	r1, r5
 800335a:	f000 ff30 	bl	80041be <SDMMC_CmdReadMultiBlock>
 800335e:	b1a0      	cbz	r0, 800338a <HAL_SD_ReadBlocks_DMA+0x116>
 8003360:	6823      	ldr	r3, [r4, #0]
 8003362:	4a0d      	ldr	r2, [pc, #52]	; (8003398 <HAL_SD_ReadBlocks_DMA+0x124>)
 8003364:	639a      	str	r2, [r3, #56]	; 0x38
 8003366:	6ba3      	ldr	r3, [r4, #56]	; 0x38
 8003368:	4318      	orrs	r0, r3
 800336a:	2301      	movs	r3, #1
 800336c:	63a0      	str	r0, [r4, #56]	; 0x38
 800336e:	f884 3034 	strb.w	r3, [r4, #52]	; 0x34
 8003372:	2300      	movs	r3, #0
 8003374:	6323      	str	r3, [r4, #48]	; 0x30
 8003376:	e789      	b.n	800328c <HAL_SD_ReadBlocks_DMA+0x18>
 8003378:	2381      	movs	r3, #129	; 0x81
 800337a:	6820      	ldr	r0, [r4, #0]
 800337c:	6323      	str	r3, [r4, #48]	; 0x30
 800337e:	4629      	mov	r1, r5
 8003380:	f000 ff05 	bl	800418e <SDMMC_CmdReadSingleBlock>
 8003384:	e7eb      	b.n	800335e <HAL_SD_ReadBlocks_DMA+0xea>
 8003386:	2602      	movs	r6, #2
 8003388:	e780      	b.n	800328c <HAL_SD_ReadBlocks_DMA+0x18>
 800338a:	4606      	mov	r6, r0
 800338c:	e77e      	b.n	800328c <HAL_SD_ReadBlocks_DMA+0x18>
 800338e:	bf00      	nop
 8003390:	080034c3 	.word	0x080034c3
 8003394:	08003a15 	.word	0x08003a15
 8003398:	004005ff 	.word	0x004005ff
 800339c:	4225858c 	.word	0x4225858c

080033a0 <HAL_SD_WriteBlocks_DMA>:
 80033a0:	e92d 43f0 	stmdb	sp!, {r4, r5, r6, r7, r8, r9, lr}
 80033a4:	4604      	mov	r4, r0
 80033a6:	b087      	sub	sp, #28
 80033a8:	461e      	mov	r6, r3
 80033aa:	4689      	mov	r9, r1
 80033ac:	b941      	cbnz	r1, 80033c0 <HAL_SD_WriteBlocks_DMA+0x20>
 80033ae:	6b83      	ldr	r3, [r0, #56]	; 0x38
 80033b0:	f043 6300 	orr.w	r3, r3, #134217728	; 0x8000000
 80033b4:	6383      	str	r3, [r0, #56]	; 0x38
 80033b6:	2701      	movs	r7, #1
 80033b8:	4638      	mov	r0, r7
 80033ba:	b007      	add	sp, #28
 80033bc:	e8bd 83f0 	ldmia.w	sp!, {r4, r5, r6, r7, r8, r9, pc}
 80033c0:	f890 3034 	ldrb.w	r3, [r0, #52]	; 0x34
 80033c4:	2b01      	cmp	r3, #1
 80033c6:	b2df      	uxtb	r7, r3
 80033c8:	d170      	bne.n	80034ac <HAL_SD_WriteBlocks_DMA+0x10c>
 80033ca:	2100      	movs	r1, #0
 80033cc:	6381      	str	r1, [r0, #56]	; 0x38
 80033ce:	6dc0      	ldr	r0, [r0, #92]	; 0x5c
 80033d0:	1993      	adds	r3, r2, r6
 80033d2:	4283      	cmp	r3, r0
 80033d4:	d904      	bls.n	80033e0 <HAL_SD_WriteBlocks_DMA+0x40>
 80033d6:	6ba3      	ldr	r3, [r4, #56]	; 0x38
 80033d8:	f043 7300 	orr.w	r3, r3, #33554432	; 0x2000000
 80033dc:	63a3      	str	r3, [r4, #56]	; 0x38
 80033de:	e7eb      	b.n	80033b8 <HAL_SD_WriteBlocks_DMA+0x18>
 80033e0:	6820      	ldr	r0, [r4, #0]
 80033e2:	4d33      	ldr	r5, [pc, #204]	; (80034b0 <HAL_SD_WriteBlocks_DMA+0x110>)
 80033e4:	2303      	movs	r3, #3
 80033e6:	f884 3034 	strb.w	r3, [r4, #52]	; 0x34
 80033ea:	62c1      	str	r1, [r0, #44]	; 0x2c
 80033ec:	6bc3      	ldr	r3, [r0, #60]	; 0x3c
 80033ee:	f443 7306 	orr.w	r3, r3, #536	; 0x218
 80033f2:	f043 0302 	orr.w	r3, r3, #2
 80033f6:	63c3      	str	r3, [r0, #60]	; 0x3c
 80033f8:	6be3      	ldr	r3, [r4, #60]	; 0x3c
 80033fa:	63dd      	str	r5, [r3, #60]	; 0x3c
 80033fc:	4d2d      	ldr	r5, [pc, #180]	; (80034b4 <HAL_SD_WriteBlocks_DMA+0x114>)
 80033fe:	e9c3 5113 	strd	r5, r1, [r3, #76]	; 0x4c
 8003402:	6c63      	ldr	r3, [r4, #68]	; 0x44
 8003404:	2b01      	cmp	r3, #1
 8003406:	bf18      	it	ne
 8003408:	0252      	lslne	r2, r2, #9
 800340a:	2e01      	cmp	r6, #1
 800340c:	d912      	bls.n	8003434 <HAL_SD_WriteBlocks_DMA+0x94>
 800340e:	23a0      	movs	r3, #160	; 0xa0
 8003410:	6323      	str	r3, [r4, #48]	; 0x30
 8003412:	4611      	mov	r1, r2
 8003414:	f000 ff03 	bl	800421e <SDMMC_CmdWriteMultiBlock>
 8003418:	6822      	ldr	r2, [r4, #0]
 800341a:	4605      	mov	r5, r0
 800341c:	b180      	cbz	r0, 8003440 <HAL_SD_WriteBlocks_DMA+0xa0>
 800341e:	4b26      	ldr	r3, [pc, #152]	; (80034b8 <HAL_SD_WriteBlocks_DMA+0x118>)
 8003420:	6393      	str	r3, [r2, #56]	; 0x38
 8003422:	6ba0      	ldr	r0, [r4, #56]	; 0x38
 8003424:	2301      	movs	r3, #1
 8003426:	4305      	orrs	r5, r0
 8003428:	63a5      	str	r5, [r4, #56]	; 0x38
 800342a:	f884 3034 	strb.w	r3, [r4, #52]	; 0x34
 800342e:	2300      	movs	r3, #0
 8003430:	6323      	str	r3, [r4, #48]	; 0x30
 8003432:	e7c1      	b.n	80033b8 <HAL_SD_WriteBlocks_DMA+0x18>
 8003434:	2390      	movs	r3, #144	; 0x90
 8003436:	6323      	str	r3, [r4, #48]	; 0x30
 8003438:	4611      	mov	r1, r2
 800343a:	f000 fed8 	bl	80041ee <SDMMC_CmdWriteSingleBlock>
 800343e:	e7eb      	b.n	8003418 <HAL_SD_WriteBlocks_DMA+0x78>
 8003440:	6be0      	ldr	r0, [r4, #60]	; 0x3c
 8003442:	4b1e      	ldr	r3, [pc, #120]	; (80034bc <HAL_SD_WriteBlocks_DMA+0x11c>)
 8003444:	6801      	ldr	r1, [r0, #0]
 8003446:	f04f 0801 	mov.w	r8, #1
 800344a:	f8c3 8000 	str.w	r8, [r3]
 800344e:	2340      	movs	r3, #64	; 0x40
 8003450:	6083      	str	r3, [r0, #8]
 8003452:	680b      	ldr	r3, [r1, #0]
 8003454:	f023 03c0 	bic.w	r3, r3, #192	; 0xc0
 8003458:	f043 0340 	orr.w	r3, r3, #64	; 0x40
 800345c:	0276      	lsls	r6, r6, #9
 800345e:	600b      	str	r3, [r1, #0]
 8003460:	3280      	adds	r2, #128	; 0x80
 8003462:	08b3      	lsrs	r3, r6, #2
 8003464:	4649      	mov	r1, r9
 8003466:	f7fe fbc3 	bl	8001bf0 <HAL_DMA_Start_IT>
 800346a:	b180      	cbz	r0, 800348e <HAL_SD_WriteBlocks_DMA+0xee>
 800346c:	6822      	ldr	r2, [r4, #0]
 800346e:	6bd3      	ldr	r3, [r2, #60]	; 0x3c
 8003470:	f423 7306 	bic.w	r3, r3, #536	; 0x218
 8003474:	f023 0302 	bic.w	r3, r3, #2
 8003478:	63d3      	str	r3, [r2, #60]	; 0x3c
 800347a:	4b0f      	ldr	r3, [pc, #60]	; (80034b8 <HAL_SD_WriteBlocks_DMA+0x118>)
 800347c:	6393      	str	r3, [r2, #56]	; 0x38
 800347e:	6ba3      	ldr	r3, [r4, #56]	; 0x38
 8003480:	f043 4380 	orr.w	r3, r3, #1073741824	; 0x40000000
 8003484:	63a3      	str	r3, [r4, #56]	; 0x38
 8003486:	f884 8034 	strb.w	r8, [r4, #52]	; 0x34
 800348a:	6325      	str	r5, [r4, #48]	; 0x30
 800348c:	e794      	b.n	80033b8 <HAL_SD_WriteBlocks_DMA+0x18>
 800348e:	f04f 33ff 	mov.w	r3, #4294967295
 8003492:	e9cd 3600 	strd	r3, r6, [sp]
 8003496:	6820      	ldr	r0, [r4, #0]
 8003498:	2390      	movs	r3, #144	; 0x90
 800349a:	4669      	mov	r1, sp
 800349c:	e9cd 3502 	strd	r3, r5, [sp, #8]
 80034a0:	e9cd 5804 	strd	r5, r8, [sp, #16]
 80034a4:	462f      	mov	r7, r5
 80034a6:	f000 fe47 	bl	8004138 <SDIO_ConfigData>
 80034aa:	e785      	b.n	80033b8 <HAL_SD_WriteBlocks_DMA+0x18>
 80034ac:	2702      	movs	r7, #2
 80034ae:	e783      	b.n	80033b8 <HAL_SD_WriteBlocks_DMA+0x18>
 80034b0:	0800319b 	.word	0x0800319b
 80034b4:	08003a15 	.word	0x08003a15
 80034b8:	004005ff 	.word	0x004005ff
 80034bc:	4225858c 	.word	0x4225858c

080034c0 <HAL_SD_ErrorCallback>:
 80034c0:	4770      	bx	lr

080034c2 <SD_DMAReceiveCplt>:
 80034c2:	b510      	push	{r4, lr}
 80034c4:	6b84      	ldr	r4, [r0, #56]	; 0x38
 80034c6:	6b23      	ldr	r3, [r4, #48]	; 0x30
 80034c8:	2b82      	cmp	r3, #130	; 0x82
 80034ca:	d109      	bne.n	80034e0 <SD_DMAReceiveCplt+0x1e>
 80034cc:	6820      	ldr	r0, [r4, #0]
 80034ce:	f000 febf 	bl	8004250 <SDMMC_CmdStopTransfer>
 80034d2:	b128      	cbz	r0, 80034e0 <SD_DMAReceiveCplt+0x1e>
 80034d4:	6ba3      	ldr	r3, [r4, #56]	; 0x38
 80034d6:	4318      	orrs	r0, r3
 80034d8:	63a0      	str	r0, [r4, #56]	; 0x38
 80034da:	4620      	mov	r0, r4
 80034dc:	f7ff fff0 	bl	80034c0 <HAL_SD_ErrorCallback>
 80034e0:	6823      	ldr	r3, [r4, #0]
 80034e2:	6ada      	ldr	r2, [r3, #44]	; 0x2c
 80034e4:	f022 0208 	bic.w	r2, r2, #8
 80034e8:	62da      	str	r2, [r3, #44]	; 0x2c
 80034ea:	f240 523a 	movw	r2, #1338	; 0x53a
 80034ee:	639a      	str	r2, [r3, #56]	; 0x38
 80034f0:	2301      	movs	r3, #1
 80034f2:	f884 3034 	strb.w	r3, [r4, #52]	; 0x34
 80034f6:	2300      	movs	r3, #0
 80034f8:	6323      	str	r3, [r4, #48]	; 0x30
 80034fa:	4620      	mov	r0, r4
 80034fc:	f001 f877 	bl	80045ee <HAL_SD_RxCpltCallback>
 8003500:	bd10      	pop	{r4, pc}
	...

08003504 <HAL_SD_GetCardCSD>:
 8003504:	6e43      	ldr	r3, [r0, #100]	; 0x64
 8003506:	0f9a      	lsrs	r2, r3, #30
 8003508:	700a      	strb	r2, [r1, #0]
 800350a:	f3c3 6283 	ubfx	r2, r3, #26, #4
 800350e:	704a      	strb	r2, [r1, #1]
 8003510:	f3c3 6201 	ubfx	r2, r3, #24, #2
 8003514:	708a      	strb	r2, [r1, #2]
 8003516:	f3c3 4207 	ubfx	r2, r3, #16, #8
 800351a:	70ca      	strb	r2, [r1, #3]
 800351c:	f3c3 2207 	ubfx	r2, r3, #8, #8
 8003520:	b2db      	uxtb	r3, r3
 8003522:	710a      	strb	r2, [r1, #4]
 8003524:	714b      	strb	r3, [r1, #5]
 8003526:	6e83      	ldr	r3, [r0, #104]	; 0x68
 8003528:	0d1a      	lsrs	r2, r3, #20
 800352a:	80ca      	strh	r2, [r1, #6]
 800352c:	f3c3 4203 	ubfx	r2, r3, #16, #4
 8003530:	720a      	strb	r2, [r1, #8]
 8003532:	f3c3 32c0 	ubfx	r2, r3, #15, #1
 8003536:	724a      	strb	r2, [r1, #9]
 8003538:	f3c3 3280 	ubfx	r2, r3, #14, #1
 800353c:	728a      	strb	r2, [r1, #10]
 800353e:	f3c3 3240 	ubfx	r2, r3, #13, #1
 8003542:	72ca      	strb	r2, [r1, #11]
 8003544:	f3c3 3200 	ubfx	r2, r3, #12, #1
 8003548:	730a      	strb	r2, [r1, #12]
 800354a:	2200      	movs	r2, #0
 800354c:	734a      	strb	r2, [r1, #13]
 800354e:	6c42      	ldr	r2, [r0, #68]	; 0x44
 8003550:	b510      	push	{r4, lr}
 8003552:	2a00      	cmp	r2, #0
 8003554:	d16b      	bne.n	800362e <HAL_SD_GetCardCSD+0x12a>
 8003556:	6ec2      	ldr	r2, [r0, #108]	; 0x6c
 8003558:	f640 74fc 	movw	r4, #4092	; 0xffc
 800355c:	ea04 0383 	and.w	r3, r4, r3, lsl #2
 8003560:	ea43 7392 	orr.w	r3, r3, r2, lsr #30
 8003564:	610b      	str	r3, [r1, #16]
 8003566:	f3c2 63c2 	ubfx	r3, r2, #27, #3
 800356a:	750b      	strb	r3, [r1, #20]
 800356c:	f3c2 6302 	ubfx	r3, r2, #24, #3
 8003570:	754b      	strb	r3, [r1, #21]
 8003572:	f3c2 5342 	ubfx	r3, r2, #21, #3
 8003576:	758b      	strb	r3, [r1, #22]
 8003578:	f3c2 4382 	ubfx	r3, r2, #18, #3
 800357c:	f3c2 32c2 	ubfx	r2, r2, #15, #3
 8003580:	75cb      	strb	r3, [r1, #23]
 8003582:	760a      	strb	r2, [r1, #24]
 8003584:	690b      	ldr	r3, [r1, #16]
 8003586:	7e0a      	ldrb	r2, [r1, #24]
 8003588:	f002 0207 	and.w	r2, r2, #7
 800358c:	3202      	adds	r2, #2
 800358e:	3301      	adds	r3, #1
 8003590:	4093      	lsls	r3, r2
 8003592:	6543      	str	r3, [r0, #84]	; 0x54
 8003594:	7a0a      	ldrb	r2, [r1, #8]
 8003596:	f002 040f 	and.w	r4, r2, #15
 800359a:	2201      	movs	r2, #1
 800359c:	40a2      	lsls	r2, r4
 800359e:	6582      	str	r2, [r0, #88]	; 0x58
 80035a0:	0a52      	lsrs	r2, r2, #9
 80035a2:	4353      	muls	r3, r2
 80035a4:	65c3      	str	r3, [r0, #92]	; 0x5c
 80035a6:	f44f 7300 	mov.w	r3, #512	; 0x200
 80035aa:	6603      	str	r3, [r0, #96]	; 0x60
 80035ac:	6ec3      	ldr	r3, [r0, #108]	; 0x6c
 80035ae:	f3c3 3280 	ubfx	r2, r3, #14, #1
 80035b2:	764a      	strb	r2, [r1, #25]
 80035b4:	f3c3 12c6 	ubfx	r2, r3, #7, #7
 80035b8:	f003 037f 	and.w	r3, r3, #127	; 0x7f
 80035bc:	768a      	strb	r2, [r1, #26]
 80035be:	76cb      	strb	r3, [r1, #27]
 80035c0:	6f03      	ldr	r3, [r0, #112]	; 0x70
 80035c2:	0fda      	lsrs	r2, r3, #31
 80035c4:	770a      	strb	r2, [r1, #28]
 80035c6:	f3c3 7241 	ubfx	r2, r3, #29, #2
 80035ca:	774a      	strb	r2, [r1, #29]
 80035cc:	f3c3 6282 	ubfx	r2, r3, #26, #3
 80035d0:	778a      	strb	r2, [r1, #30]
 80035d2:	f3c3 5283 	ubfx	r2, r3, #22, #4
 80035d6:	77ca      	strb	r2, [r1, #31]
 80035d8:	f3c3 5240 	ubfx	r2, r3, #21, #1
 80035dc:	f881 2020 	strb.w	r2, [r1, #32]
 80035e0:	2000      	movs	r0, #0
 80035e2:	f3c3 4200 	ubfx	r2, r3, #16, #1
 80035e6:	f881 0021 	strb.w	r0, [r1, #33]	; 0x21
 80035ea:	f881 2022 	strb.w	r2, [r1, #34]	; 0x22
 80035ee:	f3c3 32c0 	ubfx	r2, r3, #15, #1
 80035f2:	f881 2023 	strb.w	r2, [r1, #35]	; 0x23
 80035f6:	f3c3 3280 	ubfx	r2, r3, #14, #1
 80035fa:	f881 2024 	strb.w	r2, [r1, #36]	; 0x24
 80035fe:	f3c3 3240 	ubfx	r2, r3, #13, #1
 8003602:	f881 2025 	strb.w	r2, [r1, #37]	; 0x25
 8003606:	f3c3 3200 	ubfx	r2, r3, #12, #1
 800360a:	f881 2026 	strb.w	r2, [r1, #38]	; 0x26
 800360e:	f3c3 2281 	ubfx	r2, r3, #10, #2
 8003612:	f881 2027 	strb.w	r2, [r1, #39]	; 0x27
 8003616:	f3c3 2201 	ubfx	r2, r3, #8, #2
 800361a:	f3c3 0346 	ubfx	r3, r3, #1, #7
 800361e:	f881 2028 	strb.w	r2, [r1, #40]	; 0x28
 8003622:	f881 3029 	strb.w	r3, [r1, #41]	; 0x29
 8003626:	2301      	movs	r3, #1
 8003628:	f881 302a 	strb.w	r3, [r1, #42]	; 0x2a
 800362c:	bd10      	pop	{r4, pc}
 800362e:	2a01      	cmp	r2, #1
 8003630:	d10f      	bne.n	8003652 <HAL_SD_GetCardCSD+0x14e>
 8003632:	f8b0 206e 	ldrh.w	r2, [r0, #110]	; 0x6e
 8003636:	041b      	lsls	r3, r3, #16
 8003638:	f403 137c 	and.w	r3, r3, #4128768	; 0x3f0000
 800363c:	4313      	orrs	r3, r2
 800363e:	610b      	str	r3, [r1, #16]
 8003640:	690b      	ldr	r3, [r1, #16]
 8003642:	3301      	adds	r3, #1
 8003644:	029b      	lsls	r3, r3, #10
 8003646:	6543      	str	r3, [r0, #84]	; 0x54
 8003648:	65c3      	str	r3, [r0, #92]	; 0x5c
 800364a:	f44f 7300 	mov.w	r3, #512	; 0x200
 800364e:	6583      	str	r3, [r0, #88]	; 0x58
 8003650:	e7ab      	b.n	80035aa <HAL_SD_GetCardCSD+0xa6>
 8003652:	6803      	ldr	r3, [r0, #0]
 8003654:	4a05      	ldr	r2, [pc, #20]	; (800366c <HAL_SD_GetCardCSD+0x168>)
 8003656:	639a      	str	r2, [r3, #56]	; 0x38
 8003658:	6b83      	ldr	r3, [r0, #56]	; 0x38
 800365a:	f043 5380 	orr.w	r3, r3, #268435456	; 0x10000000
 800365e:	6383      	str	r3, [r0, #56]	; 0x38
 8003660:	2301      	movs	r3, #1
 8003662:	f880 3034 	strb.w	r3, [r0, #52]	; 0x34
 8003666:	4618      	mov	r0, r3
 8003668:	e7e0      	b.n	800362c <HAL_SD_GetCardCSD+0x128>
 800366a:	bf00      	nop
 800366c:	004005ff 	.word	0x004005ff

08003670 <HAL_SD_InitCard>:
 8003670:	e92d 41f0 	stmdb	sp!, {r4, r5, r6, r7, r8, lr}
 8003674:	2300      	movs	r3, #0
 8003676:	b098      	sub	sp, #96	; 0x60
 8003678:	e9cd 3309 	strd	r3, r3, [sp, #36]	; 0x24
 800367c:	e9cd 3307 	strd	r3, r3, [sp, #28]
 8003680:	930b      	str	r3, [sp, #44]	; 0x2c
 8003682:	2376      	movs	r3, #118	; 0x76
 8003684:	930c      	str	r3, [sp, #48]	; 0x30
 8003686:	ab0a      	add	r3, sp, #40	; 0x28
 8003688:	4604      	mov	r4, r0
 800368a:	e893 0007 	ldmia.w	r3, {r0, r1, r2}
 800368e:	e88d 0007 	stmia.w	sp, {r0, r1, r2}
 8003692:	ab07      	add	r3, sp, #28
 8003694:	cb0e      	ldmia	r3, {r1, r2, r3}
 8003696:	6820      	ldr	r0, [r4, #0]
 8003698:	f000 fd08 	bl	80040ac <SDIO_Init>
 800369c:	4605      	mov	r5, r0
 800369e:	bb28      	cbnz	r0, 80036ec <HAL_SD_InitCard+0x7c>
 80036a0:	4f6f      	ldr	r7, [pc, #444]	; (8003860 <HAL_SD_InitCard+0x1f0>)
 80036a2:	2601      	movs	r6, #1
 80036a4:	6038      	str	r0, [r7, #0]
 80036a6:	6820      	ldr	r0, [r4, #0]
 80036a8:	f000 fd24 	bl	80040f4 <SDIO_PowerState_ON>
 80036ac:	603e      	str	r6, [r7, #0]
 80036ae:	6820      	ldr	r0, [r4, #0]
 80036b0:	9506      	str	r5, [sp, #24]
 80036b2:	f000 fdff 	bl	80042b4 <SDMMC_CmdGoIdleState>
 80036b6:	4605      	mov	r5, r0
 80036b8:	b990      	cbnz	r0, 80036e0 <HAL_SD_InitCard+0x70>
 80036ba:	6820      	ldr	r0, [r4, #0]
 80036bc:	f000 fe20 	bl	8004300 <SDMMC_CmdOperCond>
 80036c0:	b130      	cbz	r0, 80036d0 <HAL_SD_InitCard+0x60>
 80036c2:	6820      	ldr	r0, [r4, #0]
 80036c4:	64a5      	str	r5, [r4, #72]	; 0x48
 80036c6:	f000 fdf5 	bl	80042b4 <SDMMC_CmdGoIdleState>
 80036ca:	b188      	cbz	r0, 80036f0 <HAL_SD_InitCard+0x80>
 80036cc:	4605      	mov	r5, r0
 80036ce:	e007      	b.n	80036e0 <HAL_SD_InitCard+0x70>
 80036d0:	64a6      	str	r6, [r4, #72]	; 0x48
 80036d2:	6820      	ldr	r0, [r4, #0]
 80036d4:	2100      	movs	r1, #0
 80036d6:	f000 fe4f 	bl	8004378 <SDMMC_CmdAppCommand>
 80036da:	b160      	cbz	r0, 80036f6 <HAL_SD_InitCard+0x86>
 80036dc:	f04f 5580 	mov.w	r5, #268435456	; 0x10000000
 80036e0:	2001      	movs	r0, #1
 80036e2:	f884 0034 	strb.w	r0, [r4, #52]	; 0x34
 80036e6:	6ba3      	ldr	r3, [r4, #56]	; 0x38
 80036e8:	432b      	orrs	r3, r5
 80036ea:	63a3      	str	r3, [r4, #56]	; 0x38
 80036ec:	2501      	movs	r5, #1
 80036ee:	e0b3      	b.n	8003858 <HAL_SD_InitCard+0x1e8>
 80036f0:	6ca3      	ldr	r3, [r4, #72]	; 0x48
 80036f2:	2b01      	cmp	r3, #1
 80036f4:	d0ed      	beq.n	80036d2 <HAL_SD_InitCard+0x62>
 80036f6:	f64f 76fe 	movw	r6, #65534	; 0xfffe
 80036fa:	f8df 816c 	ldr.w	r8, [pc, #364]	; 8003868 <HAL_SD_InitCard+0x1f8>
 80036fe:	2100      	movs	r1, #0
 8003700:	4637      	mov	r7, r6
 8003702:	e014      	b.n	800372e <HAL_SD_InitCard+0xbe>
 8003704:	6820      	ldr	r0, [r4, #0]
 8003706:	f000 fe37 	bl	8004378 <SDMMC_CmdAppCommand>
 800370a:	4605      	mov	r5, r0
 800370c:	2800      	cmp	r0, #0
 800370e:	d1e7      	bne.n	80036e0 <HAL_SD_InitCard+0x70>
 8003710:	6820      	ldr	r0, [r4, #0]
 8003712:	4641      	mov	r1, r8
 8003714:	f000 fe48 	bl	80043a8 <SDMMC_CmdAppOperCommand>
 8003718:	2800      	cmp	r0, #0
 800371a:	d1df      	bne.n	80036dc <HAL_SD_InitCard+0x6c>
 800371c:	4629      	mov	r1, r5
 800371e:	6820      	ldr	r0, [r4, #0]
 8003720:	f000 fd07 	bl	8004132 <SDIO_GetResponse>
 8003724:	9b06      	ldr	r3, [sp, #24]
 8003726:	3301      	adds	r3, #1
 8003728:	4605      	mov	r5, r0
 800372a:	0fc1      	lsrs	r1, r0, #31
 800372c:	9306      	str	r3, [sp, #24]
 800372e:	9b06      	ldr	r3, [sp, #24]
 8003730:	42b3      	cmp	r3, r6
 8003732:	d801      	bhi.n	8003738 <HAL_SD_InitCard+0xc8>
 8003734:	2900      	cmp	r1, #0
 8003736:	d0e5      	beq.n	8003704 <HAL_SD_InitCard+0x94>
 8003738:	9b06      	ldr	r3, [sp, #24]
 800373a:	42bb      	cmp	r3, r7
 800373c:	d80c      	bhi.n	8003758 <HAL_SD_InitCard+0xe8>
 800373e:	f3c5 7580 	ubfx	r5, r5, #30, #1
 8003742:	2301      	movs	r3, #1
 8003744:	6820      	ldr	r0, [r4, #0]
 8003746:	6465      	str	r5, [r4, #68]	; 0x44
 8003748:	f8ad 3016 	strh.w	r3, [sp, #22]
 800374c:	f000 fcda 	bl	8004104 <SDIO_GetPowerState>
 8003750:	b928      	cbnz	r0, 800375e <HAL_SD_InitCard+0xee>
 8003752:	f04f 6080 	mov.w	r0, #67108864	; 0x4000000
 8003756:	e079      	b.n	800384c <HAL_SD_InitCard+0x1dc>
 8003758:	f04f 7580 	mov.w	r5, #16777216	; 0x1000000
 800375c:	e7c0      	b.n	80036e0 <HAL_SD_InitCard+0x70>
 800375e:	6c63      	ldr	r3, [r4, #68]	; 0x44
 8003760:	2b03      	cmp	r3, #3
 8003762:	d043      	beq.n	80037ec <HAL_SD_InitCard+0x17c>
 8003764:	6820      	ldr	r0, [r4, #0]
 8003766:	f000 fe68 	bl	800443a <SDMMC_CmdSendCID>
 800376a:	2800      	cmp	r0, #0
 800376c:	d16e      	bne.n	800384c <HAL_SD_InitCard+0x1dc>
 800376e:	4601      	mov	r1, r0
 8003770:	6820      	ldr	r0, [r4, #0]
 8003772:	f000 fcde 	bl	8004132 <SDIO_GetResponse>
 8003776:	2104      	movs	r1, #4
 8003778:	6760      	str	r0, [r4, #116]	; 0x74
 800377a:	6820      	ldr	r0, [r4, #0]
 800377c:	f000 fcd9 	bl	8004132 <SDIO_GetResponse>
 8003780:	2108      	movs	r1, #8
 8003782:	67a0      	str	r0, [r4, #120]	; 0x78
 8003784:	6820      	ldr	r0, [r4, #0]
 8003786:	f000 fcd4 	bl	8004132 <SDIO_GetResponse>
 800378a:	210c      	movs	r1, #12
 800378c:	67e0      	str	r0, [r4, #124]	; 0x7c
 800378e:	6820      	ldr	r0, [r4, #0]
 8003790:	f000 fccf 	bl	8004132 <SDIO_GetResponse>
 8003794:	6c63      	ldr	r3, [r4, #68]	; 0x44
 8003796:	f8c4 0080 	str.w	r0, [r4, #128]	; 0x80
 800379a:	2b03      	cmp	r3, #3
 800379c:	d026      	beq.n	80037ec <HAL_SD_InitCard+0x17c>
 800379e:	6820      	ldr	r0, [r4, #0]
 80037a0:	f10d 0116 	add.w	r1, sp, #22
 80037a4:	f000 fe74 	bl	8004490 <SDMMC_CmdSetRelAdd>
 80037a8:	2800      	cmp	r0, #0
 80037aa:	d14f      	bne.n	800384c <HAL_SD_InitCard+0x1dc>
 80037ac:	6c63      	ldr	r3, [r4, #68]	; 0x44
 80037ae:	6820      	ldr	r0, [r4, #0]
 80037b0:	2b03      	cmp	r3, #3
 80037b2:	d01b      	beq.n	80037ec <HAL_SD_InitCard+0x17c>
 80037b4:	f8bd 1016 	ldrh.w	r1, [sp, #22]
 80037b8:	6521      	str	r1, [r4, #80]	; 0x50
 80037ba:	0409      	lsls	r1, r1, #16
 80037bc:	f000 fe52 	bl	8004464 <SDMMC_CmdSendCSD>
 80037c0:	2800      	cmp	r0, #0
 80037c2:	d143      	bne.n	800384c <HAL_SD_InitCard+0x1dc>
 80037c4:	4601      	mov	r1, r0
 80037c6:	6820      	ldr	r0, [r4, #0]
 80037c8:	f000 fcb3 	bl	8004132 <SDIO_GetResponse>
 80037cc:	2104      	movs	r1, #4
 80037ce:	6660      	str	r0, [r4, #100]	; 0x64
 80037d0:	6820      	ldr	r0, [r4, #0]
 80037d2:	f000 fcae 	bl	8004132 <SDIO_GetResponse>
 80037d6:	2108      	movs	r1, #8
 80037d8:	66a0      	str	r0, [r4, #104]	; 0x68
 80037da:	6820      	ldr	r0, [r4, #0]
 80037dc:	f000 fca9 	bl	8004132 <SDIO_GetResponse>
 80037e0:	210c      	movs	r1, #12
 80037e2:	66e0      	str	r0, [r4, #108]	; 0x6c
 80037e4:	6820      	ldr	r0, [r4, #0]
 80037e6:	f000 fca4 	bl	8004132 <SDIO_GetResponse>
 80037ea:	6720      	str	r0, [r4, #112]	; 0x70
 80037ec:	2104      	movs	r1, #4
 80037ee:	6820      	ldr	r0, [r4, #0]
 80037f0:	f000 fc9f 	bl	8004132 <SDIO_GetResponse>
 80037f4:	0d00      	lsrs	r0, r0, #20
 80037f6:	64e0      	str	r0, [r4, #76]	; 0x4c
 80037f8:	a90d      	add	r1, sp, #52	; 0x34
 80037fa:	4620      	mov	r0, r4
 80037fc:	f7ff fe82 	bl	8003504 <HAL_SD_GetCardCSD>
 8003800:	4605      	mov	r5, r0
 8003802:	bb08      	cbnz	r0, 8003848 <HAL_SD_InitCard+0x1d8>
 8003804:	6d22      	ldr	r2, [r4, #80]	; 0x50
 8003806:	4603      	mov	r3, r0
 8003808:	0412      	lsls	r2, r2, #16
 800380a:	6820      	ldr	r0, [r4, #0]
 800380c:	f000 fd3a 	bl	8004284 <SDMMC_CmdSelDesel>
 8003810:	b9e0      	cbnz	r0, 800384c <HAL_SD_InitCard+0x1dc>
 8003812:	f104 0310 	add.w	r3, r4, #16
 8003816:	e893 0007 	ldmia.w	r3, {r0, r1, r2}
 800381a:	e88d 0007 	stmia.w	sp, {r0, r1, r2}
 800381e:	1d23      	adds	r3, r4, #4
 8003820:	cb0e      	ldmia	r3, {r1, r2, r3}
 8003822:	6820      	ldr	r0, [r4, #0]
 8003824:	f000 fc42 	bl	80040ac <SDIO_Init>
 8003828:	6820      	ldr	r0, [r4, #0]
 800382a:	f44f 7100 	mov.w	r1, #512	; 0x200
 800382e:	f000 fc96 	bl	800415e <SDMMC_CmdBlockLength>
 8003832:	b188      	cbz	r0, 8003858 <HAL_SD_InitCard+0x1e8>
 8003834:	6823      	ldr	r3, [r4, #0]
 8003836:	4a0b      	ldr	r2, [pc, #44]	; (8003864 <HAL_SD_InitCard+0x1f4>)
 8003838:	639a      	str	r2, [r3, #56]	; 0x38
 800383a:	6ba3      	ldr	r3, [r4, #56]	; 0x38
 800383c:	2501      	movs	r5, #1
 800383e:	4318      	orrs	r0, r3
 8003840:	63a0      	str	r0, [r4, #56]	; 0x38
 8003842:	f884 5034 	strb.w	r5, [r4, #52]	; 0x34
 8003846:	e007      	b.n	8003858 <HAL_SD_InitCard+0x1e8>
 8003848:	f04f 5080 	mov.w	r0, #268435456	; 0x10000000
 800384c:	2501      	movs	r5, #1
 800384e:	f884 5034 	strb.w	r5, [r4, #52]	; 0x34
 8003852:	6ba1      	ldr	r1, [r4, #56]	; 0x38
 8003854:	4301      	orrs	r1, r0
 8003856:	63a1      	str	r1, [r4, #56]	; 0x38
 8003858:	4628      	mov	r0, r5
 800385a:	b018      	add	sp, #96	; 0x60
 800385c:	e8bd 81f0 	ldmia.w	sp!, {r4, r5, r6, r7, r8, pc}
 8003860:	422580a0 	.word	0x422580a0
 8003864:	004005ff 	.word	0x004005ff
 8003868:	c1100000 	.word	0xc1100000

0800386c <HAL_SD_Init>:
 800386c:	b510      	push	{r4, lr}
 800386e:	4604      	mov	r4, r0
 8003870:	b908      	cbnz	r0, 8003876 <HAL_SD_Init+0xa>
 8003872:	2001      	movs	r0, #1
 8003874:	bd10      	pop	{r4, pc}
 8003876:	f890 3034 	ldrb.w	r3, [r0, #52]	; 0x34
 800387a:	f003 02ff 	and.w	r2, r3, #255	; 0xff
 800387e:	b913      	cbnz	r3, 8003886 <HAL_SD_Init+0x1a>
 8003880:	7702      	strb	r2, [r0, #28]
 8003882:	f7fd feab 	bl	80015dc <HAL_SD_MspInit>
 8003886:	2303      	movs	r3, #3
 8003888:	f884 3034 	strb.w	r3, [r4, #52]	; 0x34
 800388c:	4620      	mov	r0, r4
 800388e:	f7ff feef 	bl	8003670 <HAL_SD_InitCard>
 8003892:	2800      	cmp	r0, #0
 8003894:	d1ed      	bne.n	8003872 <HAL_SD_Init+0x6>
 8003896:	2301      	movs	r3, #1
 8003898:	63a0      	str	r0, [r4, #56]	; 0x38
 800389a:	6320      	str	r0, [r4, #48]	; 0x30
 800389c:	f884 3034 	strb.w	r3, [r4, #52]	; 0x34
 80038a0:	e7e8      	b.n	8003874 <HAL_SD_Init+0x8>

080038a2 <HAL_SD_GetCardInfo>:
 80038a2:	6c43      	ldr	r3, [r0, #68]	; 0x44
 80038a4:	600b      	str	r3, [r1, #0]
 80038a6:	6c83      	ldr	r3, [r0, #72]	; 0x48
 80038a8:	604b      	str	r3, [r1, #4]
 80038aa:	6cc3      	ldr	r3, [r0, #76]	; 0x4c
 80038ac:	608b      	str	r3, [r1, #8]
 80038ae:	6d03      	ldr	r3, [r0, #80]	; 0x50
 80038b0:	60cb      	str	r3, [r1, #12]
 80038b2:	6d43      	ldr	r3, [r0, #84]	; 0x54
 80038b4:	610b      	str	r3, [r1, #16]
 80038b6:	6d83      	ldr	r3, [r0, #88]	; 0x58
 80038b8:	614b      	str	r3, [r1, #20]
 80038ba:	6dc3      	ldr	r3, [r0, #92]	; 0x5c
 80038bc:	618b      	str	r3, [r1, #24]
 80038be:	6e03      	ldr	r3, [r0, #96]	; 0x60
 80038c0:	61cb      	str	r3, [r1, #28]
 80038c2:	2000      	movs	r0, #0
 80038c4:	4770      	bx	lr
	...

080038c8 <HAL_SD_ConfigWideBusOperation>:
 80038c8:	b5f0      	push	{r4, r5, r6, r7, lr}
 80038ca:	2303      	movs	r3, #3
 80038cc:	f880 3034 	strb.w	r3, [r0, #52]	; 0x34
 80038d0:	6c43      	ldr	r3, [r0, #68]	; 0x44
 80038d2:	2b03      	cmp	r3, #3
 80038d4:	b08b      	sub	sp, #44	; 0x2c
 80038d6:	4604      	mov	r4, r0
 80038d8:	460d      	mov	r5, r1
 80038da:	d002      	beq.n	80038e2 <HAL_SD_ConfigWideBusOperation+0x1a>
 80038dc:	f5b1 5f80 	cmp.w	r1, #4096	; 0x1000
 80038e0:	d103      	bne.n	80038ea <HAL_SD_ConfigWideBusOperation+0x22>
 80038e2:	6ba3      	ldr	r3, [r4, #56]	; 0x38
 80038e4:	f043 5380 	orr.w	r3, r3, #268435456	; 0x10000000
 80038e8:	e065      	b.n	80039b6 <HAL_SD_ConfigWideBusOperation+0xee>
 80038ea:	f5b1 6f00 	cmp.w	r1, #2048	; 0x800
 80038ee:	6800      	ldr	r0, [r0, #0]
 80038f0:	d13c      	bne.n	800396c <HAL_SD_ConfigWideBusOperation+0xa4>
 80038f2:	2100      	movs	r1, #0
 80038f4:	e9cd 1104 	strd	r1, r1, [sp, #16]
 80038f8:	f000 fc1b 	bl	8004132 <SDIO_GetResponse>
 80038fc:	0180      	lsls	r0, r0, #6
 80038fe:	d430      	bmi.n	8003962 <HAL_SD_ConfigWideBusOperation+0x9a>
 8003900:	a904      	add	r1, sp, #16
 8003902:	4620      	mov	r0, r4
 8003904:	f7ff fc50 	bl	80031a8 <SD_FindSCR>
 8003908:	b960      	cbnz	r0, 8003924 <HAL_SD_ConfigWideBusOperation+0x5c>
 800390a:	9b05      	ldr	r3, [sp, #20]
 800390c:	0359      	lsls	r1, r3, #13
 800390e:	d52a      	bpl.n	8003966 <HAL_SD_ConfigWideBusOperation+0x9e>
 8003910:	6d21      	ldr	r1, [r4, #80]	; 0x50
 8003912:	6820      	ldr	r0, [r4, #0]
 8003914:	0409      	lsls	r1, r1, #16
 8003916:	f000 fd2f 	bl	8004378 <SDMMC_CmdAppCommand>
 800391a:	b918      	cbnz	r0, 8003924 <HAL_SD_ConfigWideBusOperation+0x5c>
 800391c:	6820      	ldr	r0, [r4, #0]
 800391e:	2102      	movs	r1, #2
 8003920:	f000 fd5b 	bl	80043da <SDMMC_CmdBusWidth>
 8003924:	6ba3      	ldr	r3, [r4, #56]	; 0x38
 8003926:	4318      	orrs	r0, r3
 8003928:	63a0      	str	r0, [r4, #56]	; 0x38
 800392a:	6ba6      	ldr	r6, [r4, #56]	; 0x38
 800392c:	6827      	ldr	r7, [r4, #0]
 800392e:	2e00      	cmp	r6, #0
 8003930:	d043      	beq.n	80039ba <HAL_SD_ConfigWideBusOperation+0xf2>
 8003932:	4b2d      	ldr	r3, [pc, #180]	; (80039e8 <HAL_SD_ConfigWideBusOperation+0x120>)
 8003934:	63bb      	str	r3, [r7, #56]	; 0x38
 8003936:	2501      	movs	r5, #1
 8003938:	f884 5034 	strb.w	r5, [r4, #52]	; 0x34
 800393c:	6820      	ldr	r0, [r4, #0]
 800393e:	f44f 7100 	mov.w	r1, #512	; 0x200
 8003942:	f000 fc0c 	bl	800415e <SDMMC_CmdBlockLength>
 8003946:	b130      	cbz	r0, 8003956 <HAL_SD_ConfigWideBusOperation+0x8e>
 8003948:	6823      	ldr	r3, [r4, #0]
 800394a:	4a27      	ldr	r2, [pc, #156]	; (80039e8 <HAL_SD_ConfigWideBusOperation+0x120>)
 800394c:	639a      	str	r2, [r3, #56]	; 0x38
 800394e:	6ba3      	ldr	r3, [r4, #56]	; 0x38
 8003950:	4318      	orrs	r0, r3
 8003952:	63a0      	str	r0, [r4, #56]	; 0x38
 8003954:	2501      	movs	r5, #1
 8003956:	2301      	movs	r3, #1
 8003958:	4628      	mov	r0, r5
 800395a:	f884 3034 	strb.w	r3, [r4, #52]	; 0x34
 800395e:	b00b      	add	sp, #44	; 0x2c
 8003960:	bdf0      	pop	{r4, r5, r6, r7, pc}
 8003962:	4628      	mov	r0, r5
 8003964:	e7de      	b.n	8003924 <HAL_SD_ConfigWideBusOperation+0x5c>
 8003966:	f04f 6080 	mov.w	r0, #67108864	; 0x4000000
 800396a:	e7db      	b.n	8003924 <HAL_SD_ConfigWideBusOperation+0x5c>
 800396c:	bb01      	cbnz	r1, 80039b0 <HAL_SD_ConfigWideBusOperation+0xe8>
 800396e:	e9cd 1104 	strd	r1, r1, [sp, #16]
 8003972:	f000 fbde 	bl	8004132 <SDIO_GetResponse>
 8003976:	0182      	lsls	r2, r0, #6
 8003978:	d414      	bmi.n	80039a4 <HAL_SD_ConfigWideBusOperation+0xdc>
 800397a:	a904      	add	r1, sp, #16
 800397c:	4620      	mov	r0, r4
 800397e:	f7ff fc13 	bl	80031a8 <SD_FindSCR>
 8003982:	b960      	cbnz	r0, 800399e <HAL_SD_ConfigWideBusOperation+0xd6>
 8003984:	9b05      	ldr	r3, [sp, #20]
 8003986:	03db      	lsls	r3, r3, #15
 8003988:	d50f      	bpl.n	80039aa <HAL_SD_ConfigWideBusOperation+0xe2>
 800398a:	6d21      	ldr	r1, [r4, #80]	; 0x50
 800398c:	6820      	ldr	r0, [r4, #0]
 800398e:	0409      	lsls	r1, r1, #16
 8003990:	f000 fcf2 	bl	8004378 <SDMMC_CmdAppCommand>
 8003994:	b918      	cbnz	r0, 800399e <HAL_SD_ConfigWideBusOperation+0xd6>
 8003996:	4601      	mov	r1, r0
 8003998:	6820      	ldr	r0, [r4, #0]
 800399a:	f000 fd1e 	bl	80043da <SDMMC_CmdBusWidth>
 800399e:	6ba1      	ldr	r1, [r4, #56]	; 0x38
 80039a0:	4308      	orrs	r0, r1
 80039a2:	e7c1      	b.n	8003928 <HAL_SD_ConfigWideBusOperation+0x60>
 80039a4:	f44f 6000 	mov.w	r0, #2048	; 0x800
 80039a8:	e7f9      	b.n	800399e <HAL_SD_ConfigWideBusOperation+0xd6>
 80039aa:	f04f 6080 	mov.w	r0, #67108864	; 0x4000000
 80039ae:	e7f6      	b.n	800399e <HAL_SD_ConfigWideBusOperation+0xd6>
 80039b0:	6ba3      	ldr	r3, [r4, #56]	; 0x38
 80039b2:	f043 6300 	orr.w	r3, r3, #134217728	; 0x8000000
 80039b6:	63a3      	str	r3, [r4, #56]	; 0x38
 80039b8:	e7b7      	b.n	800392a <HAL_SD_ConfigWideBusOperation+0x62>
 80039ba:	6863      	ldr	r3, [r4, #4]
 80039bc:	9304      	str	r3, [sp, #16]
 80039be:	68a3      	ldr	r3, [r4, #8]
 80039c0:	9305      	str	r3, [sp, #20]
 80039c2:	68e3      	ldr	r3, [r4, #12]
 80039c4:	e9cd 3506 	strd	r3, r5, [sp, #24]
 80039c8:	6963      	ldr	r3, [r4, #20]
 80039ca:	9308      	str	r3, [sp, #32]
 80039cc:	69a3      	ldr	r3, [r4, #24]
 80039ce:	9309      	str	r3, [sp, #36]	; 0x24
 80039d0:	ab0a      	add	r3, sp, #40	; 0x28
 80039d2:	e913 0007 	ldmdb	r3, {r0, r1, r2}
 80039d6:	e88d 0007 	stmia.w	sp, {r0, r1, r2}
 80039da:	ab04      	add	r3, sp, #16
 80039dc:	cb0e      	ldmia	r3, {r1, r2, r3}
 80039de:	4638      	mov	r0, r7
 80039e0:	f000 fb64 	bl	80040ac <SDIO_Init>
 80039e4:	4635      	mov	r5, r6
 80039e6:	e7a9      	b.n	800393c <HAL_SD_ConfigWideBusOperation+0x74>
 80039e8:	004005ff 	.word	0x004005ff

080039ec <HAL_SD_GetCardState>:
 80039ec:	6d01      	ldr	r1, [r0, #80]	; 0x50
 80039ee:	b510      	push	{r4, lr}
 80039f0:	0409      	lsls	r1, r1, #16
 80039f2:	4604      	mov	r4, r0
 80039f4:	6800      	ldr	r0, [r0, #0]
 80039f6:	f000 fd9d 	bl	8004534 <SDMMC_CmdSendStatus>
 80039fa:	b930      	cbnz	r0, 8003a0a <HAL_SD_GetCardState+0x1e>
 80039fc:	4601      	mov	r1, r0
 80039fe:	6820      	ldr	r0, [r4, #0]
 8003a00:	f000 fb97 	bl	8004132 <SDIO_GetResponse>
 8003a04:	f3c0 2043 	ubfx	r0, r0, #9, #4
 8003a08:	bd10      	pop	{r4, pc}
 8003a0a:	6ba1      	ldr	r1, [r4, #56]	; 0x38
 8003a0c:	4308      	orrs	r0, r1
 8003a0e:	63a0      	str	r0, [r4, #56]	; 0x38
 8003a10:	2000      	movs	r0, #0
 8003a12:	e7f7      	b.n	8003a04 <HAL_SD_GetCardState+0x18>

08003a14 <SD_DMAError>:
 8003a14:	b510      	push	{r4, lr}
 8003a16:	6b84      	ldr	r4, [r0, #56]	; 0x38
 8003a18:	f7fe f9f4 	bl	8001e04 <HAL_DMA_GetError>
 8003a1c:	2802      	cmp	r0, #2
 8003a1e:	d026      	beq.n	8003a6e <SD_DMAError+0x5a>
 8003a20:	6c23      	ldr	r3, [r4, #64]	; 0x40
 8003a22:	6d5a      	ldr	r2, [r3, #84]	; 0x54
 8003a24:	6be3      	ldr	r3, [r4, #60]	; 0x3c
 8003a26:	2a01      	cmp	r2, #1
 8003a28:	6d5b      	ldr	r3, [r3, #84]	; 0x54
 8003a2a:	d001      	beq.n	8003a30 <SD_DMAError+0x1c>
 8003a2c:	2b01      	cmp	r3, #1
 8003a2e:	d11b      	bne.n	8003a68 <SD_DMAError+0x54>
 8003a30:	6823      	ldr	r3, [r4, #0]
 8003a32:	4a0f      	ldr	r2, [pc, #60]	; (8003a70 <SD_DMAError+0x5c>)
 8003a34:	639a      	str	r2, [r3, #56]	; 0x38
 8003a36:	6bda      	ldr	r2, [r3, #60]	; 0x3c
 8003a38:	f422 729d 	bic.w	r2, r2, #314	; 0x13a
 8003a3c:	63da      	str	r2, [r3, #60]	; 0x3c
 8003a3e:	6ba3      	ldr	r3, [r4, #56]	; 0x38
 8003a40:	f043 4380 	orr.w	r3, r3, #1073741824	; 0x40000000
 8003a44:	63a3      	str	r3, [r4, #56]	; 0x38
 8003a46:	4620      	mov	r0, r4
 8003a48:	f7ff ffd0 	bl	80039ec <HAL_SD_GetCardState>
 8003a4c:	3805      	subs	r0, #5
 8003a4e:	2801      	cmp	r0, #1
 8003a50:	d805      	bhi.n	8003a5e <SD_DMAError+0x4a>
 8003a52:	6820      	ldr	r0, [r4, #0]
 8003a54:	f000 fbfc 	bl	8004250 <SDMMC_CmdStopTransfer>
 8003a58:	6ba3      	ldr	r3, [r4, #56]	; 0x38
 8003a5a:	4318      	orrs	r0, r3
 8003a5c:	63a0      	str	r0, [r4, #56]	; 0x38
 8003a5e:	2301      	movs	r3, #1
 8003a60:	f884 3034 	strb.w	r3, [r4, #52]	; 0x34
 8003a64:	2300      	movs	r3, #0
 8003a66:	6323      	str	r3, [r4, #48]	; 0x30
 8003a68:	4620      	mov	r0, r4
 8003a6a:	f7ff fd29 	bl	80034c0 <HAL_SD_ErrorCallback>
 8003a6e:	bd10      	pop	{r4, pc}
 8003a70:	004005ff 	.word	0x004005ff

08003a74 <SD_DMATxAbort>:
 8003a74:	b510      	push	{r4, lr}
 8003a76:	6b84      	ldr	r4, [r0, #56]	; 0x38
 8003a78:	6823      	ldr	r3, [r4, #0]
 8003a7a:	f240 523a 	movw	r2, #1338	; 0x53a
 8003a7e:	639a      	str	r2, [r3, #56]	; 0x38
 8003a80:	4620      	mov	r0, r4
 8003a82:	f7ff ffb3 	bl	80039ec <HAL_SD_GetCardState>
 8003a86:	2301      	movs	r3, #1
 8003a88:	3805      	subs	r0, #5
 8003a8a:	f884 3034 	strb.w	r3, [r4, #52]	; 0x34
 8003a8e:	2801      	cmp	r0, #1
 8003a90:	f04f 0300 	mov.w	r3, #0
 8003a94:	6323      	str	r3, [r4, #48]	; 0x30
 8003a96:	d805      	bhi.n	8003aa4 <SD_DMATxAbort+0x30>
 8003a98:	6820      	ldr	r0, [r4, #0]
 8003a9a:	f000 fbd9 	bl	8004250 <SDMMC_CmdStopTransfer>
 8003a9e:	6ba3      	ldr	r3, [r4, #56]	; 0x38
 8003aa0:	4318      	orrs	r0, r3
 8003aa2:	63a0      	str	r0, [r4, #56]	; 0x38
 8003aa4:	6ba3      	ldr	r3, [r4, #56]	; 0x38
 8003aa6:	4620      	mov	r0, r4
 8003aa8:	b913      	cbnz	r3, 8003ab0 <SD_DMATxAbort+0x3c>
 8003aaa:	f000 fd98 	bl	80045de <HAL_SD_AbortCallback>
 8003aae:	bd10      	pop	{r4, pc}
 8003ab0:	f7ff fd06 	bl	80034c0 <HAL_SD_ErrorCallback>
 8003ab4:	e7fb      	b.n	8003aae <SD_DMATxAbort+0x3a>
	...

08003ab8 <HAL_SD_IRQHandler>:
 8003ab8:	e92d 41f3 	stmdb	sp!, {r0, r1, r4, r5, r6, r7, r8, lr}
 8003abc:	6b05      	ldr	r5, [r0, #48]	; 0x30
 8003abe:	4604      	mov	r4, r0
 8003ac0:	6800      	ldr	r0, [r0, #0]
 8003ac2:	6b43      	ldr	r3, [r0, #52]	; 0x34
 8003ac4:	041a      	lsls	r2, r3, #16
 8003ac6:	d51f      	bpl.n	8003b08 <HAL_SD_IRQHandler+0x50>
 8003ac8:	072b      	lsls	r3, r5, #28
 8003aca:	d51d      	bpl.n	8003b08 <HAL_SD_IRQHandler+0x50>
 8003acc:	6ae7      	ldr	r7, [r4, #44]	; 0x2c
 8003ace:	b1c7      	cbz	r7, 8003b02 <HAL_SD_IRQHandler+0x4a>
 8003ad0:	6aa6      	ldr	r6, [r4, #40]	; 0x28
 8003ad2:	1d35      	adds	r5, r6, #4
 8003ad4:	f106 0824 	add.w	r8, r6, #36	; 0x24
 8003ad8:	6820      	ldr	r0, [r4, #0]
 8003ada:	f000 fb03 	bl	80040e4 <SDIO_ReadFIFO>
 8003ade:	0a03      	lsrs	r3, r0, #8
 8003ae0:	f805 0c04 	strb.w	r0, [r5, #-4]
 8003ae4:	f805 3c03 	strb.w	r3, [r5, #-3]
 8003ae8:	0c03      	lsrs	r3, r0, #16
 8003aea:	0e00      	lsrs	r0, r0, #24
 8003aec:	f805 3c02 	strb.w	r3, [r5, #-2]
 8003af0:	f805 0c01 	strb.w	r0, [r5, #-1]
 8003af4:	3504      	adds	r5, #4
 8003af6:	4545      	cmp	r5, r8
 8003af8:	d1ee      	bne.n	8003ad8 <HAL_SD_IRQHandler+0x20>
 8003afa:	3620      	adds	r6, #32
 8003afc:	3f20      	subs	r7, #32
 8003afe:	62a6      	str	r6, [r4, #40]	; 0x28
 8003b00:	62e7      	str	r7, [r4, #44]	; 0x2c
 8003b02:	b002      	add	sp, #8
 8003b04:	e8bd 81f0 	ldmia.w	sp!, {r4, r5, r6, r7, r8, pc}
 8003b08:	6b43      	ldr	r3, [r0, #52]	; 0x34
 8003b0a:	05df      	lsls	r7, r3, #23
 8003b0c:	d545      	bpl.n	8003b9a <HAL_SD_IRQHandler+0xe2>
 8003b0e:	f44f 7380 	mov.w	r3, #256	; 0x100
 8003b12:	6383      	str	r3, [r0, #56]	; 0x38
 8003b14:	6bc3      	ldr	r3, [r0, #60]	; 0x3c
 8003b16:	f423 4343 	bic.w	r3, r3, #49920	; 0xc300
 8003b1a:	f023 033a 	bic.w	r3, r3, #58	; 0x3a
 8003b1e:	63c3      	str	r3, [r0, #60]	; 0x3c
 8003b20:	6ac3      	ldr	r3, [r0, #44]	; 0x2c
 8003b22:	072e      	lsls	r6, r5, #28
 8003b24:	f023 0301 	bic.w	r3, r3, #1
 8003b28:	62c3      	str	r3, [r0, #44]	; 0x2c
 8003b2a:	d51b      	bpl.n	8003b64 <HAL_SD_IRQHandler+0xac>
 8003b2c:	f015 0f22 	tst.w	r5, #34	; 0x22
 8003b30:	d008      	beq.n	8003b44 <HAL_SD_IRQHandler+0x8c>
 8003b32:	f000 fb8d 	bl	8004250 <SDMMC_CmdStopTransfer>
 8003b36:	b128      	cbz	r0, 8003b44 <HAL_SD_IRQHandler+0x8c>
 8003b38:	6ba3      	ldr	r3, [r4, #56]	; 0x38
 8003b3a:	4318      	orrs	r0, r3
 8003b3c:	63a0      	str	r0, [r4, #56]	; 0x38
 8003b3e:	4620      	mov	r0, r4
 8003b40:	f7ff fcbe 	bl	80034c0 <HAL_SD_ErrorCallback>
 8003b44:	6823      	ldr	r3, [r4, #0]
 8003b46:	f240 523a 	movw	r2, #1338	; 0x53a
 8003b4a:	639a      	str	r2, [r3, #56]	; 0x38
 8003b4c:	2301      	movs	r3, #1
 8003b4e:	f884 3034 	strb.w	r3, [r4, #52]	; 0x34
 8003b52:	07a9      	lsls	r1, r5, #30
 8003b54:	f04f 0300 	mov.w	r3, #0
 8003b58:	6323      	str	r3, [r4, #48]	; 0x30
 8003b5a:	4620      	mov	r0, r4
 8003b5c:	d01a      	beq.n	8003b94 <HAL_SD_IRQHandler+0xdc>
 8003b5e:	f000 fd46 	bl	80045ee <HAL_SD_RxCpltCallback>
 8003b62:	e7ce      	b.n	8003b02 <HAL_SD_IRQHandler+0x4a>
 8003b64:	062a      	lsls	r2, r5, #24
 8003b66:	d5cc      	bpl.n	8003b02 <HAL_SD_IRQHandler+0x4a>
 8003b68:	06ab      	lsls	r3, r5, #26
 8003b6a:	d508      	bpl.n	8003b7e <HAL_SD_IRQHandler+0xc6>
 8003b6c:	f000 fb70 	bl	8004250 <SDMMC_CmdStopTransfer>
 8003b70:	b128      	cbz	r0, 8003b7e <HAL_SD_IRQHandler+0xc6>
 8003b72:	6ba3      	ldr	r3, [r4, #56]	; 0x38
 8003b74:	4318      	orrs	r0, r3
 8003b76:	63a0      	str	r0, [r4, #56]	; 0x38
 8003b78:	4620      	mov	r0, r4
 8003b7a:	f7ff fca1 	bl	80034c0 <HAL_SD_ErrorCallback>
 8003b7e:	07af      	lsls	r7, r5, #30
 8003b80:	d1bf      	bne.n	8003b02 <HAL_SD_IRQHandler+0x4a>
 8003b82:	6822      	ldr	r2, [r4, #0]
 8003b84:	6ad3      	ldr	r3, [r2, #44]	; 0x2c
 8003b86:	f023 0308 	bic.w	r3, r3, #8
 8003b8a:	62d3      	str	r3, [r2, #44]	; 0x2c
 8003b8c:	2301      	movs	r3, #1
 8003b8e:	f884 3034 	strb.w	r3, [r4, #52]	; 0x34
 8003b92:	4620      	mov	r0, r4
 8003b94:	f000 fd27 	bl	80045e6 <HAL_SD_TxCpltCallback>
 8003b98:	e7b3      	b.n	8003b02 <HAL_SD_IRQHandler+0x4a>
 8003b9a:	6b43      	ldr	r3, [r0, #52]	; 0x34
 8003b9c:	045e      	lsls	r6, r3, #17
 8003b9e:	d526      	bpl.n	8003bee <HAL_SD_IRQHandler+0x136>
 8003ba0:	0729      	lsls	r1, r5, #28
 8003ba2:	d524      	bpl.n	8003bee <HAL_SD_IRQHandler+0x136>
 8003ba4:	6a67      	ldr	r7, [r4, #36]	; 0x24
 8003ba6:	2f00      	cmp	r7, #0
 8003ba8:	d0ab      	beq.n	8003b02 <HAL_SD_IRQHandler+0x4a>
 8003baa:	6a26      	ldr	r6, [r4, #32]
 8003bac:	1d35      	adds	r5, r6, #4
 8003bae:	f106 0824 	add.w	r8, r6, #36	; 0x24
 8003bb2:	f815 3c04 	ldrb.w	r3, [r5, #-4]
 8003bb6:	9301      	str	r3, [sp, #4]
 8003bb8:	f815 2c03 	ldrb.w	r2, [r5, #-3]
 8003bbc:	6820      	ldr	r0, [r4, #0]
 8003bbe:	ea43 2302 	orr.w	r3, r3, r2, lsl #8
 8003bc2:	9301      	str	r3, [sp, #4]
 8003bc4:	f815 2c02 	ldrb.w	r2, [r5, #-2]
 8003bc8:	ea43 4302 	orr.w	r3, r3, r2, lsl #16
 8003bcc:	9301      	str	r3, [sp, #4]
 8003bce:	f815 2c01 	ldrb.w	r2, [r5, #-1]
 8003bd2:	a901      	add	r1, sp, #4
 8003bd4:	ea43 6302 	orr.w	r3, r3, r2, lsl #24
 8003bd8:	3504      	adds	r5, #4
 8003bda:	9301      	str	r3, [sp, #4]
 8003bdc:	f000 fa85 	bl	80040ea <SDIO_WriteFIFO>
 8003be0:	4545      	cmp	r5, r8
 8003be2:	d1e6      	bne.n	8003bb2 <HAL_SD_IRQHandler+0xfa>
 8003be4:	3620      	adds	r6, #32
 8003be6:	3f20      	subs	r7, #32
 8003be8:	6226      	str	r6, [r4, #32]
 8003bea:	6267      	str	r7, [r4, #36]	; 0x24
 8003bec:	e789      	b.n	8003b02 <HAL_SD_IRQHandler+0x4a>
 8003bee:	6b42      	ldr	r2, [r0, #52]	; 0x34
 8003bf0:	f240 233a 	movw	r3, #570	; 0x23a
 8003bf4:	421a      	tst	r2, r3
 8003bf6:	d084      	beq.n	8003b02 <HAL_SD_IRQHandler+0x4a>
 8003bf8:	6b43      	ldr	r3, [r0, #52]	; 0x34
 8003bfa:	079a      	lsls	r2, r3, #30
 8003bfc:	bf42      	ittt	mi
 8003bfe:	6ba3      	ldrmi	r3, [r4, #56]	; 0x38
 8003c00:	f043 0302 	orrmi.w	r3, r3, #2
 8003c04:	63a3      	strmi	r3, [r4, #56]	; 0x38
 8003c06:	6b43      	ldr	r3, [r0, #52]	; 0x34
 8003c08:	071b      	lsls	r3, r3, #28
 8003c0a:	bf42      	ittt	mi
 8003c0c:	6ba3      	ldrmi	r3, [r4, #56]	; 0x38
 8003c0e:	f043 0308 	orrmi.w	r3, r3, #8
 8003c12:	63a3      	strmi	r3, [r4, #56]	; 0x38
 8003c14:	6b43      	ldr	r3, [r0, #52]	; 0x34
 8003c16:	069f      	lsls	r7, r3, #26
 8003c18:	bf42      	ittt	mi
 8003c1a:	6ba3      	ldrmi	r3, [r4, #56]	; 0x38
 8003c1c:	f043 0320 	orrmi.w	r3, r3, #32
 8003c20:	63a3      	strmi	r3, [r4, #56]	; 0x38
 8003c22:	6b43      	ldr	r3, [r0, #52]	; 0x34
 8003c24:	06de      	lsls	r6, r3, #27
 8003c26:	bf42      	ittt	mi
 8003c28:	6ba3      	ldrmi	r3, [r4, #56]	; 0x38
 8003c2a:	f043 0310 	orrmi.w	r3, r3, #16
 8003c2e:	63a3      	strmi	r3, [r4, #56]	; 0x38
 8003c30:	6b43      	ldr	r3, [r0, #52]	; 0x34
 8003c32:	0599      	lsls	r1, r3, #22
 8003c34:	bf42      	ittt	mi
 8003c36:	6ba3      	ldrmi	r3, [r4, #56]	; 0x38
 8003c38:	f043 0308 	orrmi.w	r3, r3, #8
 8003c3c:	63a3      	strmi	r3, [r4, #56]	; 0x38
 8003c3e:	f240 733a 	movw	r3, #1850	; 0x73a
 8003c42:	6383      	str	r3, [r0, #56]	; 0x38
 8003c44:	6bc3      	ldr	r3, [r0, #60]	; 0x3c
 8003c46:	f423 734e 	bic.w	r3, r3, #824	; 0x338
 8003c4a:	f023 0302 	bic.w	r3, r3, #2
 8003c4e:	63c3      	str	r3, [r0, #60]	; 0x3c
 8003c50:	f000 fafe 	bl	8004250 <SDMMC_CmdStopTransfer>
 8003c54:	6ba3      	ldr	r3, [r4, #56]	; 0x38
 8003c56:	072a      	lsls	r2, r5, #28
 8003c58:	ea40 0003 	orr.w	r0, r0, r3
 8003c5c:	63a0      	str	r0, [r4, #56]	; 0x38
 8003c5e:	d508      	bpl.n	8003c72 <HAL_SD_IRQHandler+0x1ba>
 8003c60:	2301      	movs	r3, #1
 8003c62:	f884 3034 	strb.w	r3, [r4, #52]	; 0x34
 8003c66:	2300      	movs	r3, #0
 8003c68:	6323      	str	r3, [r4, #48]	; 0x30
 8003c6a:	4620      	mov	r0, r4
 8003c6c:	f7ff fc28 	bl	80034c0 <HAL_SD_ErrorCallback>
 8003c70:	e747      	b.n	8003b02 <HAL_SD_IRQHandler+0x4a>
 8003c72:	062b      	lsls	r3, r5, #24
 8003c74:	f57f af45 	bpl.w	8003b02 <HAL_SD_IRQHandler+0x4a>
 8003c78:	f015 0f30 	tst.w	r5, #48	; 0x30
 8003c7c:	d00b      	beq.n	8003c96 <HAL_SD_IRQHandler+0x1de>
 8003c7e:	6be0      	ldr	r0, [r4, #60]	; 0x3c
 8003c80:	4b10      	ldr	r3, [pc, #64]	; (8003cc4 <HAL_SD_IRQHandler+0x20c>)
 8003c82:	6503      	str	r3, [r0, #80]	; 0x50
 8003c84:	f7fd ffee 	bl	8001c64 <HAL_DMA_Abort_IT>
 8003c88:	2800      	cmp	r0, #0
 8003c8a:	f43f af3a 	beq.w	8003b02 <HAL_SD_IRQHandler+0x4a>
 8003c8e:	6be0      	ldr	r0, [r4, #60]	; 0x3c
 8003c90:	f7ff fef0 	bl	8003a74 <SD_DMATxAbort>
 8003c94:	e735      	b.n	8003b02 <HAL_SD_IRQHandler+0x4a>
 8003c96:	f015 0503 	ands.w	r5, r5, #3
 8003c9a:	d009      	beq.n	8003cb0 <HAL_SD_IRQHandler+0x1f8>
 8003c9c:	6c20      	ldr	r0, [r4, #64]	; 0x40
 8003c9e:	4b0a      	ldr	r3, [pc, #40]	; (8003cc8 <HAL_SD_IRQHandler+0x210>)
 8003ca0:	6503      	str	r3, [r0, #80]	; 0x50
 8003ca2:	f7fd ffdf 	bl	8001c64 <HAL_DMA_Abort_IT>
 8003ca6:	2800      	cmp	r0, #0
 8003ca8:	f43f af2b 	beq.w	8003b02 <HAL_SD_IRQHandler+0x4a>
 8003cac:	6c20      	ldr	r0, [r4, #64]	; 0x40
 8003cae:	e7ef      	b.n	8003c90 <HAL_SD_IRQHandler+0x1d8>
 8003cb0:	2301      	movs	r3, #1
 8003cb2:	63a5      	str	r5, [r4, #56]	; 0x38
 8003cb4:	4620      	mov	r0, r4
 8003cb6:	f884 3034 	strb.w	r3, [r4, #52]	; 0x34
 8003cba:	6325      	str	r5, [r4, #48]	; 0x30
 8003cbc:	f000 fc8f 	bl	80045de <HAL_SD_AbortCallback>
 8003cc0:	e71f      	b.n	8003b02 <HAL_SD_IRQHandler+0x4a>
 8003cc2:	bf00      	nop
 8003cc4:	08003a75 	.word	0x08003a75
 8003cc8:	08003ccd 	.word	0x08003ccd

08003ccc <SD_DMARxAbort>:
 8003ccc:	f7ff bed2 	b.w	8003a74 <SD_DMATxAbort>

08003cd0 <UART_SetConfig>:
 8003cd0:	6802      	ldr	r2, [r0, #0]
 8003cd2:	68c1      	ldr	r1, [r0, #12]
 8003cd4:	b538      	push	{r3, r4, r5, lr}
 8003cd6:	6913      	ldr	r3, [r2, #16]
 8003cd8:	f423 5340 	bic.w	r3, r3, #12288	; 0x3000
 8003cdc:	430b      	orrs	r3, r1
 8003cde:	6113      	str	r3, [r2, #16]
 8003ce0:	4605      	mov	r5, r0
 8003ce2:	6883      	ldr	r3, [r0, #8]
 8003ce4:	6900      	ldr	r0, [r0, #16]
 8003ce6:	68d1      	ldr	r1, [r2, #12]
 8003ce8:	4303      	orrs	r3, r0
 8003cea:	6968      	ldr	r0, [r5, #20]
 8003cec:	4303      	orrs	r3, r0
 8003cee:	69e8      	ldr	r0, [r5, #28]
 8003cf0:	f421 4116 	bic.w	r1, r1, #38400	; 0x9600
 8003cf4:	f021 010c 	bic.w	r1, r1, #12
 8003cf8:	4303      	orrs	r3, r0
 8003cfa:	430b      	orrs	r3, r1
 8003cfc:	60d3      	str	r3, [r2, #12]
 8003cfe:	6953      	ldr	r3, [r2, #20]
 8003d00:	69a9      	ldr	r1, [r5, #24]
 8003d02:	f423 7340 	bic.w	r3, r3, #768	; 0x300
 8003d06:	430b      	orrs	r3, r1
 8003d08:	6153      	str	r3, [r2, #20]
 8003d0a:	4b1f      	ldr	r3, [pc, #124]	; (8003d88 <UART_SetConfig+0xb8>)
 8003d0c:	429a      	cmp	r2, r3
 8003d0e:	d003      	beq.n	8003d18 <UART_SetConfig+0x48>
 8003d10:	f503 6380 	add.w	r3, r3, #1024	; 0x400
 8003d14:	429a      	cmp	r2, r3
 8003d16:	d124      	bne.n	8003d62 <UART_SetConfig+0x92>
 8003d18:	f7ff f8a6 	bl	8002e68 <HAL_RCC_GetPCLK2Freq>
 8003d1c:	69ea      	ldr	r2, [r5, #28]
 8003d1e:	2319      	movs	r3, #25
 8003d20:	f5b2 4f00 	cmp.w	r2, #32768	; 0x8000
 8003d24:	fba0 0103 	umull	r0, r1, r0, r3
 8003d28:	e9d5 4300 	ldrd	r4, r3, [r5]
 8003d2c:	d11c      	bne.n	8003d68 <UART_SetConfig+0x98>
 8003d2e:	461a      	mov	r2, r3
 8003d30:	1892      	adds	r2, r2, r2
 8003d32:	f04f 0300 	mov.w	r3, #0
 8003d36:	415b      	adcs	r3, r3
 8003d38:	f7fc faa2 	bl	8000280 <__aeabi_uldivmod>
 8003d3c:	2164      	movs	r1, #100	; 0x64
 8003d3e:	fbb0 f5f1 	udiv	r5, r0, r1
 8003d42:	fb01 0315 	mls	r3, r1, r5, r0
 8003d46:	00db      	lsls	r3, r3, #3
 8003d48:	3332      	adds	r3, #50	; 0x32
 8003d4a:	fbb3 f3f1 	udiv	r3, r3, r1
 8003d4e:	f003 0207 	and.w	r2, r3, #7
 8003d52:	005b      	lsls	r3, r3, #1
 8003d54:	eb02 1205 	add.w	r2, r2, r5, lsl #4
 8003d58:	f403 73f8 	and.w	r3, r3, #496	; 0x1f0
 8003d5c:	4413      	add	r3, r2
 8003d5e:	60a3      	str	r3, [r4, #8]
 8003d60:	bd38      	pop	{r3, r4, r5, pc}
 8003d62:	f7ff f871 	bl	8002e48 <HAL_RCC_GetPCLK1Freq>
 8003d66:	e7d9      	b.n	8003d1c <UART_SetConfig+0x4c>
 8003d68:	009a      	lsls	r2, r3, #2
 8003d6a:	0f9b      	lsrs	r3, r3, #30
 8003d6c:	f7fc fa88 	bl	8000280 <__aeabi_uldivmod>
 8003d70:	2264      	movs	r2, #100	; 0x64
 8003d72:	fbb0 f1f2 	udiv	r1, r0, r2
 8003d76:	fb02 0311 	mls	r3, r2, r1, r0
 8003d7a:	011b      	lsls	r3, r3, #4
 8003d7c:	3332      	adds	r3, #50	; 0x32
 8003d7e:	fbb3 f3f2 	udiv	r3, r3, r2
 8003d82:	eb03 1301 	add.w	r3, r3, r1, lsl #4
 8003d86:	e7ea      	b.n	8003d5e <UART_SetConfig+0x8e>
 8003d88:	40011000 	.word	0x40011000

08003d8c <UART_WaitOnFlagUntilTimeout.constprop.0>:
 8003d8c:	b5f8      	push	{r3, r4, r5, r6, r7, lr}
 8003d8e:	4604      	mov	r4, r0
 8003d90:	460e      	mov	r6, r1
 8003d92:	4617      	mov	r7, r2
 8003d94:	461d      	mov	r5, r3
 8003d96:	6822      	ldr	r2, [r4, #0]
 8003d98:	6813      	ldr	r3, [r2, #0]
 8003d9a:	ea36 0303 	bics.w	r3, r6, r3
 8003d9e:	d101      	bne.n	8003da4 <UART_WaitOnFlagUntilTimeout.constprop.0+0x18>
 8003da0:	2000      	movs	r0, #0
 8003da2:	e028      	b.n	8003df6 <UART_WaitOnFlagUntilTimeout.constprop.0+0x6a>
 8003da4:	1c6b      	adds	r3, r5, #1
 8003da6:	d0f7      	beq.n	8003d98 <UART_WaitOnFlagUntilTimeout.constprop.0+0xc>
 8003da8:	b125      	cbz	r5, 8003db4 <UART_WaitOnFlagUntilTimeout.constprop.0+0x28>
 8003daa:	f7fd fddf 	bl	800196c <HAL_GetTick>
 8003dae:	1bc0      	subs	r0, r0, r7
 8003db0:	4285      	cmp	r5, r0
 8003db2:	d2f0      	bcs.n	8003d96 <UART_WaitOnFlagUntilTimeout.constprop.0+0xa>
 8003db4:	6822      	ldr	r2, [r4, #0]
 8003db6:	f102 030c 	add.w	r3, r2, #12
 8003dba:	e853 3f00 	ldrex	r3, [r3]
 8003dbe:	f423 73d0 	bic.w	r3, r3, #416	; 0x1a0
 8003dc2:	320c      	adds	r2, #12
 8003dc4:	e842 3000 	strex	r0, r3, [r2]
 8003dc8:	6821      	ldr	r1, [r4, #0]
 8003dca:	2800      	cmp	r0, #0
 8003dcc:	d1f2      	bne.n	8003db4 <UART_WaitOnFlagUntilTimeout.constprop.0+0x28>
 8003dce:	f101 0314 	add.w	r3, r1, #20
 8003dd2:	e853 3f00 	ldrex	r3, [r3]
 8003dd6:	f023 0301 	bic.w	r3, r3, #1
 8003dda:	f101 0014 	add.w	r0, r1, #20
 8003dde:	e840 3200 	strex	r2, r3, [r0]
 8003de2:	2a00      	cmp	r2, #0
 8003de4:	d1f3      	bne.n	8003dce <UART_WaitOnFlagUntilTimeout.constprop.0+0x42>
 8003de6:	2320      	movs	r3, #32
 8003de8:	f884 303d 	strb.w	r3, [r4, #61]	; 0x3d
 8003dec:	f884 203c 	strb.w	r2, [r4, #60]	; 0x3c
 8003df0:	f884 303e 	strb.w	r3, [r4, #62]	; 0x3e
 8003df4:	2003      	movs	r0, #3
 8003df6:	bdf8      	pop	{r3, r4, r5, r6, r7, pc}

08003df8 <HAL_UART_Init>:
 8003df8:	b510      	push	{r4, lr}
 8003dfa:	4604      	mov	r4, r0
 8003dfc:	b340      	cbz	r0, 8003e50 <HAL_UART_Init+0x58>
 8003dfe:	f890 303d 	ldrb.w	r3, [r0, #61]	; 0x3d
 8003e02:	f003 02ff 	and.w	r2, r3, #255	; 0xff
 8003e06:	b91b      	cbnz	r3, 8003e10 <HAL_UART_Init+0x18>
 8003e08:	f880 203c 	strb.w	r2, [r0, #60]	; 0x3c
 8003e0c:	f7fd fc98 	bl	8001740 <HAL_UART_MspInit>
 8003e10:	6822      	ldr	r2, [r4, #0]
 8003e12:	2324      	movs	r3, #36	; 0x24
 8003e14:	f884 303d 	strb.w	r3, [r4, #61]	; 0x3d
 8003e18:	68d3      	ldr	r3, [r2, #12]
 8003e1a:	f423 5300 	bic.w	r3, r3, #8192	; 0x2000
 8003e1e:	60d3      	str	r3, [r2, #12]
 8003e20:	4620      	mov	r0, r4
 8003e22:	f7ff ff55 	bl	8003cd0 <UART_SetConfig>
 8003e26:	6823      	ldr	r3, [r4, #0]
 8003e28:	691a      	ldr	r2, [r3, #16]
 8003e2a:	f422 4290 	bic.w	r2, r2, #18432	; 0x4800
 8003e2e:	611a      	str	r2, [r3, #16]
 8003e30:	695a      	ldr	r2, [r3, #20]
 8003e32:	f022 022a 	bic.w	r2, r2, #42	; 0x2a
 8003e36:	615a      	str	r2, [r3, #20]
 8003e38:	68da      	ldr	r2, [r3, #12]
 8003e3a:	f442 5200 	orr.w	r2, r2, #8192	; 0x2000
 8003e3e:	60da      	str	r2, [r3, #12]
 8003e40:	2000      	movs	r0, #0
 8003e42:	2320      	movs	r3, #32
 8003e44:	6420      	str	r0, [r4, #64]	; 0x40
 8003e46:	f884 303d 	strb.w	r3, [r4, #61]	; 0x3d
 8003e4a:	f884 303e 	strb.w	r3, [r4, #62]	; 0x3e
 8003e4e:	bd10      	pop	{r4, pc}
 8003e50:	2001      	movs	r0, #1
 8003e52:	e7fc      	b.n	8003e4e <HAL_UART_Init+0x56>

08003e54 <HAL_UART_Transmit>:
 8003e54:	b5f7      	push	{r0, r1, r2, r4, r5, r6, r7, lr}
 8003e56:	4617      	mov	r7, r2
 8003e58:	f890 203d 	ldrb.w	r2, [r0, #61]	; 0x3d
 8003e5c:	9300      	str	r3, [sp, #0]
 8003e5e:	2a20      	cmp	r2, #32
 8003e60:	4604      	mov	r4, r0
 8003e62:	460e      	mov	r6, r1
 8003e64:	d149      	bne.n	8003efa <HAL_UART_Transmit+0xa6>
 8003e66:	2900      	cmp	r1, #0
 8003e68:	d045      	beq.n	8003ef6 <HAL_UART_Transmit+0xa2>
 8003e6a:	2f00      	cmp	r7, #0
 8003e6c:	d043      	beq.n	8003ef6 <HAL_UART_Transmit+0xa2>
 8003e6e:	f890 203c 	ldrb.w	r2, [r0, #60]	; 0x3c
 8003e72:	2a01      	cmp	r2, #1
 8003e74:	d041      	beq.n	8003efa <HAL_UART_Transmit+0xa6>
 8003e76:	2201      	movs	r2, #1
 8003e78:	f880 203c 	strb.w	r2, [r0, #60]	; 0x3c
 8003e7c:	2500      	movs	r5, #0
 8003e7e:	2221      	movs	r2, #33	; 0x21
 8003e80:	6405      	str	r5, [r0, #64]	; 0x40
 8003e82:	f880 203d 	strb.w	r2, [r0, #61]	; 0x3d
 8003e86:	f7fd fd71 	bl	800196c <HAL_GetTick>
 8003e8a:	68a1      	ldr	r1, [r4, #8]
 8003e8c:	9b00      	ldr	r3, [sp, #0]
 8003e8e:	84a7      	strh	r7, [r4, #36]	; 0x24
 8003e90:	f5b1 5f80 	cmp.w	r1, #4096	; 0x1000
 8003e94:	4602      	mov	r2, r0
 8003e96:	84e7      	strh	r7, [r4, #38]	; 0x26
 8003e98:	d103      	bne.n	8003ea2 <HAL_UART_Transmit+0x4e>
 8003e9a:	6921      	ldr	r1, [r4, #16]
 8003e9c:	b909      	cbnz	r1, 8003ea2 <HAL_UART_Transmit+0x4e>
 8003e9e:	4635      	mov	r5, r6
 8003ea0:	460e      	mov	r6, r1
 8003ea2:	2100      	movs	r1, #0
 8003ea4:	f884 103c 	strb.w	r1, [r4, #60]	; 0x3c
 8003ea8:	8ce1      	ldrh	r1, [r4, #38]	; 0x26
 8003eaa:	b289      	uxth	r1, r1
 8003eac:	b941      	cbnz	r1, 8003ec0 <HAL_UART_Transmit+0x6c>
 8003eae:	2140      	movs	r1, #64	; 0x40
 8003eb0:	4620      	mov	r0, r4
 8003eb2:	f7ff ff6b 	bl	8003d8c <UART_WaitOnFlagUntilTimeout.constprop.0>
 8003eb6:	b960      	cbnz	r0, 8003ed2 <HAL_UART_Transmit+0x7e>
 8003eb8:	2320      	movs	r3, #32
 8003eba:	f884 303d 	strb.w	r3, [r4, #61]	; 0x3d
 8003ebe:	e009      	b.n	8003ed4 <HAL_UART_Transmit+0x80>
 8003ec0:	2180      	movs	r1, #128	; 0x80
 8003ec2:	4620      	mov	r0, r4
 8003ec4:	e9cd 2300 	strd	r2, r3, [sp]
 8003ec8:	f7ff ff60 	bl	8003d8c <UART_WaitOnFlagUntilTimeout.constprop.0>
 8003ecc:	e9dd 2300 	ldrd	r2, r3, [sp]
 8003ed0:	b110      	cbz	r0, 8003ed8 <HAL_UART_Transmit+0x84>
 8003ed2:	2003      	movs	r0, #3
 8003ed4:	b003      	add	sp, #12
 8003ed6:	bdf0      	pop	{r4, r5, r6, r7, pc}
 8003ed8:	6820      	ldr	r0, [r4, #0]
 8003eda:	b94e      	cbnz	r6, 8003ef0 <HAL_UART_Transmit+0x9c>
 8003edc:	f835 1b02 	ldrh.w	r1, [r5], #2
 8003ee0:	f3c1 0108 	ubfx	r1, r1, #0, #9
 8003ee4:	6041      	str	r1, [r0, #4]
 8003ee6:	8ce1      	ldrh	r1, [r4, #38]	; 0x26
 8003ee8:	3901      	subs	r1, #1
 8003eea:	b289      	uxth	r1, r1
 8003eec:	84e1      	strh	r1, [r4, #38]	; 0x26
 8003eee:	e7db      	b.n	8003ea8 <HAL_UART_Transmit+0x54>
 8003ef0:	f816 1b01 	ldrb.w	r1, [r6], #1
 8003ef4:	e7f6      	b.n	8003ee4 <HAL_UART_Transmit+0x90>
 8003ef6:	2001      	movs	r0, #1
 8003ef8:	e7ec      	b.n	8003ed4 <HAL_UART_Transmit+0x80>
 8003efa:	2002      	movs	r0, #2
 8003efc:	e7ea      	b.n	8003ed4 <HAL_UART_Transmit+0x80>
	...

08003f00 <SDMMC_GetCmdResp2>:
 8003f00:	4b11      	ldr	r3, [pc, #68]	; (8003f48 <SDMMC_GetCmdResp2+0x48>)
 8003f02:	f44f 51fa 	mov.w	r1, #8000	; 0x1f40
 8003f06:	681b      	ldr	r3, [r3, #0]
 8003f08:	fbb3 f1f1 	udiv	r1, r3, r1
 8003f0c:	f241 3388 	movw	r3, #5000	; 0x1388
 8003f10:	4602      	mov	r2, r0
 8003f12:	434b      	muls	r3, r1
 8003f14:	3b01      	subs	r3, #1
 8003f16:	d313      	bcc.n	8003f40 <SDMMC_GetCmdResp2+0x40>
 8003f18:	6b51      	ldr	r1, [r2, #52]	; 0x34
 8003f1a:	f011 0f45 	tst.w	r1, #69	; 0x45
 8003f1e:	d0f9      	beq.n	8003f14 <SDMMC_GetCmdResp2+0x14>
 8003f20:	0509      	lsls	r1, r1, #20
 8003f22:	d4f7      	bmi.n	8003f14 <SDMMC_GetCmdResp2+0x14>
 8003f24:	6b53      	ldr	r3, [r2, #52]	; 0x34
 8003f26:	075b      	lsls	r3, r3, #29
 8003f28:	d502      	bpl.n	8003f30 <SDMMC_GetCmdResp2+0x30>
 8003f2a:	2004      	movs	r0, #4
 8003f2c:	6390      	str	r0, [r2, #56]	; 0x38
 8003f2e:	4770      	bx	lr
 8003f30:	6b50      	ldr	r0, [r2, #52]	; 0x34
 8003f32:	f010 0001 	ands.w	r0, r0, #1
 8003f36:	bf14      	ite	ne
 8003f38:	2301      	movne	r3, #1
 8003f3a:	23c5      	moveq	r3, #197	; 0xc5
 8003f3c:	6393      	str	r3, [r2, #56]	; 0x38
 8003f3e:	4770      	bx	lr
 8003f40:	f04f 4000 	mov.w	r0, #2147483648	; 0x80000000
 8003f44:	4770      	bx	lr
 8003f46:	bf00      	nop
 8003f48:	20000088 	.word	0x20000088

08003f4c <SDMMC_GetCmdResp3>:
 8003f4c:	4b0e      	ldr	r3, [pc, #56]	; (8003f88 <SDMMC_GetCmdResp3+0x3c>)
 8003f4e:	f44f 51fa 	mov.w	r1, #8000	; 0x1f40
 8003f52:	681b      	ldr	r3, [r3, #0]
 8003f54:	fbb3 f1f1 	udiv	r1, r3, r1
 8003f58:	f241 3388 	movw	r3, #5000	; 0x1388
 8003f5c:	4602      	mov	r2, r0
 8003f5e:	434b      	muls	r3, r1
 8003f60:	3b01      	subs	r3, #1
 8003f62:	d30e      	bcc.n	8003f82 <SDMMC_GetCmdResp3+0x36>
 8003f64:	6b51      	ldr	r1, [r2, #52]	; 0x34
 8003f66:	f011 0f45 	tst.w	r1, #69	; 0x45
 8003f6a:	d0f9      	beq.n	8003f60 <SDMMC_GetCmdResp3+0x14>
 8003f6c:	0509      	lsls	r1, r1, #20
 8003f6e:	d4f7      	bmi.n	8003f60 <SDMMC_GetCmdResp3+0x14>
 8003f70:	6b50      	ldr	r0, [r2, #52]	; 0x34
 8003f72:	f010 0004 	ands.w	r0, r0, #4
 8003f76:	bf15      	itete	ne
 8003f78:	2004      	movne	r0, #4
 8003f7a:	23c5      	moveq	r3, #197	; 0xc5
 8003f7c:	6390      	strne	r0, [r2, #56]	; 0x38
 8003f7e:	6393      	streq	r3, [r2, #56]	; 0x38
 8003f80:	4770      	bx	lr
 8003f82:	f04f 4000 	mov.w	r0, #2147483648	; 0x80000000
 8003f86:	4770      	bx	lr
 8003f88:	20000088 	.word	0x20000088

08003f8c <SDMMC_GetCmdResp1>:
 8003f8c:	4b45      	ldr	r3, [pc, #276]	; (80040a4 <SDMMC_GetCmdResp1+0x118>)
 8003f8e:	b510      	push	{r4, lr}
 8003f90:	681b      	ldr	r3, [r3, #0]
 8003f92:	4604      	mov	r4, r0
 8003f94:	f44f 50fa 	mov.w	r0, #8000	; 0x1f40
 8003f98:	fbb3 f3f0 	udiv	r3, r3, r0
 8003f9c:	435a      	muls	r2, r3
 8003f9e:	2a00      	cmp	r2, #0
 8003fa0:	d049      	beq.n	8004036 <SDMMC_GetCmdResp1+0xaa>
 8003fa2:	6b63      	ldr	r3, [r4, #52]	; 0x34
 8003fa4:	f013 0f45 	tst.w	r3, #69	; 0x45
 8003fa8:	d007      	beq.n	8003fba <SDMMC_GetCmdResp1+0x2e>
 8003faa:	051b      	lsls	r3, r3, #20
 8003fac:	d405      	bmi.n	8003fba <SDMMC_GetCmdResp1+0x2e>
 8003fae:	6b63      	ldr	r3, [r4, #52]	; 0x34
 8003fb0:	0758      	lsls	r0, r3, #29
 8003fb2:	d504      	bpl.n	8003fbe <SDMMC_GetCmdResp1+0x32>
 8003fb4:	2004      	movs	r0, #4
 8003fb6:	63a0      	str	r0, [r4, #56]	; 0x38
 8003fb8:	bd10      	pop	{r4, pc}
 8003fba:	3a01      	subs	r2, #1
 8003fbc:	e7ef      	b.n	8003f9e <SDMMC_GetCmdResp1+0x12>
 8003fbe:	6b60      	ldr	r0, [r4, #52]	; 0x34
 8003fc0:	f010 0001 	ands.w	r0, r0, #1
 8003fc4:	d002      	beq.n	8003fcc <SDMMC_GetCmdResp1+0x40>
 8003fc6:	2301      	movs	r3, #1
 8003fc8:	63a3      	str	r3, [r4, #56]	; 0x38
 8003fca:	e7f5      	b.n	8003fb8 <SDMMC_GetCmdResp1+0x2c>
 8003fcc:	23c5      	movs	r3, #197	; 0xc5
 8003fce:	63a3      	str	r3, [r4, #56]	; 0x38
 8003fd0:	6923      	ldr	r3, [r4, #16]
 8003fd2:	b2db      	uxtb	r3, r3
 8003fd4:	4299      	cmp	r1, r3
 8003fd6:	d131      	bne.n	800403c <SDMMC_GetCmdResp1+0xb0>
 8003fd8:	6963      	ldr	r3, [r4, #20]
 8003fda:	4833      	ldr	r0, [pc, #204]	; (80040a8 <SDMMC_GetCmdResp1+0x11c>)
 8003fdc:	4018      	ands	r0, r3
 8003fde:	2800      	cmp	r0, #0
 8003fe0:	d0ea      	beq.n	8003fb8 <SDMMC_GetCmdResp1+0x2c>
 8003fe2:	2b00      	cmp	r3, #0
 8003fe4:	db2c      	blt.n	8004040 <SDMMC_GetCmdResp1+0xb4>
 8003fe6:	005a      	lsls	r2, r3, #1
 8003fe8:	d42d      	bmi.n	8004046 <SDMMC_GetCmdResp1+0xba>
 8003fea:	009c      	lsls	r4, r3, #2
 8003fec:	d42d      	bmi.n	800404a <SDMMC_GetCmdResp1+0xbe>
 8003fee:	00d9      	lsls	r1, r3, #3
 8003ff0:	d42d      	bmi.n	800404e <SDMMC_GetCmdResp1+0xc2>
 8003ff2:	011a      	lsls	r2, r3, #4
 8003ff4:	d42e      	bmi.n	8004054 <SDMMC_GetCmdResp1+0xc8>
 8003ff6:	015c      	lsls	r4, r3, #5
 8003ff8:	d42f      	bmi.n	800405a <SDMMC_GetCmdResp1+0xce>
 8003ffa:	01d9      	lsls	r1, r3, #7
 8003ffc:	d430      	bmi.n	8004060 <SDMMC_GetCmdResp1+0xd4>
 8003ffe:	021a      	lsls	r2, r3, #8
 8004000:	d431      	bmi.n	8004066 <SDMMC_GetCmdResp1+0xda>
 8004002:	025c      	lsls	r4, r3, #9
 8004004:	d432      	bmi.n	800406c <SDMMC_GetCmdResp1+0xe0>
 8004006:	0299      	lsls	r1, r3, #10
 8004008:	d433      	bmi.n	8004072 <SDMMC_GetCmdResp1+0xe6>
 800400a:	02da      	lsls	r2, r3, #11
 800400c:	d434      	bmi.n	8004078 <SDMMC_GetCmdResp1+0xec>
 800400e:	035c      	lsls	r4, r3, #13
 8004010:	d435      	bmi.n	800407e <SDMMC_GetCmdResp1+0xf2>
 8004012:	0399      	lsls	r1, r3, #14
 8004014:	d436      	bmi.n	8004084 <SDMMC_GetCmdResp1+0xf8>
 8004016:	03da      	lsls	r2, r3, #15
 8004018:	d437      	bmi.n	800408a <SDMMC_GetCmdResp1+0xfe>
 800401a:	041c      	lsls	r4, r3, #16
 800401c:	d438      	bmi.n	8004090 <SDMMC_GetCmdResp1+0x104>
 800401e:	0459      	lsls	r1, r3, #17
 8004020:	d439      	bmi.n	8004096 <SDMMC_GetCmdResp1+0x10a>
 8004022:	049a      	lsls	r2, r3, #18
 8004024:	d43a      	bmi.n	800409c <SDMMC_GetCmdResp1+0x110>
 8004026:	f013 0f08 	tst.w	r3, #8
 800402a:	bf14      	ite	ne
 800402c:	f44f 0000 	movne.w	r0, #8388608	; 0x800000
 8004030:	f44f 3080 	moveq.w	r0, #65536	; 0x10000
 8004034:	e7c0      	b.n	8003fb8 <SDMMC_GetCmdResp1+0x2c>
 8004036:	f04f 4000 	mov.w	r0, #2147483648	; 0x80000000
 800403a:	e7bd      	b.n	8003fb8 <SDMMC_GetCmdResp1+0x2c>
 800403c:	2001      	movs	r0, #1
 800403e:	e7bb      	b.n	8003fb8 <SDMMC_GetCmdResp1+0x2c>
 8004040:	f04f 7000 	mov.w	r0, #33554432	; 0x2000000
 8004044:	e7b8      	b.n	8003fb8 <SDMMC_GetCmdResp1+0x2c>
 8004046:	2040      	movs	r0, #64	; 0x40
 8004048:	e7b6      	b.n	8003fb8 <SDMMC_GetCmdResp1+0x2c>
 800404a:	2080      	movs	r0, #128	; 0x80
 800404c:	e7b4      	b.n	8003fb8 <SDMMC_GetCmdResp1+0x2c>
 800404e:	f44f 7080 	mov.w	r0, #256	; 0x100
 8004052:	e7b1      	b.n	8003fb8 <SDMMC_GetCmdResp1+0x2c>
 8004054:	f44f 7000 	mov.w	r0, #512	; 0x200
 8004058:	e7ae      	b.n	8003fb8 <SDMMC_GetCmdResp1+0x2c>
 800405a:	f44f 6080 	mov.w	r0, #1024	; 0x400
 800405e:	e7ab      	b.n	8003fb8 <SDMMC_GetCmdResp1+0x2c>
 8004060:	f44f 6000 	mov.w	r0, #2048	; 0x800
 8004064:	e7a8      	b.n	8003fb8 <SDMMC_GetCmdResp1+0x2c>
 8004066:	f44f 5080 	mov.w	r0, #4096	; 0x1000
 800406a:	e7a5      	b.n	8003fb8 <SDMMC_GetCmdResp1+0x2c>
 800406c:	f44f 5000 	mov.w	r0, #8192	; 0x2000
 8004070:	e7a2      	b.n	8003fb8 <SDMMC_GetCmdResp1+0x2c>
 8004072:	f44f 4080 	mov.w	r0, #16384	; 0x4000
 8004076:	e79f      	b.n	8003fb8 <SDMMC_GetCmdResp1+0x2c>
 8004078:	f44f 4000 	mov.w	r0, #32768	; 0x8000
 800407c:	e79c      	b.n	8003fb8 <SDMMC_GetCmdResp1+0x2c>
 800407e:	f44f 3000 	mov.w	r0, #131072	; 0x20000
 8004082:	e799      	b.n	8003fb8 <SDMMC_GetCmdResp1+0x2c>
 8004084:	f44f 2080 	mov.w	r0, #262144	; 0x40000
 8004088:	e796      	b.n	8003fb8 <SDMMC_GetCmdResp1+0x2c>
 800408a:	f44f 2000 	mov.w	r0, #524288	; 0x80000
 800408e:	e793      	b.n	8003fb8 <SDMMC_GetCmdResp1+0x2c>
 8004090:	f44f 1080 	mov.w	r0, #1048576	; 0x100000
 8004094:	e790      	b.n	8003fb8 <SDMMC_GetCmdResp1+0x2c>
 8004096:	f44f 1000 	mov.w	r0, #2097152	; 0x200000
 800409a:	e78d      	b.n	8003fb8 <SDMMC_GetCmdResp1+0x2c>
 800409c:	f44f 0080 	mov.w	r0, #4194304	; 0x400000
 80040a0:	e78a      	b.n	8003fb8 <SDMMC_GetCmdResp1+0x2c>
 80040a2:	bf00      	nop
 80040a4:	20000088 	.word	0x20000088
 80040a8:	fdffe008 	.word	0xfdffe008

080040ac <SDIO_Init>:
 80040ac:	b084      	sub	sp, #16
 80040ae:	b510      	push	{r4, lr}
 80040b0:	ac03      	add	r4, sp, #12
 80040b2:	e884 000e 	stmia.w	r4, {r1, r2, r3}
 80040b6:	460b      	mov	r3, r1
 80040b8:	9904      	ldr	r1, [sp, #16]
 80040ba:	6842      	ldr	r2, [r0, #4]
 80040bc:	430b      	orrs	r3, r1
 80040be:	9905      	ldr	r1, [sp, #20]
 80040c0:	430b      	orrs	r3, r1
 80040c2:	9906      	ldr	r1, [sp, #24]
 80040c4:	430b      	orrs	r3, r1
 80040c6:	9907      	ldr	r1, [sp, #28]
 80040c8:	430b      	orrs	r3, r1
 80040ca:	9908      	ldr	r1, [sp, #32]
 80040cc:	e8bd 4010 	ldmia.w	sp!, {r4, lr}
 80040d0:	f422 42fd 	bic.w	r2, r2, #32384	; 0x7e80
 80040d4:	430b      	orrs	r3, r1
 80040d6:	f022 027f 	bic.w	r2, r2, #127	; 0x7f
 80040da:	4313      	orrs	r3, r2
 80040dc:	6043      	str	r3, [r0, #4]
 80040de:	b004      	add	sp, #16
 80040e0:	2000      	movs	r0, #0
 80040e2:	4770      	bx	lr

080040e4 <SDIO_ReadFIFO>:
 80040e4:	f8d0 0080 	ldr.w	r0, [r0, #128]	; 0x80
 80040e8:	4770      	bx	lr

080040ea <SDIO_WriteFIFO>:
 80040ea:	680b      	ldr	r3, [r1, #0]
 80040ec:	f8c0 3080 	str.w	r3, [r0, #128]	; 0x80
 80040f0:	2000      	movs	r0, #0
 80040f2:	4770      	bx	lr

080040f4 <SDIO_PowerState_ON>:
 80040f4:	b508      	push	{r3, lr}
 80040f6:	2303      	movs	r3, #3
 80040f8:	6003      	str	r3, [r0, #0]
 80040fa:	2002      	movs	r0, #2
 80040fc:	f7fd fc3c 	bl	8001978 <HAL_Delay>
 8004100:	2000      	movs	r0, #0
 8004102:	bd08      	pop	{r3, pc}

08004104 <SDIO_GetPowerState>:
 8004104:	6800      	ldr	r0, [r0, #0]
 8004106:	f000 0003 	and.w	r0, r0, #3
 800410a:	4770      	bx	lr

0800410c <SDIO_SendCommand>:
 800410c:	680b      	ldr	r3, [r1, #0]
 800410e:	b510      	push	{r4, lr}
 8004110:	6083      	str	r3, [r0, #8]
 8004112:	e9d1 3401 	ldrd	r3, r4, [r1, #4]
 8004116:	68c2      	ldr	r2, [r0, #12]
 8004118:	4323      	orrs	r3, r4
 800411a:	68cc      	ldr	r4, [r1, #12]
 800411c:	6909      	ldr	r1, [r1, #16]
 800411e:	4323      	orrs	r3, r4
 8004120:	f422 627f 	bic.w	r2, r2, #4080	; 0xff0
 8004124:	430b      	orrs	r3, r1
 8004126:	f022 020f 	bic.w	r2, r2, #15
 800412a:	4313      	orrs	r3, r2
 800412c:	60c3      	str	r3, [r0, #12]
 800412e:	2000      	movs	r0, #0
 8004130:	bd10      	pop	{r4, pc}

08004132 <SDIO_GetResponse>:
 8004132:	3014      	adds	r0, #20
 8004134:	5840      	ldr	r0, [r0, r1]
 8004136:	4770      	bx	lr

08004138 <SDIO_ConfigData>:
 8004138:	680b      	ldr	r3, [r1, #0]
 800413a:	b510      	push	{r4, lr}
 800413c:	6243      	str	r3, [r0, #36]	; 0x24
 800413e:	684b      	ldr	r3, [r1, #4]
 8004140:	6283      	str	r3, [r0, #40]	; 0x28
 8004142:	e9d1 3402 	ldrd	r3, r4, [r1, #8]
 8004146:	4323      	orrs	r3, r4
 8004148:	690c      	ldr	r4, [r1, #16]
 800414a:	6ac2      	ldr	r2, [r0, #44]	; 0x2c
 800414c:	6949      	ldr	r1, [r1, #20]
 800414e:	4323      	orrs	r3, r4
 8004150:	430b      	orrs	r3, r1
 8004152:	f022 02f7 	bic.w	r2, r2, #247	; 0xf7
 8004156:	4313      	orrs	r3, r2
 8004158:	62c3      	str	r3, [r0, #44]	; 0x2c
 800415a:	2000      	movs	r0, #0
 800415c:	bd10      	pop	{r4, pc}

0800415e <SDMMC_CmdBlockLength>:
 800415e:	b530      	push	{r4, r5, lr}
 8004160:	b087      	sub	sp, #28
 8004162:	2510      	movs	r5, #16
 8004164:	2340      	movs	r3, #64	; 0x40
 8004166:	e9cd 5302 	strd	r5, r3, [sp, #8]
 800416a:	4604      	mov	r4, r0
 800416c:	f44f 6380 	mov.w	r3, #1024	; 0x400
 8004170:	9101      	str	r1, [sp, #4]
 8004172:	2200      	movs	r2, #0
 8004174:	a901      	add	r1, sp, #4
 8004176:	e9cd 2304 	strd	r2, r3, [sp, #16]
 800417a:	f7ff ffc7 	bl	800410c <SDIO_SendCommand>
 800417e:	f241 3288 	movw	r2, #5000	; 0x1388
 8004182:	4629      	mov	r1, r5
 8004184:	4620      	mov	r0, r4
 8004186:	f7ff ff01 	bl	8003f8c <SDMMC_GetCmdResp1>
 800418a:	b007      	add	sp, #28
 800418c:	bd30      	pop	{r4, r5, pc}

0800418e <SDMMC_CmdReadSingleBlock>:
 800418e:	b530      	push	{r4, r5, lr}
 8004190:	b087      	sub	sp, #28
 8004192:	2511      	movs	r5, #17
 8004194:	2340      	movs	r3, #64	; 0x40
 8004196:	e9cd 5302 	strd	r5, r3, [sp, #8]
 800419a:	4604      	mov	r4, r0
 800419c:	f44f 6380 	mov.w	r3, #1024	; 0x400
 80041a0:	9101      	str	r1, [sp, #4]
 80041a2:	2200      	movs	r2, #0
 80041a4:	a901      	add	r1, sp, #4
 80041a6:	e9cd 2304 	strd	r2, r3, [sp, #16]
 80041aa:	f7ff ffaf 	bl	800410c <SDIO_SendCommand>
 80041ae:	f241 3288 	movw	r2, #5000	; 0x1388
 80041b2:	4629      	mov	r1, r5
 80041b4:	4620      	mov	r0, r4
 80041b6:	f7ff fee9 	bl	8003f8c <SDMMC_GetCmdResp1>
 80041ba:	b007      	add	sp, #28
 80041bc:	bd30      	pop	{r4, r5, pc}

080041be <SDMMC_CmdReadMultiBlock>:
 80041be:	b530      	push	{r4, r5, lr}
 80041c0:	b087      	sub	sp, #28
 80041c2:	2512      	movs	r5, #18
 80041c4:	2340      	movs	r3, #64	; 0x40
 80041c6:	e9cd 5302 	strd	r5, r3, [sp, #8]
 80041ca:	4604      	mov	r4, r0
 80041cc:	f44f 6380 	mov.w	r3, #1024	; 0x400
 80041d0:	9101      	str	r1, [sp, #4]
 80041d2:	2200      	movs	r2, #0
 80041d4:	a901      	add	r1, sp, #4
 80041d6:	e9cd 2304 	strd	r2, r3, [sp, #16]
 80041da:	f7ff ff97 	bl	800410c <SDIO_SendCommand>
 80041de:	f241 3288 	movw	r2, #5000	; 0x1388
 80041e2:	4629      	mov	r1, r5
 80041e4:	4620      	mov	r0, r4
 80041e6:	f7ff fed1 	bl	8003f8c <SDMMC_GetCmdResp1>
 80041ea:	b007      	add	sp, #28
 80041ec:	bd30      	pop	{r4, r5, pc}

080041ee <SDMMC_CmdWriteSingleBlock>:
 80041ee:	b530      	push	{r4, r5, lr}
 80041f0:	b087      	sub	sp, #28
 80041f2:	2518      	movs	r5, #24
 80041f4:	2340      	movs	r3, #64	; 0x40
 80041f6:	e9cd 5302 	strd	r5, r3, [sp, #8]
 80041fa:	4604      	mov	r4, r0
 80041fc:	f44f 6380 	mov.w	r3, #1024	; 0x400
 8004200:	9101      	str	r1, [sp, #4]
 8004202:	2200      	movs	r2, #0
 8004204:	a901      	add	r1, sp, #4
 8004206:	e9cd 2304 	strd	r2, r3, [sp, #16]
 800420a:	f7ff ff7f 	bl	800410c <SDIO_SendCommand>
 800420e:	f241 3288 	movw	r2, #5000	; 0x1388
 8004212:	4629      	mov	r1, r5
 8004214:	4620      	mov	r0, r4
 8004216:	f7ff feb9 	bl	8003f8c <SDMMC_GetCmdResp1>
 800421a:	b007      	add	sp, #28
 800421c:	bd30      	pop	{r4, r5, pc}

0800421e <SDMMC_CmdWriteMultiBlock>:
 800421e:	b530      	push	{r4, r5, lr}
 8004220:	b087      	sub	sp, #28
 8004222:	2519      	movs	r5, #25
 8004224:	2340      	movs	r3, #64	; 0x40
 8004226:	e9cd 5302 	strd	r5, r3, [sp, #8]
 800422a:	4604      	mov	r4, r0
 800422c:	f44f 6380 	mov.w	r3, #1024	; 0x400
 8004230:	9101      	str	r1, [sp, #4]
 8004232:	2200      	movs	r2, #0
 8004234:	a901      	add	r1, sp, #4
 8004236:	e9cd 2304 	strd	r2, r3, [sp, #16]
 800423a:	f7ff ff67 	bl	800410c <SDIO_SendCommand>
 800423e:	f241 3288 	movw	r2, #5000	; 0x1388
 8004242:	4629      	mov	r1, r5
 8004244:	4620      	mov	r0, r4
 8004246:	f7ff fea1 	bl	8003f8c <SDMMC_GetCmdResp1>
 800424a:	b007      	add	sp, #28
 800424c:	bd30      	pop	{r4, r5, pc}
	...

08004250 <SDMMC_CmdStopTransfer>:
 8004250:	b530      	push	{r4, r5, lr}
 8004252:	2300      	movs	r3, #0
 8004254:	b087      	sub	sp, #28
 8004256:	250c      	movs	r5, #12
 8004258:	2240      	movs	r2, #64	; 0x40
 800425a:	e9cd 2303 	strd	r2, r3, [sp, #12]
 800425e:	e9cd 3501 	strd	r3, r5, [sp, #4]
 8004262:	4604      	mov	r4, r0
 8004264:	f44f 6380 	mov.w	r3, #1024	; 0x400
 8004268:	a901      	add	r1, sp, #4
 800426a:	9305      	str	r3, [sp, #20]
 800426c:	f7ff ff4e 	bl	800410c <SDIO_SendCommand>
 8004270:	4a03      	ldr	r2, [pc, #12]	; (8004280 <SDMMC_CmdStopTransfer+0x30>)
 8004272:	4629      	mov	r1, r5
 8004274:	4620      	mov	r0, r4
 8004276:	f7ff fe89 	bl	8003f8c <SDMMC_GetCmdResp1>
 800427a:	b007      	add	sp, #28
 800427c:	bd30      	pop	{r4, r5, pc}
 800427e:	bf00      	nop
 8004280:	05f5e100 	.word	0x05f5e100

08004284 <SDMMC_CmdSelDesel>:
 8004284:	b530      	push	{r4, r5, lr}
 8004286:	b087      	sub	sp, #28
 8004288:	2507      	movs	r5, #7
 800428a:	2340      	movs	r3, #64	; 0x40
 800428c:	e9cd 5302 	strd	r5, r3, [sp, #8]
 8004290:	4604      	mov	r4, r0
 8004292:	f44f 6380 	mov.w	r3, #1024	; 0x400
 8004296:	9201      	str	r2, [sp, #4]
 8004298:	a901      	add	r1, sp, #4
 800429a:	2200      	movs	r2, #0
 800429c:	e9cd 2304 	strd	r2, r3, [sp, #16]
 80042a0:	f7ff ff34 	bl	800410c <SDIO_SendCommand>
 80042a4:	f241 3288 	movw	r2, #5000	; 0x1388
 80042a8:	4629      	mov	r1, r5
 80042aa:	4620      	mov	r0, r4
 80042ac:	f7ff fe6e 	bl	8003f8c <SDMMC_GetCmdResp1>
 80042b0:	b007      	add	sp, #28
 80042b2:	bd30      	pop	{r4, r5, pc}

080042b4 <SDMMC_CmdGoIdleState>:
 80042b4:	b510      	push	{r4, lr}
 80042b6:	2300      	movs	r3, #0
 80042b8:	b086      	sub	sp, #24
 80042ba:	e9cd 3301 	strd	r3, r3, [sp, #4]
 80042be:	e9cd 3303 	strd	r3, r3, [sp, #12]
 80042c2:	a901      	add	r1, sp, #4
 80042c4:	f44f 6380 	mov.w	r3, #1024	; 0x400
 80042c8:	9305      	str	r3, [sp, #20]
 80042ca:	4604      	mov	r4, r0
 80042cc:	f7ff ff1e 	bl	800410c <SDIO_SendCommand>
 80042d0:	4b0a      	ldr	r3, [pc, #40]	; (80042fc <SDMMC_CmdGoIdleState+0x48>)
 80042d2:	f44f 52fa 	mov.w	r2, #8000	; 0x1f40
 80042d6:	681b      	ldr	r3, [r3, #0]
 80042d8:	fbb3 f2f2 	udiv	r2, r3, r2
 80042dc:	f241 3388 	movw	r3, #5000	; 0x1388
 80042e0:	4353      	muls	r3, r2
 80042e2:	3b01      	subs	r3, #1
 80042e4:	d307      	bcc.n	80042f6 <SDMMC_CmdGoIdleState+0x42>
 80042e6:	6b62      	ldr	r2, [r4, #52]	; 0x34
 80042e8:	0612      	lsls	r2, r2, #24
 80042ea:	d5fa      	bpl.n	80042e2 <SDMMC_CmdGoIdleState+0x2e>
 80042ec:	23c5      	movs	r3, #197	; 0xc5
 80042ee:	63a3      	str	r3, [r4, #56]	; 0x38
 80042f0:	2000      	movs	r0, #0
 80042f2:	b006      	add	sp, #24
 80042f4:	bd10      	pop	{r4, pc}
 80042f6:	f04f 4000 	mov.w	r0, #2147483648	; 0x80000000
 80042fa:	e7fa      	b.n	80042f2 <SDMMC_CmdGoIdleState+0x3e>
 80042fc:	20000088 	.word	0x20000088

08004300 <SDMMC_CmdOperCond>:
 8004300:	b510      	push	{r4, lr}
 8004302:	f44f 7cd5 	mov.w	ip, #426	; 0x1aa
 8004306:	b086      	sub	sp, #24
 8004308:	2308      	movs	r3, #8
 800430a:	e9cd c301 	strd	ip, r3, [sp, #4]
 800430e:	f04f 0e40 	mov.w	lr, #64	; 0x40
 8004312:	2300      	movs	r3, #0
 8004314:	e9cd e303 	strd	lr, r3, [sp, #12]
 8004318:	a901      	add	r1, sp, #4
 800431a:	f44f 6380 	mov.w	r3, #1024	; 0x400
 800431e:	9305      	str	r3, [sp, #20]
 8004320:	4604      	mov	r4, r0
 8004322:	f7ff fef3 	bl	800410c <SDIO_SendCommand>
 8004326:	4b13      	ldr	r3, [pc, #76]	; (8004374 <SDMMC_CmdOperCond+0x74>)
 8004328:	f44f 52fa 	mov.w	r2, #8000	; 0x1f40
 800432c:	681b      	ldr	r3, [r3, #0]
 800432e:	fbb3 f2f2 	udiv	r2, r3, r2
 8004332:	f241 3388 	movw	r3, #5000	; 0x1388
 8004336:	4353      	muls	r3, r2
 8004338:	3b01      	subs	r3, #1
 800433a:	d318      	bcc.n	800436e <SDMMC_CmdOperCond+0x6e>
 800433c:	6b62      	ldr	r2, [r4, #52]	; 0x34
 800433e:	f012 0f45 	tst.w	r2, #69	; 0x45
 8004342:	d0f9      	beq.n	8004338 <SDMMC_CmdOperCond+0x38>
 8004344:	0511      	lsls	r1, r2, #20
 8004346:	d4f7      	bmi.n	8004338 <SDMMC_CmdOperCond+0x38>
 8004348:	6b63      	ldr	r3, [r4, #52]	; 0x34
 800434a:	075a      	lsls	r2, r3, #29
 800434c:	d503      	bpl.n	8004356 <SDMMC_CmdOperCond+0x56>
 800434e:	2004      	movs	r0, #4
 8004350:	63a0      	str	r0, [r4, #56]	; 0x38
 8004352:	b006      	add	sp, #24
 8004354:	bd10      	pop	{r4, pc}
 8004356:	6b60      	ldr	r0, [r4, #52]	; 0x34
 8004358:	f010 0001 	ands.w	r0, r0, #1
 800435c:	d002      	beq.n	8004364 <SDMMC_CmdOperCond+0x64>
 800435e:	2301      	movs	r3, #1
 8004360:	63a3      	str	r3, [r4, #56]	; 0x38
 8004362:	e7f6      	b.n	8004352 <SDMMC_CmdOperCond+0x52>
 8004364:	6b63      	ldr	r3, [r4, #52]	; 0x34
 8004366:	065b      	lsls	r3, r3, #25
 8004368:	d5f3      	bpl.n	8004352 <SDMMC_CmdOperCond+0x52>
 800436a:	2340      	movs	r3, #64	; 0x40
 800436c:	e7f8      	b.n	8004360 <SDMMC_CmdOperCond+0x60>
 800436e:	f04f 4000 	mov.w	r0, #2147483648	; 0x80000000
 8004372:	e7ee      	b.n	8004352 <SDMMC_CmdOperCond+0x52>
 8004374:	20000088 	.word	0x20000088

08004378 <SDMMC_CmdAppCommand>:
 8004378:	b530      	push	{r4, r5, lr}
 800437a:	b087      	sub	sp, #28
 800437c:	2537      	movs	r5, #55	; 0x37
 800437e:	2340      	movs	r3, #64	; 0x40
 8004380:	e9cd 5302 	strd	r5, r3, [sp, #8]
 8004384:	4604      	mov	r4, r0
 8004386:	f44f 6380 	mov.w	r3, #1024	; 0x400
 800438a:	9101      	str	r1, [sp, #4]
 800438c:	2200      	movs	r2, #0
 800438e:	a901      	add	r1, sp, #4
 8004390:	e9cd 2304 	strd	r2, r3, [sp, #16]
 8004394:	f7ff feba 	bl	800410c <SDIO_SendCommand>
 8004398:	f241 3288 	movw	r2, #5000	; 0x1388
 800439c:	4629      	mov	r1, r5
 800439e:	4620      	mov	r0, r4
 80043a0:	f7ff fdf4 	bl	8003f8c <SDMMC_GetCmdResp1>
 80043a4:	b007      	add	sp, #28
 80043a6:	bd30      	pop	{r4, r5, pc}

080043a8 <SDMMC_CmdAppOperCommand>:
 80043a8:	b510      	push	{r4, lr}
 80043aa:	f041 4100 	orr.w	r1, r1, #2147483648	; 0x80000000
 80043ae:	b086      	sub	sp, #24
 80043b0:	2229      	movs	r2, #41	; 0x29
 80043b2:	f441 1180 	orr.w	r1, r1, #1048576	; 0x100000
 80043b6:	2340      	movs	r3, #64	; 0x40
 80043b8:	e9cd 2302 	strd	r2, r3, [sp, #8]
 80043bc:	9101      	str	r1, [sp, #4]
 80043be:	f44f 6380 	mov.w	r3, #1024	; 0x400
 80043c2:	2100      	movs	r1, #0
 80043c4:	e9cd 1304 	strd	r1, r3, [sp, #16]
 80043c8:	4604      	mov	r4, r0
 80043ca:	a901      	add	r1, sp, #4
 80043cc:	f7ff fe9e 	bl	800410c <SDIO_SendCommand>
 80043d0:	4620      	mov	r0, r4
 80043d2:	f7ff fdbb 	bl	8003f4c <SDMMC_GetCmdResp3>
 80043d6:	b006      	add	sp, #24
 80043d8:	bd10      	pop	{r4, pc}

080043da <SDMMC_CmdBusWidth>:
 80043da:	b530      	push	{r4, r5, lr}
 80043dc:	b087      	sub	sp, #28
 80043de:	2506      	movs	r5, #6
 80043e0:	2340      	movs	r3, #64	; 0x40
 80043e2:	e9cd 5302 	strd	r5, r3, [sp, #8]
 80043e6:	4604      	mov	r4, r0
 80043e8:	f44f 6380 	mov.w	r3, #1024	; 0x400
 80043ec:	9101      	str	r1, [sp, #4]
 80043ee:	2200      	movs	r2, #0
 80043f0:	a901      	add	r1, sp, #4
 80043f2:	e9cd 2304 	strd	r2, r3, [sp, #16]
 80043f6:	f7ff fe89 	bl	800410c <SDIO_SendCommand>
 80043fa:	f241 3288 	movw	r2, #5000	; 0x1388
 80043fe:	4629      	mov	r1, r5
 8004400:	4620      	mov	r0, r4
 8004402:	f7ff fdc3 	bl	8003f8c <SDMMC_GetCmdResp1>
 8004406:	b007      	add	sp, #28
 8004408:	bd30      	pop	{r4, r5, pc}

0800440a <SDMMC_CmdSendSCR>:
 800440a:	b530      	push	{r4, r5, lr}
 800440c:	2300      	movs	r3, #0
 800440e:	b087      	sub	sp, #28
 8004410:	2533      	movs	r5, #51	; 0x33
 8004412:	2240      	movs	r2, #64	; 0x40
 8004414:	e9cd 2303 	strd	r2, r3, [sp, #12]
 8004418:	e9cd 3501 	strd	r3, r5, [sp, #4]
 800441c:	4604      	mov	r4, r0
 800441e:	f44f 6380 	mov.w	r3, #1024	; 0x400
 8004422:	a901      	add	r1, sp, #4
 8004424:	9305      	str	r3, [sp, #20]
 8004426:	f7ff fe71 	bl	800410c <SDIO_SendCommand>
 800442a:	f241 3288 	movw	r2, #5000	; 0x1388
 800442e:	4629      	mov	r1, r5
 8004430:	4620      	mov	r0, r4
 8004432:	f7ff fdab 	bl	8003f8c <SDMMC_GetCmdResp1>
 8004436:	b007      	add	sp, #28
 8004438:	bd30      	pop	{r4, r5, pc}

0800443a <SDMMC_CmdSendCID>:
 800443a:	b510      	push	{r4, lr}
 800443c:	2300      	movs	r3, #0
 800443e:	b086      	sub	sp, #24
 8004440:	2202      	movs	r2, #2
 8004442:	e9cd 3201 	strd	r3, r2, [sp, #4]
 8004446:	22c0      	movs	r2, #192	; 0xc0
 8004448:	e9cd 2303 	strd	r2, r3, [sp, #12]
 800444c:	4604      	mov	r4, r0
 800444e:	f44f 6380 	mov.w	r3, #1024	; 0x400
 8004452:	a901      	add	r1, sp, #4
 8004454:	9305      	str	r3, [sp, #20]
 8004456:	f7ff fe59 	bl	800410c <SDIO_SendCommand>
 800445a:	4620      	mov	r0, r4
 800445c:	f7ff fd50 	bl	8003f00 <SDMMC_GetCmdResp2>
 8004460:	b006      	add	sp, #24
 8004462:	bd10      	pop	{r4, pc}

08004464 <SDMMC_CmdSendCSD>:
 8004464:	b510      	push	{r4, lr}
 8004466:	b086      	sub	sp, #24
 8004468:	2209      	movs	r2, #9
 800446a:	23c0      	movs	r3, #192	; 0xc0
 800446c:	e9cd 2302 	strd	r2, r3, [sp, #8]
 8004470:	9101      	str	r1, [sp, #4]
 8004472:	f44f 6380 	mov.w	r3, #1024	; 0x400
 8004476:	2100      	movs	r1, #0
 8004478:	e9cd 1304 	strd	r1, r3, [sp, #16]
 800447c:	4604      	mov	r4, r0
 800447e:	a901      	add	r1, sp, #4
 8004480:	f7ff fe44 	bl	800410c <SDIO_SendCommand>
 8004484:	4620      	mov	r0, r4
 8004486:	f7ff fd3b 	bl	8003f00 <SDMMC_GetCmdResp2>
 800448a:	b006      	add	sp, #24
 800448c:	bd10      	pop	{r4, pc}
	...

08004490 <SDMMC_CmdSetRelAdd>:
 8004490:	b530      	push	{r4, r5, lr}
 8004492:	2300      	movs	r3, #0
 8004494:	b087      	sub	sp, #28
 8004496:	2203      	movs	r2, #3
 8004498:	e9cd 3201 	strd	r3, r2, [sp, #4]
 800449c:	2240      	movs	r2, #64	; 0x40
 800449e:	e9cd 2303 	strd	r2, r3, [sp, #12]
 80044a2:	460d      	mov	r5, r1
 80044a4:	f44f 6380 	mov.w	r3, #1024	; 0x400
 80044a8:	a901      	add	r1, sp, #4
 80044aa:	9305      	str	r3, [sp, #20]
 80044ac:	4604      	mov	r4, r0
 80044ae:	f7ff fe2d 	bl	800410c <SDIO_SendCommand>
 80044b2:	4b1f      	ldr	r3, [pc, #124]	; (8004530 <SDMMC_CmdSetRelAdd+0xa0>)
 80044b4:	f44f 52fa 	mov.w	r2, #8000	; 0x1f40
 80044b8:	681b      	ldr	r3, [r3, #0]
 80044ba:	fbb3 f2f2 	udiv	r2, r3, r2
 80044be:	f241 3388 	movw	r3, #5000	; 0x1388
 80044c2:	4353      	muls	r3, r2
 80044c4:	3b01      	subs	r3, #1
 80044c6:	d32a      	bcc.n	800451e <SDMMC_CmdSetRelAdd+0x8e>
 80044c8:	6b62      	ldr	r2, [r4, #52]	; 0x34
 80044ca:	f012 0f45 	tst.w	r2, #69	; 0x45
 80044ce:	d0f9      	beq.n	80044c4 <SDMMC_CmdSetRelAdd+0x34>
 80044d0:	0510      	lsls	r0, r2, #20
 80044d2:	d4f7      	bmi.n	80044c4 <SDMMC_CmdSetRelAdd+0x34>
 80044d4:	6b63      	ldr	r3, [r4, #52]	; 0x34
 80044d6:	0759      	lsls	r1, r3, #29
 80044d8:	d503      	bpl.n	80044e2 <SDMMC_CmdSetRelAdd+0x52>
 80044da:	2004      	movs	r0, #4
 80044dc:	63a0      	str	r0, [r4, #56]	; 0x38
 80044de:	b007      	add	sp, #28
 80044e0:	bd30      	pop	{r4, r5, pc}
 80044e2:	6b60      	ldr	r0, [r4, #52]	; 0x34
 80044e4:	f010 0001 	ands.w	r0, r0, #1
 80044e8:	d002      	beq.n	80044f0 <SDMMC_CmdSetRelAdd+0x60>
 80044ea:	2301      	movs	r3, #1
 80044ec:	63a3      	str	r3, [r4, #56]	; 0x38
 80044ee:	e7f6      	b.n	80044de <SDMMC_CmdSetRelAdd+0x4e>
 80044f0:	6923      	ldr	r3, [r4, #16]
 80044f2:	b2db      	uxtb	r3, r3
 80044f4:	2b03      	cmp	r3, #3
 80044f6:	d115      	bne.n	8004524 <SDMMC_CmdSetRelAdd+0x94>
 80044f8:	23c5      	movs	r3, #197	; 0xc5
 80044fa:	63a3      	str	r3, [r4, #56]	; 0x38
 80044fc:	6963      	ldr	r3, [r4, #20]
 80044fe:	f413 4060 	ands.w	r0, r3, #57344	; 0xe000
 8004502:	d102      	bne.n	800450a <SDMMC_CmdSetRelAdd+0x7a>
 8004504:	0c1b      	lsrs	r3, r3, #16
 8004506:	802b      	strh	r3, [r5, #0]
 8004508:	e7e9      	b.n	80044de <SDMMC_CmdSetRelAdd+0x4e>
 800450a:	045a      	lsls	r2, r3, #17
 800450c:	d40c      	bmi.n	8004528 <SDMMC_CmdSetRelAdd+0x98>
 800450e:	f413 4f00 	tst.w	r3, #32768	; 0x8000
 8004512:	bf14      	ite	ne
 8004514:	f44f 5080 	movne.w	r0, #4096	; 0x1000
 8004518:	f44f 3080 	moveq.w	r0, #65536	; 0x10000
 800451c:	e7df      	b.n	80044de <SDMMC_CmdSetRelAdd+0x4e>
 800451e:	f04f 4000 	mov.w	r0, #2147483648	; 0x80000000
 8004522:	e7dc      	b.n	80044de <SDMMC_CmdSetRelAdd+0x4e>
 8004524:	2001      	movs	r0, #1
 8004526:	e7da      	b.n	80044de <SDMMC_CmdSetRelAdd+0x4e>
 8004528:	f44f 5000 	mov.w	r0, #8192	; 0x2000
 800452c:	e7d7      	b.n	80044de <SDMMC_CmdSetRelAdd+0x4e>
 800452e:	bf00      	nop
 8004530:	20000088 	.word	0x20000088

08004534 <SDMMC_CmdSendStatus>:
 8004534:	b530      	push	{r4, r5, lr}
 8004536:	b087      	sub	sp, #28
 8004538:	250d      	movs	r5, #13
 800453a:	2340      	movs	r3, #64	; 0x40
 800453c:	e9cd 5302 	strd	r5, r3, [sp, #8]
 8004540:	4604      	mov	r4, r0
 8004542:	f44f 6380 	mov.w	r3, #1024	; 0x400
 8004546:	9101      	str	r1, [sp, #4]
 8004548:	2200      	movs	r2, #0
 800454a:	a901      	add	r1, sp, #4
 800454c:	e9cd 2304 	strd	r2, r3, [sp, #16]
 8004550:	f7ff fddc 	bl	800410c <SDIO_SendCommand>
 8004554:	f241 3288 	movw	r2, #5000	; 0x1388
 8004558:	4629      	mov	r1, r5
 800455a:	4620      	mov	r0, r4
 800455c:	f7ff fd16 	bl	8003f8c <SDMMC_GetCmdResp1>
 8004560:	b007      	add	sp, #28
 8004562:	bd30      	pop	{r4, r5, pc}

08004564 <MX_FATFS_Init>:
 8004564:	b508      	push	{r3, lr}
 8004566:	4903      	ldr	r1, [pc, #12]	; (8004574 <MX_FATFS_Init+0x10>)
 8004568:	4803      	ldr	r0, [pc, #12]	; (8004578 <MX_FATFS_Init+0x14>)
 800456a:	f001 ffb3 	bl	80064d4 <FATFS_LinkDriver>
 800456e:	4b03      	ldr	r3, [pc, #12]	; (800457c <MX_FATFS_Init+0x18>)
 8004570:	7018      	strb	r0, [r3, #0]
 8004572:	bd08      	pop	{r3, pc}
 8004574:	20015c89 	.word	0x20015c89
 8004578:	0800797c 	.word	0x0800797c
 800457c:	20015c88 	.word	0x20015c88

08004580 <get_fattime>:
 8004580:	2000      	movs	r0, #0
 8004582:	4770      	bx	lr

08004584 <BSP_SD_ReadBlocks_DMA>:
 8004584:	b508      	push	{r3, lr}
 8004586:	4613      	mov	r3, r2
 8004588:	460a      	mov	r2, r1
 800458a:	4601      	mov	r1, r0
 800458c:	4803      	ldr	r0, [pc, #12]	; (800459c <BSP_SD_ReadBlocks_DMA+0x18>)
 800458e:	f7fe fe71 	bl	8003274 <HAL_SD_ReadBlocks_DMA>
 8004592:	3800      	subs	r0, #0
 8004594:	bf18      	it	ne
 8004596:	2001      	movne	r0, #1
 8004598:	bd08      	pop	{r3, pc}
 800459a:	bf00      	nop
 800459c:	20000754 	.word	0x20000754

080045a0 <BSP_SD_WriteBlocks_DMA>:
 80045a0:	b508      	push	{r3, lr}
 80045a2:	4613      	mov	r3, r2
 80045a4:	460a      	mov	r2, r1
 80045a6:	4601      	mov	r1, r0
 80045a8:	4803      	ldr	r0, [pc, #12]	; (80045b8 <BSP_SD_WriteBlocks_DMA+0x18>)
 80045aa:	f7fe fef9 	bl	80033a0 <HAL_SD_WriteBlocks_DMA>
 80045ae:	3800      	subs	r0, #0
 80045b0:	bf18      	it	ne
 80045b2:	2001      	movne	r0, #1
 80045b4:	bd08      	pop	{r3, pc}
 80045b6:	bf00      	nop
 80045b8:	20000754 	.word	0x20000754

080045bc <BSP_SD_GetCardState>:
 80045bc:	b508      	push	{r3, lr}
 80045be:	4803      	ldr	r0, [pc, #12]	; (80045cc <BSP_SD_GetCardState+0x10>)
 80045c0:	f7ff fa14 	bl	80039ec <HAL_SD_GetCardState>
 80045c4:	3804      	subs	r0, #4
 80045c6:	bf18      	it	ne
 80045c8:	2001      	movne	r0, #1
 80045ca:	bd08      	pop	{r3, pc}
 80045cc:	20000754 	.word	0x20000754

080045d0 <BSP_SD_GetCardInfo>:
 80045d0:	4601      	mov	r1, r0
 80045d2:	4801      	ldr	r0, [pc, #4]	; (80045d8 <BSP_SD_GetCardInfo+0x8>)
 80045d4:	f7ff b965 	b.w	80038a2 <HAL_SD_GetCardInfo>
 80045d8:	20000754 	.word	0x20000754

080045dc <BSP_SD_AbortCallback>:
 80045dc:	4770      	bx	lr

080045de <HAL_SD_AbortCallback>:
 80045de:	b508      	push	{r3, lr}
 80045e0:	f7ff fffc 	bl	80045dc <BSP_SD_AbortCallback>
 80045e4:	bd08      	pop	{r3, pc}

080045e6 <HAL_SD_TxCpltCallback>:
 80045e6:	b508      	push	{r3, lr}
 80045e8:	f000 f8ee 	bl	80047c8 <BSP_SD_WriteCpltCallback>
 80045ec:	bd08      	pop	{r3, pc}

080045ee <HAL_SD_RxCpltCallback>:
 80045ee:	b508      	push	{r3, lr}
 80045f0:	f000 f8f0 	bl	80047d4 <BSP_SD_ReadCpltCallback>
 80045f4:	bd08      	pop	{r3, pc}

080045f6 <BSP_SD_IsDetected>:
 80045f6:	b082      	sub	sp, #8
 80045f8:	2301      	movs	r3, #1
 80045fa:	f88d 3007 	strb.w	r3, [sp, #7]
 80045fe:	f89d 0007 	ldrb.w	r0, [sp, #7]
 8004602:	b002      	add	sp, #8
 8004604:	4770      	bx	lr
	...

08004608 <BSP_SD_Init>:
 8004608:	b508      	push	{r3, lr}
 800460a:	f7ff fff4 	bl	80045f6 <BSP_SD_IsDetected>
 800460e:	2801      	cmp	r0, #1
 8004610:	d10c      	bne.n	800462c <BSP_SD_Init+0x24>
 8004612:	4807      	ldr	r0, [pc, #28]	; (8004630 <BSP_SD_Init+0x28>)
 8004614:	f7ff f92a 	bl	800386c <HAL_SD_Init>
 8004618:	b938      	cbnz	r0, 800462a <BSP_SD_Init+0x22>
 800461a:	4805      	ldr	r0, [pc, #20]	; (8004630 <BSP_SD_Init+0x28>)
 800461c:	f44f 6100 	mov.w	r1, #2048	; 0x800
 8004620:	f7ff f952 	bl	80038c8 <HAL_SD_ConfigWideBusOperation>
 8004624:	3800      	subs	r0, #0
 8004626:	bf18      	it	ne
 8004628:	2001      	movne	r0, #1
 800462a:	bd08      	pop	{r3, pc}
 800462c:	2001      	movs	r0, #1
 800462e:	e7fc      	b.n	800462a <BSP_SD_Init+0x22>
 8004630:	20000754 	.word	0x20000754

08004634 <SD_CheckStatus.isra.0>:
 8004634:	b510      	push	{r4, lr}
 8004636:	4c06      	ldr	r4, [pc, #24]	; (8004650 <SD_CheckStatus.isra.0+0x1c>)
 8004638:	2301      	movs	r3, #1
 800463a:	7023      	strb	r3, [r4, #0]
 800463c:	f7ff ffbe 	bl	80045bc <BSP_SD_GetCardState>
 8004640:	4623      	mov	r3, r4
 8004642:	b918      	cbnz	r0, 800464c <SD_CheckStatus.isra.0+0x18>
 8004644:	7822      	ldrb	r2, [r4, #0]
 8004646:	f002 02fe 	and.w	r2, r2, #254	; 0xfe
 800464a:	7022      	strb	r2, [r4, #0]
 800464c:	7818      	ldrb	r0, [r3, #0]
 800464e:	bd10      	pop	{r4, pc}
 8004650:	20000094 	.word	0x20000094

08004654 <SD_initialize>:
 8004654:	b510      	push	{r4, lr}
 8004656:	f7ff ffd7 	bl	8004608 <BSP_SD_Init>
 800465a:	4c03      	ldr	r4, [pc, #12]	; (8004668 <SD_initialize+0x14>)
 800465c:	b910      	cbnz	r0, 8004664 <SD_initialize+0x10>
 800465e:	f7ff ffe9 	bl	8004634 <SD_CheckStatus.isra.0>
 8004662:	7020      	strb	r0, [r4, #0]
 8004664:	7820      	ldrb	r0, [r4, #0]
 8004666:	bd10      	pop	{r4, pc}
 8004668:	20000094 	.word	0x20000094

0800466c <SD_status>:
 800466c:	f7ff bfe2 	b.w	8004634 <SD_CheckStatus.isra.0>

08004670 <SD_ioctl>:
 8004670:	b530      	push	{r4, r5, lr}
 8004672:	4b13      	ldr	r3, [pc, #76]	; (80046c0 <SD_ioctl+0x50>)
 8004674:	781c      	ldrb	r4, [r3, #0]
 8004676:	f014 0401 	ands.w	r4, r4, #1
 800467a:	b089      	sub	sp, #36	; 0x24
 800467c:	4615      	mov	r5, r2
 800467e:	d11b      	bne.n	80046b8 <SD_ioctl+0x48>
 8004680:	2903      	cmp	r1, #3
 8004682:	d803      	bhi.n	800468c <SD_ioctl+0x1c>
 8004684:	e8df f001 	tbb	[pc, r1]
 8004688:	120c061a 	.word	0x120c061a
 800468c:	2404      	movs	r4, #4
 800468e:	4620      	mov	r0, r4
 8004690:	b009      	add	sp, #36	; 0x24
 8004692:	bd30      	pop	{r4, r5, pc}
 8004694:	4668      	mov	r0, sp
 8004696:	f7ff ff9b 	bl	80045d0 <BSP_SD_GetCardInfo>
 800469a:	9b06      	ldr	r3, [sp, #24]
 800469c:	602b      	str	r3, [r5, #0]
 800469e:	e7f6      	b.n	800468e <SD_ioctl+0x1e>
 80046a0:	4668      	mov	r0, sp
 80046a2:	f7ff ff95 	bl	80045d0 <BSP_SD_GetCardInfo>
 80046a6:	9b07      	ldr	r3, [sp, #28]
 80046a8:	802b      	strh	r3, [r5, #0]
 80046aa:	e7f0      	b.n	800468e <SD_ioctl+0x1e>
 80046ac:	4668      	mov	r0, sp
 80046ae:	f7ff ff8f 	bl	80045d0 <BSP_SD_GetCardInfo>
 80046b2:	9b07      	ldr	r3, [sp, #28]
 80046b4:	0a5b      	lsrs	r3, r3, #9
 80046b6:	e7f1      	b.n	800469c <SD_ioctl+0x2c>
 80046b8:	2403      	movs	r4, #3
 80046ba:	e7e8      	b.n	800468e <SD_ioctl+0x1e>
 80046bc:	460c      	mov	r4, r1
 80046be:	e7e6      	b.n	800468e <SD_ioctl+0x1e>
 80046c0:	20000094 	.word	0x20000094

080046c4 <SD_CheckStatusWithTimeout.constprop.0>:
 80046c4:	b538      	push	{r3, r4, r5, lr}
 80046c6:	f7fd f951 	bl	800196c <HAL_GetTick>
 80046ca:	f247 552f 	movw	r5, #29999	; 0x752f
 80046ce:	4604      	mov	r4, r0
 80046d0:	f7fd f94c 	bl	800196c <HAL_GetTick>
 80046d4:	1b03      	subs	r3, r0, r4
 80046d6:	42ab      	cmp	r3, r5
 80046d8:	d902      	bls.n	80046e0 <SD_CheckStatusWithTimeout.constprop.0+0x1c>
 80046da:	f04f 30ff 	mov.w	r0, #4294967295
 80046de:	e003      	b.n	80046e8 <SD_CheckStatusWithTimeout.constprop.0+0x24>
 80046e0:	f7ff ff6c 	bl	80045bc <BSP_SD_GetCardState>
 80046e4:	2800      	cmp	r0, #0
 80046e6:	d1f3      	bne.n	80046d0 <SD_CheckStatusWithTimeout.constprop.0+0xc>
 80046e8:	bd38      	pop	{r3, r4, r5, pc}
	...

080046ec <SD_write>:
 80046ec:	b573      	push	{r0, r1, r4, r5, r6, lr}
 80046ee:	4c1a      	ldr	r4, [pc, #104]	; (8004758 <SD_write+0x6c>)
 80046f0:	9300      	str	r3, [sp, #0]
 80046f2:	2300      	movs	r3, #0
 80046f4:	460d      	mov	r5, r1
 80046f6:	9201      	str	r2, [sp, #4]
 80046f8:	6023      	str	r3, [r4, #0]
 80046fa:	f7ff ffe3 	bl	80046c4 <SD_CheckStatusWithTimeout.constprop.0>
 80046fe:	2800      	cmp	r0, #0
 8004700:	e9dd 2100 	ldrd	r2, r1, [sp]
 8004704:	da02      	bge.n	800470c <SD_write+0x20>
 8004706:	2001      	movs	r0, #1
 8004708:	b002      	add	sp, #8
 800470a:	bd70      	pop	{r4, r5, r6, pc}
 800470c:	4628      	mov	r0, r5
 800470e:	f7ff ff47 	bl	80045a0 <BSP_SD_WriteBlocks_DMA>
 8004712:	2800      	cmp	r0, #0
 8004714:	d1f7      	bne.n	8004706 <SD_write+0x1a>
 8004716:	f7fd f929 	bl	800196c <HAL_GetTick>
 800471a:	f247 562f 	movw	r6, #29999	; 0x752f
 800471e:	4605      	mov	r5, r0
 8004720:	6823      	ldr	r3, [r4, #0]
 8004722:	b923      	cbnz	r3, 800472e <SD_write+0x42>
 8004724:	f7fd f922 	bl	800196c <HAL_GetTick>
 8004728:	1b43      	subs	r3, r0, r5
 800472a:	42b3      	cmp	r3, r6
 800472c:	d9f8      	bls.n	8004720 <SD_write+0x34>
 800472e:	6823      	ldr	r3, [r4, #0]
 8004730:	2b00      	cmp	r3, #0
 8004732:	d0e8      	beq.n	8004706 <SD_write+0x1a>
 8004734:	2300      	movs	r3, #0
 8004736:	6023      	str	r3, [r4, #0]
 8004738:	f7fd f918 	bl	800196c <HAL_GetTick>
 800473c:	f247 552f 	movw	r5, #29999	; 0x752f
 8004740:	4604      	mov	r4, r0
 8004742:	f7fd f913 	bl	800196c <HAL_GetTick>
 8004746:	1b03      	subs	r3, r0, r4
 8004748:	42ab      	cmp	r3, r5
 800474a:	d8dc      	bhi.n	8004706 <SD_write+0x1a>
 800474c:	f7ff ff36 	bl	80045bc <BSP_SD_GetCardState>
 8004750:	2800      	cmp	r0, #0
 8004752:	d1f6      	bne.n	8004742 <SD_write+0x56>
 8004754:	e7d8      	b.n	8004708 <SD_write+0x1c>
 8004756:	bf00      	nop
 8004758:	20000148 	.word	0x20000148

0800475c <SD_read>:
 800475c:	b573      	push	{r0, r1, r4, r5, r6, lr}
 800475e:	460c      	mov	r4, r1
 8004760:	9201      	str	r2, [sp, #4]
 8004762:	9300      	str	r3, [sp, #0]
 8004764:	f7ff ffae 	bl	80046c4 <SD_CheckStatusWithTimeout.constprop.0>
 8004768:	2800      	cmp	r0, #0
 800476a:	e9dd 2100 	ldrd	r2, r1, [sp]
 800476e:	da02      	bge.n	8004776 <SD_read+0x1a>
 8004770:	2001      	movs	r0, #1
 8004772:	b002      	add	sp, #8
 8004774:	bd70      	pop	{r4, r5, r6, pc}
 8004776:	4620      	mov	r0, r4
 8004778:	f7ff ff04 	bl	8004584 <BSP_SD_ReadBlocks_DMA>
 800477c:	2800      	cmp	r0, #0
 800477e:	d1f7      	bne.n	8004770 <SD_read+0x14>
 8004780:	4c10      	ldr	r4, [pc, #64]	; (80047c4 <SD_read+0x68>)
 8004782:	6020      	str	r0, [r4, #0]
 8004784:	f7fd f8f2 	bl	800196c <HAL_GetTick>
 8004788:	f247 562f 	movw	r6, #29999	; 0x752f
 800478c:	4605      	mov	r5, r0
 800478e:	6823      	ldr	r3, [r4, #0]
 8004790:	b923      	cbnz	r3, 800479c <SD_read+0x40>
 8004792:	f7fd f8eb 	bl	800196c <HAL_GetTick>
 8004796:	1b43      	subs	r3, r0, r5
 8004798:	42b3      	cmp	r3, r6
 800479a:	d9f8      	bls.n	800478e <SD_read+0x32>
 800479c:	6823      	ldr	r3, [r4, #0]
 800479e:	2b00      	cmp	r3, #0
 80047a0:	d0e6      	beq.n	8004770 <SD_read+0x14>
 80047a2:	2300      	movs	r3, #0
 80047a4:	6023      	str	r3, [r4, #0]
 80047a6:	f7fd f8e1 	bl	800196c <HAL_GetTick>
 80047aa:	f247 552f 	movw	r5, #29999	; 0x752f
 80047ae:	4604      	mov	r4, r0
 80047b0:	f7fd f8dc 	bl	800196c <HAL_GetTick>
 80047b4:	1b03      	subs	r3, r0, r4
 80047b6:	42ab      	cmp	r3, r5
 80047b8:	d8da      	bhi.n	8004770 <SD_read+0x14>
 80047ba:	f7ff feff 	bl	80045bc <BSP_SD_GetCardState>
 80047be:	2800      	cmp	r0, #0
 80047c0:	d1f6      	bne.n	80047b0 <SD_read+0x54>
 80047c2:	e7d6      	b.n	8004772 <SD_read+0x16>
 80047c4:	20000144 	.word	0x20000144

080047c8 <BSP_SD_WriteCpltCallback>:
 80047c8:	4b01      	ldr	r3, [pc, #4]	; (80047d0 <BSP_SD_WriteCpltCallback+0x8>)
 80047ca:	2201      	movs	r2, #1
 80047cc:	601a      	str	r2, [r3, #0]
 80047ce:	4770      	bx	lr
 80047d0:	20000148 	.word	0x20000148

080047d4 <BSP_SD_ReadCpltCallback>:
 80047d4:	4b01      	ldr	r3, [pc, #4]	; (80047dc <BSP_SD_ReadCpltCallback+0x8>)
 80047d6:	2201      	movs	r2, #1
 80047d8:	601a      	str	r2, [r3, #0]
 80047da:	4770      	bx	lr
 80047dc:	20000144 	.word	0x20000144

080047e0 <disk_status>:
 80047e0:	4b03      	ldr	r3, [pc, #12]	; (80047f0 <disk_status+0x10>)
 80047e2:	181a      	adds	r2, r3, r0
 80047e4:	eb03 0080 	add.w	r0, r3, r0, lsl #2
 80047e8:	6843      	ldr	r3, [r0, #4]
 80047ea:	7a10      	ldrb	r0, [r2, #8]
 80047ec:	685b      	ldr	r3, [r3, #4]
 80047ee:	4718      	bx	r3
 80047f0:	20000174 	.word	0x20000174

080047f4 <disk_initialize>:
 80047f4:	4b06      	ldr	r3, [pc, #24]	; (8004810 <disk_initialize+0x1c>)
 80047f6:	5c1a      	ldrb	r2, [r3, r0]
 80047f8:	b942      	cbnz	r2, 800480c <disk_initialize+0x18>
 80047fa:	2201      	movs	r2, #1
 80047fc:	541a      	strb	r2, [r3, r0]
 80047fe:	181a      	adds	r2, r3, r0
 8004800:	eb03 0380 	add.w	r3, r3, r0, lsl #2
 8004804:	7a10      	ldrb	r0, [r2, #8]
 8004806:	685b      	ldr	r3, [r3, #4]
 8004808:	681b      	ldr	r3, [r3, #0]
 800480a:	4718      	bx	r3
 800480c:	2000      	movs	r0, #0
 800480e:	4770      	bx	lr
 8004810:	20000174 	.word	0x20000174

08004814 <disk_read>:
 8004814:	b430      	push	{r4, r5}
 8004816:	4c05      	ldr	r4, [pc, #20]	; (800482c <disk_read+0x18>)
 8004818:	1825      	adds	r5, r4, r0
 800481a:	eb04 0080 	add.w	r0, r4, r0, lsl #2
 800481e:	6840      	ldr	r0, [r0, #4]
 8004820:	6884      	ldr	r4, [r0, #8]
 8004822:	7a28      	ldrb	r0, [r5, #8]
 8004824:	46a4      	mov	ip, r4
 8004826:	bc30      	pop	{r4, r5}
 8004828:	4760      	bx	ip
 800482a:	bf00      	nop
 800482c:	20000174 	.word	0x20000174

08004830 <disk_write>:
 8004830:	b430      	push	{r4, r5}
 8004832:	4c05      	ldr	r4, [pc, #20]	; (8004848 <disk_write+0x18>)
 8004834:	1825      	adds	r5, r4, r0
 8004836:	eb04 0080 	add.w	r0, r4, r0, lsl #2
 800483a:	6840      	ldr	r0, [r0, #4]
 800483c:	68c4      	ldr	r4, [r0, #12]
 800483e:	7a28      	ldrb	r0, [r5, #8]
 8004840:	46a4      	mov	ip, r4
 8004842:	bc30      	pop	{r4, r5}
 8004844:	4760      	bx	ip
 8004846:	bf00      	nop
 8004848:	20000174 	.word	0x20000174

0800484c <disk_ioctl>:
 800484c:	4b05      	ldr	r3, [pc, #20]	; (8004864 <disk_ioctl+0x18>)
 800484e:	b410      	push	{r4}
 8004850:	181c      	adds	r4, r3, r0
 8004852:	eb03 0080 	add.w	r0, r3, r0, lsl #2
 8004856:	6843      	ldr	r3, [r0, #4]
 8004858:	7a20      	ldrb	r0, [r4, #8]
 800485a:	691b      	ldr	r3, [r3, #16]
 800485c:	f85d 4b04 	ldr.w	r4, [sp], #4
 8004860:	4718      	bx	r3
 8004862:	bf00      	nop
 8004864:	20000174 	.word	0x20000174

08004868 <ld_dword>:
 8004868:	8842      	ldrh	r2, [r0, #2]
 800486a:	7843      	ldrb	r3, [r0, #1]
 800486c:	7800      	ldrb	r0, [r0, #0]
 800486e:	ea43 2302 	orr.w	r3, r3, r2, lsl #8
 8004872:	ea40 2003 	orr.w	r0, r0, r3, lsl #8
 8004876:	4770      	bx	lr

08004878 <st_dword>:
 8004878:	0a0b      	lsrs	r3, r1, #8
 800487a:	7001      	strb	r1, [r0, #0]
 800487c:	7043      	strb	r3, [r0, #1]
 800487e:	0c0b      	lsrs	r3, r1, #16
 8004880:	0e09      	lsrs	r1, r1, #24
 8004882:	7083      	strb	r3, [r0, #2]
 8004884:	70c1      	strb	r1, [r0, #3]
 8004886:	4770      	bx	lr

08004888 <mem_set>:
 8004888:	4402      	add	r2, r0
 800488a:	f800 1b01 	strb.w	r1, [r0], #1
 800488e:	4290      	cmp	r0, r2
 8004890:	d1fb      	bne.n	800488a <mem_set+0x2>
 8004892:	4770      	bx	lr

08004894 <chk_lock>:
 8004894:	4a1b      	ldr	r2, [pc, #108]	; (8004904 <chk_lock+0x70>)
 8004896:	6813      	ldr	r3, [r2, #0]
 8004898:	b530      	push	{r4, r5, lr}
 800489a:	b163      	cbz	r3, 80048b6 <chk_lock+0x22>
 800489c:	6804      	ldr	r4, [r0, #0]
 800489e:	429c      	cmp	r4, r3
 80048a0:	d107      	bne.n	80048b2 <chk_lock+0x1e>
 80048a2:	6854      	ldr	r4, [r2, #4]
 80048a4:	6883      	ldr	r3, [r0, #8]
 80048a6:	429c      	cmp	r4, r3
 80048a8:	d103      	bne.n	80048b2 <chk_lock+0x1e>
 80048aa:	6894      	ldr	r4, [r2, #8]
 80048ac:	6943      	ldr	r3, [r0, #20]
 80048ae:	429c      	cmp	r4, r3
 80048b0:	d020      	beq.n	80048f4 <chk_lock+0x60>
 80048b2:	2400      	movs	r4, #0
 80048b4:	e000      	b.n	80048b8 <chk_lock+0x24>
 80048b6:	2401      	movs	r4, #1
 80048b8:	6913      	ldr	r3, [r2, #16]
 80048ba:	b1cb      	cbz	r3, 80048f0 <chk_lock+0x5c>
 80048bc:	6805      	ldr	r5, [r0, #0]
 80048be:	42ab      	cmp	r3, r5
 80048c0:	d107      	bne.n	80048d2 <chk_lock+0x3e>
 80048c2:	6955      	ldr	r5, [r2, #20]
 80048c4:	6883      	ldr	r3, [r0, #8]
 80048c6:	429d      	cmp	r5, r3
 80048c8:	d103      	bne.n	80048d2 <chk_lock+0x3e>
 80048ca:	6995      	ldr	r5, [r2, #24]
 80048cc:	6943      	ldr	r3, [r0, #20]
 80048ce:	429d      	cmp	r5, r3
 80048d0:	d015      	beq.n	80048fe <chk_lock+0x6a>
 80048d2:	b96c      	cbnz	r4, 80048f0 <chk_lock+0x5c>
 80048d4:	2902      	cmp	r1, #2
 80048d6:	bf0c      	ite	eq
 80048d8:	2000      	moveq	r0, #0
 80048da:	2012      	movne	r0, #18
 80048dc:	bd30      	pop	{r4, r5, pc}
 80048de:	eb02 1203 	add.w	r2, r2, r3, lsl #4
 80048e2:	8993      	ldrh	r3, [r2, #12]
 80048e4:	f5b3 7f80 	cmp.w	r3, #256	; 0x100
 80048e8:	bf14      	ite	ne
 80048ea:	2000      	movne	r0, #0
 80048ec:	2010      	moveq	r0, #16
 80048ee:	e7f5      	b.n	80048dc <chk_lock+0x48>
 80048f0:	2000      	movs	r0, #0
 80048f2:	e7f3      	b.n	80048dc <chk_lock+0x48>
 80048f4:	2300      	movs	r3, #0
 80048f6:	2900      	cmp	r1, #0
 80048f8:	d0f1      	beq.n	80048de <chk_lock+0x4a>
 80048fa:	2010      	movs	r0, #16
 80048fc:	e7ee      	b.n	80048dc <chk_lock+0x48>
 80048fe:	2301      	movs	r3, #1
 8004900:	e7f9      	b.n	80048f6 <chk_lock+0x62>
 8004902:	bf00      	nop
 8004904:	20000150 	.word	0x20000150

08004908 <inc_lock>:
 8004908:	4a1f      	ldr	r2, [pc, #124]	; (8004988 <inc_lock+0x80>)
 800490a:	b5f0      	push	{r4, r5, r6, r7, lr}
 800490c:	6813      	ldr	r3, [r2, #0]
 800490e:	6806      	ldr	r6, [r0, #0]
 8004910:	429e      	cmp	r6, r3
 8004912:	d107      	bne.n	8004924 <inc_lock+0x1c>
 8004914:	6855      	ldr	r5, [r2, #4]
 8004916:	6884      	ldr	r4, [r0, #8]
 8004918:	42a5      	cmp	r5, r4
 800491a:	d103      	bne.n	8004924 <inc_lock+0x1c>
 800491c:	6945      	ldr	r5, [r0, #20]
 800491e:	6894      	ldr	r4, [r2, #8]
 8004920:	42a5      	cmp	r5, r4
 8004922:	d01b      	beq.n	800495c <inc_lock+0x54>
 8004924:	6914      	ldr	r4, [r2, #16]
 8004926:	42b4      	cmp	r4, r6
 8004928:	d107      	bne.n	800493a <inc_lock+0x32>
 800492a:	6957      	ldr	r7, [r2, #20]
 800492c:	6885      	ldr	r5, [r0, #8]
 800492e:	42af      	cmp	r7, r5
 8004930:	d103      	bne.n	800493a <inc_lock+0x32>
 8004932:	6997      	ldr	r7, [r2, #24]
 8004934:	6945      	ldr	r5, [r0, #20]
 8004936:	42af      	cmp	r7, r5
 8004938:	d019      	beq.n	800496e <inc_lock+0x66>
 800493a:	b10b      	cbz	r3, 8004940 <inc_lock+0x38>
 800493c:	b9ac      	cbnz	r4, 800496a <inc_lock+0x62>
 800493e:	2301      	movs	r3, #1
 8004940:	011d      	lsls	r5, r3, #4
 8004942:	eb02 1403 	add.w	r4, r2, r3, lsl #4
 8004946:	5156      	str	r6, [r2, r5]
 8004948:	6885      	ldr	r5, [r0, #8]
 800494a:	6940      	ldr	r0, [r0, #20]
 800494c:	60a0      	str	r0, [r4, #8]
 800494e:	2000      	movs	r0, #0
 8004950:	6065      	str	r5, [r4, #4]
 8004952:	81a0      	strh	r0, [r4, #12]
 8004954:	b169      	cbz	r1, 8004972 <inc_lock+0x6a>
 8004956:	f44f 7180 	mov.w	r1, #256	; 0x100
 800495a:	e00f      	b.n	800497c <inc_lock+0x74>
 800495c:	2300      	movs	r3, #0
 800495e:	b141      	cbz	r1, 8004972 <inc_lock+0x6a>
 8004960:	eb02 1103 	add.w	r1, r2, r3, lsl #4
 8004964:	8989      	ldrh	r1, [r1, #12]
 8004966:	2900      	cmp	r1, #0
 8004968:	d0f5      	beq.n	8004956 <inc_lock+0x4e>
 800496a:	2000      	movs	r0, #0
 800496c:	e00a      	b.n	8004984 <inc_lock+0x7c>
 800496e:	2301      	movs	r3, #1
 8004970:	e7f5      	b.n	800495e <inc_lock+0x56>
 8004972:	eb02 1103 	add.w	r1, r2, r3, lsl #4
 8004976:	8989      	ldrh	r1, [r1, #12]
 8004978:	3101      	adds	r1, #1
 800497a:	b289      	uxth	r1, r1
 800497c:	eb02 1203 	add.w	r2, r2, r3, lsl #4
 8004980:	1c58      	adds	r0, r3, #1
 8004982:	8191      	strh	r1, [r2, #12]
 8004984:	bdf0      	pop	{r4, r5, r6, r7, pc}
 8004986:	bf00      	nop
 8004988:	20000150 	.word	0x20000150

0800498c <dec_lock>:
 800498c:	3801      	subs	r0, #1
 800498e:	2801      	cmp	r0, #1
 8004990:	d815      	bhi.n	80049be <dec_lock+0x32>
 8004992:	4a0c      	ldr	r2, [pc, #48]	; (80049c4 <dec_lock+0x38>)
 8004994:	0101      	lsls	r1, r0, #4
 8004996:	eb02 1000 	add.w	r0, r2, r0, lsl #4
 800499a:	8983      	ldrh	r3, [r0, #12]
 800499c:	f5b3 7f80 	cmp.w	r3, #256	; 0x100
 80049a0:	d104      	bne.n	80049ac <dec_lock+0x20>
 80049a2:	2300      	movs	r3, #0
 80049a4:	8183      	strh	r3, [r0, #12]
 80049a6:	2000      	movs	r0, #0
 80049a8:	5050      	str	r0, [r2, r1]
 80049aa:	4770      	bx	lr
 80049ac:	2b00      	cmp	r3, #0
 80049ae:	d0fa      	beq.n	80049a6 <dec_lock+0x1a>
 80049b0:	3b01      	subs	r3, #1
 80049b2:	b29b      	uxth	r3, r3
 80049b4:	8183      	strh	r3, [r0, #12]
 80049b6:	2b00      	cmp	r3, #0
 80049b8:	d0f5      	beq.n	80049a6 <dec_lock+0x1a>
 80049ba:	2000      	movs	r0, #0
 80049bc:	4770      	bx	lr
 80049be:	2002      	movs	r0, #2
 80049c0:	4770      	bx	lr
 80049c2:	bf00      	nop
 80049c4:	20000150 	.word	0x20000150

080049c8 <clust2sect>:
 80049c8:	6983      	ldr	r3, [r0, #24]
 80049ca:	3902      	subs	r1, #2
 80049cc:	3b02      	subs	r3, #2
 80049ce:	428b      	cmp	r3, r1
 80049d0:	bf83      	ittte	hi
 80049d2:	8943      	ldrhhi	r3, [r0, #10]
 80049d4:	6ac0      	ldrhi	r0, [r0, #44]	; 0x2c
 80049d6:	fb01 0003 	mlahi	r0, r1, r3, r0
 80049da:	2000      	movls	r0, #0
 80049dc:	4770      	bx	lr

080049de <clmt_clust>:
 80049de:	6ac3      	ldr	r3, [r0, #44]	; 0x2c
 80049e0:	6802      	ldr	r2, [r0, #0]
 80049e2:	3304      	adds	r3, #4
 80049e4:	8952      	ldrh	r2, [r2, #10]
 80049e6:	0a49      	lsrs	r1, r1, #9
 80049e8:	fbb1 f1f2 	udiv	r1, r1, r2
 80049ec:	6818      	ldr	r0, [r3, #0]
 80049ee:	b130      	cbz	r0, 80049fe <clmt_clust+0x20>
 80049f0:	4281      	cmp	r1, r0
 80049f2:	d302      	bcc.n	80049fa <clmt_clust+0x1c>
 80049f4:	1a09      	subs	r1, r1, r0
 80049f6:	3308      	adds	r3, #8
 80049f8:	e7f8      	b.n	80049ec <clmt_clust+0xe>
 80049fa:	6858      	ldr	r0, [r3, #4]
 80049fc:	4408      	add	r0, r1
 80049fe:	4770      	bx	lr

08004a00 <sum_sfn>:
 8004a00:	f100 010b 	add.w	r1, r0, #11
 8004a04:	2200      	movs	r2, #0
 8004a06:	01d3      	lsls	r3, r2, #7
 8004a08:	ea43 0352 	orr.w	r3, r3, r2, lsr #1
 8004a0c:	f810 2b01 	ldrb.w	r2, [r0], #1
 8004a10:	fa52 f383 	uxtab	r3, r2, r3
 8004a14:	4288      	cmp	r0, r1
 8004a16:	b2da      	uxtb	r2, r3
 8004a18:	d1f5      	bne.n	8004a06 <sum_sfn+0x6>
 8004a1a:	4610      	mov	r0, r2
 8004a1c:	4770      	bx	lr

08004a1e <get_ldnumber>:
 8004a1e:	6802      	ldr	r2, [r0, #0]
 8004a20:	b510      	push	{r4, lr}
 8004a22:	b152      	cbz	r2, 8004a3a <get_ldnumber+0x1c>
 8004a24:	4611      	mov	r1, r2
 8004a26:	460b      	mov	r3, r1
 8004a28:	f811 4b01 	ldrb.w	r4, [r1], #1
 8004a2c:	2c1f      	cmp	r4, #31
 8004a2e:	d90c      	bls.n	8004a4a <get_ldnumber+0x2c>
 8004a30:	2c3a      	cmp	r4, #58	; 0x3a
 8004a32:	d1f8      	bne.n	8004a26 <get_ldnumber+0x8>
 8004a34:	1c51      	adds	r1, r2, #1
 8004a36:	428b      	cmp	r3, r1
 8004a38:	d002      	beq.n	8004a40 <get_ldnumber+0x22>
 8004a3a:	f04f 30ff 	mov.w	r0, #4294967295
 8004a3e:	e005      	b.n	8004a4c <get_ldnumber+0x2e>
 8004a40:	7812      	ldrb	r2, [r2, #0]
 8004a42:	2a30      	cmp	r2, #48	; 0x30
 8004a44:	d1f9      	bne.n	8004a3a <get_ldnumber+0x1c>
 8004a46:	3301      	adds	r3, #1
 8004a48:	6003      	str	r3, [r0, #0]
 8004a4a:	2000      	movs	r0, #0
 8004a4c:	bd10      	pop	{r4, pc}

08004a4e <validate>:
 8004a4e:	b538      	push	{r3, r4, r5, lr}
 8004a50:	460d      	mov	r5, r1
 8004a52:	4604      	mov	r4, r0
 8004a54:	b918      	cbnz	r0, 8004a5e <validate+0x10>
 8004a56:	2009      	movs	r0, #9
 8004a58:	2300      	movs	r3, #0
 8004a5a:	602b      	str	r3, [r5, #0]
 8004a5c:	bd38      	pop	{r3, r4, r5, pc}
 8004a5e:	6803      	ldr	r3, [r0, #0]
 8004a60:	2b00      	cmp	r3, #0
 8004a62:	d0f8      	beq.n	8004a56 <validate+0x8>
 8004a64:	781a      	ldrb	r2, [r3, #0]
 8004a66:	2a00      	cmp	r2, #0
 8004a68:	d0f5      	beq.n	8004a56 <validate+0x8>
 8004a6a:	8881      	ldrh	r1, [r0, #4]
 8004a6c:	88da      	ldrh	r2, [r3, #6]
 8004a6e:	4291      	cmp	r1, r2
 8004a70:	d1f1      	bne.n	8004a56 <validate+0x8>
 8004a72:	7858      	ldrb	r0, [r3, #1]
 8004a74:	f7ff feb4 	bl	80047e0 <disk_status>
 8004a78:	f010 0001 	ands.w	r0, r0, #1
 8004a7c:	d1eb      	bne.n	8004a56 <validate+0x8>
 8004a7e:	6823      	ldr	r3, [r4, #0]
 8004a80:	e7eb      	b.n	8004a5a <validate+0xc>

08004a82 <mem_cpy.part.0>:
 8004a82:	3801      	subs	r0, #1
 8004a84:	440a      	add	r2, r1
 8004a86:	f811 3b01 	ldrb.w	r3, [r1], #1
 8004a8a:	f800 3f01 	strb.w	r3, [r0, #1]!
 8004a8e:	4291      	cmp	r1, r2
 8004a90:	d1f9      	bne.n	8004a86 <mem_cpy.part.0+0x4>
 8004a92:	4770      	bx	lr

08004a94 <ld_clust.isra.0>:
 8004a94:	7eca      	ldrb	r2, [r1, #27]
 8004a96:	7e8b      	ldrb	r3, [r1, #26]
 8004a98:	2803      	cmp	r0, #3
 8004a9a:	ea43 2302 	orr.w	r3, r3, r2, lsl #8
 8004a9e:	bf01      	itttt	eq
 8004aa0:	7d48      	ldrbeq	r0, [r1, #21]
 8004aa2:	7d0a      	ldrbeq	r2, [r1, #20]
 8004aa4:	ea42 2200 	orreq.w	r2, r2, r0, lsl #8
 8004aa8:	ea43 4302 	orreq.w	r3, r3, r2, lsl #16
 8004aac:	4618      	mov	r0, r3
 8004aae:	4770      	bx	lr

08004ab0 <st_clust.isra.0>:
 8004ab0:	f3c2 2307 	ubfx	r3, r2, #8, #8
 8004ab4:	768a      	strb	r2, [r1, #26]
 8004ab6:	76cb      	strb	r3, [r1, #27]
 8004ab8:	7803      	ldrb	r3, [r0, #0]
 8004aba:	2b03      	cmp	r3, #3
 8004abc:	bf01      	itttt	eq
 8004abe:	0c12      	lsreq	r2, r2, #16
 8004ac0:	750a      	strbeq	r2, [r1, #20]
 8004ac2:	0a12      	lsreq	r2, r2, #8
 8004ac4:	754a      	strbeq	r2, [r1, #21]
 8004ac6:	4770      	bx	lr

08004ac8 <sync_window.part.0>:
 8004ac8:	e92d 41f0 	stmdb	sp!, {r4, r5, r6, r7, r8, lr}
 8004acc:	6b06      	ldr	r6, [r0, #48]	; 0x30
 8004ace:	f100 0834 	add.w	r8, r0, #52	; 0x34
 8004ad2:	4604      	mov	r4, r0
 8004ad4:	2301      	movs	r3, #1
 8004ad6:	7840      	ldrb	r0, [r0, #1]
 8004ad8:	4632      	mov	r2, r6
 8004ada:	4641      	mov	r1, r8
 8004adc:	f7ff fea8 	bl	8004830 <disk_write>
 8004ae0:	4605      	mov	r5, r0
 8004ae2:	b9a8      	cbnz	r0, 8004b10 <sync_window.part.0+0x48>
 8004ae4:	6a63      	ldr	r3, [r4, #36]	; 0x24
 8004ae6:	69e2      	ldr	r2, [r4, #28]
 8004ae8:	70e0      	strb	r0, [r4, #3]
 8004aea:	1af3      	subs	r3, r6, r3
 8004aec:	4293      	cmp	r3, r2
 8004aee:	d202      	bcs.n	8004af6 <sync_window.part.0+0x2e>
 8004af0:	78a7      	ldrb	r7, [r4, #2]
 8004af2:	2f01      	cmp	r7, #1
 8004af4:	d802      	bhi.n	8004afc <sync_window.part.0+0x34>
 8004af6:	4628      	mov	r0, r5
 8004af8:	e8bd 81f0 	ldmia.w	sp!, {r4, r5, r6, r7, r8, pc}
 8004afc:	69e3      	ldr	r3, [r4, #28]
 8004afe:	7860      	ldrb	r0, [r4, #1]
 8004b00:	441e      	add	r6, r3
 8004b02:	4632      	mov	r2, r6
 8004b04:	2301      	movs	r3, #1
 8004b06:	4641      	mov	r1, r8
 8004b08:	f7ff fe92 	bl	8004830 <disk_write>
 8004b0c:	3f01      	subs	r7, #1
 8004b0e:	e7f0      	b.n	8004af2 <sync_window.part.0+0x2a>
 8004b10:	2501      	movs	r5, #1
 8004b12:	e7f0      	b.n	8004af6 <sync_window.part.0+0x2e>

08004b14 <sync_window>:
 8004b14:	78c3      	ldrb	r3, [r0, #3]
 8004b16:	b10b      	cbz	r3, 8004b1c <sync_window+0x8>
 8004b18:	f7ff bfd6 	b.w	8004ac8 <sync_window.part.0>
 8004b1c:	4618      	mov	r0, r3
 8004b1e:	4770      	bx	lr

08004b20 <move_window>:
 8004b20:	b538      	push	{r3, r4, r5, lr}
 8004b22:	6b03      	ldr	r3, [r0, #48]	; 0x30
 8004b24:	428b      	cmp	r3, r1
 8004b26:	4605      	mov	r5, r0
 8004b28:	460c      	mov	r4, r1
 8004b2a:	d010      	beq.n	8004b4e <move_window+0x2e>
 8004b2c:	f7ff fff2 	bl	8004b14 <sync_window>
 8004b30:	b960      	cbnz	r0, 8004b4c <move_window+0x2c>
 8004b32:	4622      	mov	r2, r4
 8004b34:	7868      	ldrb	r0, [r5, #1]
 8004b36:	2301      	movs	r3, #1
 8004b38:	f105 0134 	add.w	r1, r5, #52	; 0x34
 8004b3c:	f7ff fe6a 	bl	8004814 <disk_read>
 8004b40:	2800      	cmp	r0, #0
 8004b42:	bf1c      	itt	ne
 8004b44:	f04f 34ff 	movne.w	r4, #4294967295
 8004b48:	2001      	movne	r0, #1
 8004b4a:	632c      	str	r4, [r5, #48]	; 0x30
 8004b4c:	bd38      	pop	{r3, r4, r5, pc}
 8004b4e:	2000      	movs	r0, #0
 8004b50:	e7fc      	b.n	8004b4c <move_window+0x2c>
	...

08004b54 <check_fs>:
 8004b54:	2300      	movs	r3, #0
 8004b56:	b510      	push	{r4, lr}
 8004b58:	70c3      	strb	r3, [r0, #3]
 8004b5a:	f04f 33ff 	mov.w	r3, #4294967295
 8004b5e:	6303      	str	r3, [r0, #48]	; 0x30
 8004b60:	4604      	mov	r4, r0
 8004b62:	f7ff ffdd 	bl	8004b20 <move_window>
 8004b66:	4601      	mov	r1, r0
 8004b68:	bb30      	cbnz	r0, 8004bb8 <check_fs+0x64>
 8004b6a:	f894 2233 	ldrb.w	r2, [r4, #563]	; 0x233
 8004b6e:	f894 3232 	ldrb.w	r3, [r4, #562]	; 0x232
 8004b72:	ea43 2302 	orr.w	r3, r3, r2, lsl #8
 8004b76:	f64a 2255 	movw	r2, #43605	; 0xaa55
 8004b7a:	4293      	cmp	r3, r2
 8004b7c:	d11e      	bne.n	8004bbc <check_fs+0x68>
 8004b7e:	f894 3034 	ldrb.w	r3, [r4, #52]	; 0x34
 8004b82:	2be9      	cmp	r3, #233	; 0xe9
 8004b84:	d005      	beq.n	8004b92 <check_fs+0x3e>
 8004b86:	6b63      	ldr	r3, [r4, #52]	; 0x34
 8004b88:	4a0e      	ldr	r2, [pc, #56]	; (8004bc4 <check_fs+0x70>)
 8004b8a:	f003 13ff 	and.w	r3, r3, #16711935	; 0xff00ff
 8004b8e:	4293      	cmp	r3, r2
 8004b90:	d116      	bne.n	8004bc0 <check_fs+0x6c>
 8004b92:	f104 006a 	add.w	r0, r4, #106	; 0x6a
 8004b96:	f7ff fe67 	bl	8004868 <ld_dword>
 8004b9a:	4b0b      	ldr	r3, [pc, #44]	; (8004bc8 <check_fs+0x74>)
 8004b9c:	f020 407f 	bic.w	r0, r0, #4278190080	; 0xff000000
 8004ba0:	4298      	cmp	r0, r3
 8004ba2:	d007      	beq.n	8004bb4 <check_fs+0x60>
 8004ba4:	f104 0086 	add.w	r0, r4, #134	; 0x86
 8004ba8:	f7ff fe5e 	bl	8004868 <ld_dword>
 8004bac:	4b07      	ldr	r3, [pc, #28]	; (8004bcc <check_fs+0x78>)
 8004bae:	4298      	cmp	r0, r3
 8004bb0:	bf18      	it	ne
 8004bb2:	2102      	movne	r1, #2
 8004bb4:	4608      	mov	r0, r1
 8004bb6:	bd10      	pop	{r4, pc}
 8004bb8:	2104      	movs	r1, #4
 8004bba:	e7fb      	b.n	8004bb4 <check_fs+0x60>
 8004bbc:	2103      	movs	r1, #3
 8004bbe:	e7f9      	b.n	8004bb4 <check_fs+0x60>
 8004bc0:	2102      	movs	r1, #2
 8004bc2:	e7f7      	b.n	8004bb4 <check_fs+0x60>
 8004bc4:	009000eb 	.word	0x009000eb
 8004bc8:	00544146 	.word	0x00544146
 8004bcc:	33544146 	.word	0x33544146

08004bd0 <find_volume>:
 8004bd0:	e92d 4ff0 	stmdb	sp!, {r4, r5, r6, r7, r8, r9, sl, fp, lr}
 8004bd4:	2300      	movs	r3, #0
 8004bd6:	b085      	sub	sp, #20
 8004bd8:	600b      	str	r3, [r1, #0]
 8004bda:	460d      	mov	r5, r1
 8004bdc:	4617      	mov	r7, r2
 8004bde:	f7ff ff1e 	bl	8004a1e <get_ldnumber>
 8004be2:	1e06      	subs	r6, r0, #0
 8004be4:	f2c0 814b 	blt.w	8004e7e <find_volume+0x2ae>
 8004be8:	4ba9      	ldr	r3, [pc, #676]	; (8004e90 <find_volume+0x2c0>)
 8004bea:	f853 4026 	ldr.w	r4, [r3, r6, lsl #2]
 8004bee:	2c00      	cmp	r4, #0
 8004bf0:	f000 8147 	beq.w	8004e82 <find_volume+0x2b2>
 8004bf4:	602c      	str	r4, [r5, #0]
 8004bf6:	7823      	ldrb	r3, [r4, #0]
 8004bf8:	f007 07fe 	and.w	r7, r7, #254	; 0xfe
 8004bfc:	b17b      	cbz	r3, 8004c1e <find_volume+0x4e>
 8004bfe:	7860      	ldrb	r0, [r4, #1]
 8004c00:	f7ff fdee 	bl	80047e0 <disk_status>
 8004c04:	07c2      	lsls	r2, r0, #31
 8004c06:	d40a      	bmi.n	8004c1e <find_volume+0x4e>
 8004c08:	2f00      	cmp	r7, #0
 8004c0a:	f000 813c 	beq.w	8004e86 <find_volume+0x2b6>
 8004c0e:	f010 0504 	ands.w	r5, r0, #4
 8004c12:	d000      	beq.n	8004c16 <find_volume+0x46>
 8004c14:	250a      	movs	r5, #10
 8004c16:	4628      	mov	r0, r5
 8004c18:	b005      	add	sp, #20
 8004c1a:	e8bd 8ff0 	ldmia.w	sp!, {r4, r5, r6, r7, r8, r9, sl, fp, pc}
 8004c1e:	2300      	movs	r3, #0
 8004c20:	b2f0      	uxtb	r0, r6
 8004c22:	7023      	strb	r3, [r4, #0]
 8004c24:	7060      	strb	r0, [r4, #1]
 8004c26:	f7ff fde5 	bl	80047f4 <disk_initialize>
 8004c2a:	f010 0501 	ands.w	r5, r0, #1
 8004c2e:	f040 812c 	bne.w	8004e8a <find_volume+0x2ba>
 8004c32:	b10f      	cbz	r7, 8004c38 <find_volume+0x68>
 8004c34:	0743      	lsls	r3, r0, #29
 8004c36:	d4ed      	bmi.n	8004c14 <find_volume+0x44>
 8004c38:	2100      	movs	r1, #0
 8004c3a:	4620      	mov	r0, r4
 8004c3c:	f7ff ff8a 	bl	8004b54 <check_fs>
 8004c40:	2802      	cmp	r0, #2
 8004c42:	f040 8101 	bne.w	8004e48 <find_volume+0x278>
 8004c46:	466e      	mov	r6, sp
 8004c48:	f504 71fd 	add.w	r1, r4, #506	; 0x1fa
 8004c4c:	f204 283a 	addw	r8, r4, #570	; 0x23a
 8004c50:	4637      	mov	r7, r6
 8004c52:	f811 0c04 	ldrb.w	r0, [r1, #-4]
 8004c56:	b110      	cbz	r0, 8004c5e <find_volume+0x8e>
 8004c58:	4608      	mov	r0, r1
 8004c5a:	f7ff fe05 	bl	8004868 <ld_dword>
 8004c5e:	3110      	adds	r1, #16
 8004c60:	4588      	cmp	r8, r1
 8004c62:	f847 0b04 	str.w	r0, [r7], #4
 8004c66:	d1f4      	bne.n	8004c52 <find_volume+0x82>
 8004c68:	2700      	movs	r7, #0
 8004c6a:	f856 8b04 	ldr.w	r8, [r6], #4
 8004c6e:	f1b8 0f00 	cmp.w	r8, #0
 8004c72:	f000 80e0 	beq.w	8004e36 <find_volume+0x266>
 8004c76:	4641      	mov	r1, r8
 8004c78:	4620      	mov	r0, r4
 8004c7a:	f7ff ff6b 	bl	8004b54 <check_fs>
 8004c7e:	2801      	cmp	r0, #1
 8004c80:	f200 80da 	bhi.w	8004e38 <find_volume+0x268>
 8004c84:	f894 2040 	ldrb.w	r2, [r4, #64]	; 0x40
 8004c88:	f894 303f 	ldrb.w	r3, [r4, #63]	; 0x3f
 8004c8c:	ea43 2302 	orr.w	r3, r3, r2, lsl #8
 8004c90:	f5b3 7f00 	cmp.w	r3, #512	; 0x200
 8004c94:	f040 80dc 	bne.w	8004e50 <find_volume+0x280>
 8004c98:	f894 004b 	ldrb.w	r0, [r4, #75]	; 0x4b
 8004c9c:	f894 604a 	ldrb.w	r6, [r4, #74]	; 0x4a
 8004ca0:	ea56 2600 	orrs.w	r6, r6, r0, lsl #8
 8004ca4:	d104      	bne.n	8004cb0 <find_volume+0xe0>
 8004ca6:	f104 0058 	add.w	r0, r4, #88	; 0x58
 8004caa:	f7ff fddd 	bl	8004868 <ld_dword>
 8004cae:	4606      	mov	r6, r0
 8004cb0:	f894 9044 	ldrb.w	r9, [r4, #68]	; 0x44
 8004cb4:	61e6      	str	r6, [r4, #28]
 8004cb6:	f109 33ff 	add.w	r3, r9, #4294967295
 8004cba:	2b01      	cmp	r3, #1
 8004cbc:	f884 9002 	strb.w	r9, [r4, #2]
 8004cc0:	f200 80c6 	bhi.w	8004e50 <find_volume+0x280>
 8004cc4:	f894 7041 	ldrb.w	r7, [r4, #65]	; 0x41
 8004cc8:	8167      	strh	r7, [r4, #10]
 8004cca:	2f00      	cmp	r7, #0
 8004ccc:	f000 80c0 	beq.w	8004e50 <find_volume+0x280>
 8004cd0:	1e7b      	subs	r3, r7, #1
 8004cd2:	423b      	tst	r3, r7
 8004cd4:	f040 80bc 	bne.w	8004e50 <find_volume+0x280>
 8004cd8:	f894 3046 	ldrb.w	r3, [r4, #70]	; 0x46
 8004cdc:	f894 a045 	ldrb.w	sl, [r4, #69]	; 0x45
 8004ce0:	ea4a 2a03 	orr.w	sl, sl, r3, lsl #8
 8004ce4:	f01a 0f0f 	tst.w	sl, #15
 8004ce8:	fa0f fb8a 	sxth.w	fp, sl
 8004cec:	f8a4 a008 	strh.w	sl, [r4, #8]
 8004cf0:	f040 80ae 	bne.w	8004e50 <find_volume+0x280>
 8004cf4:	f894 3048 	ldrb.w	r3, [r4, #72]	; 0x48
 8004cf8:	f894 0047 	ldrb.w	r0, [r4, #71]	; 0x47
 8004cfc:	ea50 2003 	orrs.w	r0, r0, r3, lsl #8
 8004d00:	d103      	bne.n	8004d0a <find_volume+0x13a>
 8004d02:	f104 0054 	add.w	r0, r4, #84	; 0x54
 8004d06:	f7ff fdaf 	bl	8004868 <ld_dword>
 8004d0a:	f894 3043 	ldrb.w	r3, [r4, #67]	; 0x43
 8004d0e:	f894 1042 	ldrb.w	r1, [r4, #66]	; 0x42
 8004d12:	ea51 2103 	orrs.w	r1, r1, r3, lsl #8
 8004d16:	f000 809b 	beq.w	8004e50 <find_volume+0x280>
 8004d1a:	fb06 fc09 	mul.w	ip, r6, r9
 8004d1e:	eb01 131a 	add.w	r3, r1, sl, lsr #4
 8004d22:	eb03 0e0c 	add.w	lr, r3, ip
 8004d26:	4570      	cmp	r0, lr
 8004d28:	f0c0 8092 	bcc.w	8004e50 <find_volume+0x280>
 8004d2c:	eba0 000e 	sub.w	r0, r0, lr
 8004d30:	42b8      	cmp	r0, r7
 8004d32:	fbb0 f3f7 	udiv	r3, r0, r7
 8004d36:	f0c0 808b 	bcc.w	8004e50 <find_volume+0x280>
 8004d3a:	f64f 72f5 	movw	r2, #65525	; 0xfff5
 8004d3e:	4293      	cmp	r3, r2
 8004d40:	f200 808b 	bhi.w	8004e5a <find_volume+0x28a>
 8004d44:	f640 77f5 	movw	r7, #4085	; 0xff5
 8004d48:	42bb      	cmp	r3, r7
 8004d4a:	bf8c      	ite	hi
 8004d4c:	2702      	movhi	r7, #2
 8004d4e:	2701      	movls	r7, #1
 8004d50:	f103 0902 	add.w	r9, r3, #2
 8004d54:	4441      	add	r1, r8
 8004d56:	eb0e 0308 	add.w	r3, lr, r8
 8004d5a:	2f03      	cmp	r7, #3
 8004d5c:	f8c4 9018 	str.w	r9, [r4, #24]
 8004d60:	f8c4 8020 	str.w	r8, [r4, #32]
 8004d64:	6261      	str	r1, [r4, #36]	; 0x24
 8004d66:	62e3      	str	r3, [r4, #44]	; 0x2c
 8004d68:	d179      	bne.n	8004e5e <find_volume+0x28e>
 8004d6a:	f894 205f 	ldrb.w	r2, [r4, #95]	; 0x5f
 8004d6e:	f894 305e 	ldrb.w	r3, [r4, #94]	; 0x5e
 8004d72:	ea43 2302 	orr.w	r3, r3, r2, lsl #8
 8004d76:	ea4b 0b03 	orr.w	fp, fp, r3
 8004d7a:	fa0f f38b 	sxth.w	r3, fp
 8004d7e:	2b00      	cmp	r3, #0
 8004d80:	d166      	bne.n	8004e50 <find_volume+0x280>
 8004d82:	f104 0060 	add.w	r0, r4, #96	; 0x60
 8004d86:	f7ff fd6f 	bl	8004868 <ld_dword>
 8004d8a:	ea4f 0389 	mov.w	r3, r9, lsl #2
 8004d8e:	62a0      	str	r0, [r4, #40]	; 0x28
 8004d90:	f203 13ff 	addw	r3, r3, #511	; 0x1ff
 8004d94:	ebb6 2f53 	cmp.w	r6, r3, lsr #9
 8004d98:	d35a      	bcc.n	8004e50 <find_volume+0x280>
 8004d9a:	f04f 33ff 	mov.w	r3, #4294967295
 8004d9e:	e9c4 3304 	strd	r3, r3, [r4, #16]
 8004da2:	2f03      	cmp	r7, #3
 8004da4:	f04f 0380 	mov.w	r3, #128	; 0x80
 8004da8:	7123      	strb	r3, [r4, #4]
 8004daa:	d130      	bne.n	8004e0e <find_volume+0x23e>
 8004dac:	f894 2065 	ldrb.w	r2, [r4, #101]	; 0x65
 8004db0:	f894 3064 	ldrb.w	r3, [r4, #100]	; 0x64
 8004db4:	ea43 2302 	orr.w	r3, r3, r2, lsl #8
 8004db8:	2b01      	cmp	r3, #1
 8004dba:	d128      	bne.n	8004e0e <find_volume+0x23e>
 8004dbc:	f108 0101 	add.w	r1, r8, #1
 8004dc0:	4620      	mov	r0, r4
 8004dc2:	f7ff fead 	bl	8004b20 <move_window>
 8004dc6:	bb10      	cbnz	r0, 8004e0e <find_volume+0x23e>
 8004dc8:	f894 2233 	ldrb.w	r2, [r4, #563]	; 0x233
 8004dcc:	f894 3232 	ldrb.w	r3, [r4, #562]	; 0x232
 8004dd0:	7120      	strb	r0, [r4, #4]
 8004dd2:	ea43 2302 	orr.w	r3, r3, r2, lsl #8
 8004dd6:	f64a 2255 	movw	r2, #43605	; 0xaa55
 8004dda:	4293      	cmp	r3, r2
 8004ddc:	d117      	bne.n	8004e0e <find_volume+0x23e>
 8004dde:	f104 0034 	add.w	r0, r4, #52	; 0x34
 8004de2:	f7ff fd41 	bl	8004868 <ld_dword>
 8004de6:	4b2b      	ldr	r3, [pc, #172]	; (8004e94 <find_volume+0x2c4>)
 8004de8:	4298      	cmp	r0, r3
 8004dea:	d110      	bne.n	8004e0e <find_volume+0x23e>
 8004dec:	f504 7006 	add.w	r0, r4, #536	; 0x218
 8004df0:	f7ff fd3a 	bl	8004868 <ld_dword>
 8004df4:	4b28      	ldr	r3, [pc, #160]	; (8004e98 <find_volume+0x2c8>)
 8004df6:	4298      	cmp	r0, r3
 8004df8:	d109      	bne.n	8004e0e <find_volume+0x23e>
 8004dfa:	f504 7007 	add.w	r0, r4, #540	; 0x21c
 8004dfe:	f7ff fd33 	bl	8004868 <ld_dword>
 8004e02:	6160      	str	r0, [r4, #20]
 8004e04:	f504 7008 	add.w	r0, r4, #544	; 0x220
 8004e08:	f7ff fd2e 	bl	8004868 <ld_dword>
 8004e0c:	6120      	str	r0, [r4, #16]
 8004e0e:	4a23      	ldr	r2, [pc, #140]	; (8004e9c <find_volume+0x2cc>)
 8004e10:	7027      	strb	r7, [r4, #0]
 8004e12:	8813      	ldrh	r3, [r2, #0]
 8004e14:	3301      	adds	r3, #1
 8004e16:	b29b      	uxth	r3, r3
 8004e18:	8013      	strh	r3, [r2, #0]
 8004e1a:	80e3      	strh	r3, [r4, #6]
 8004e1c:	4b20      	ldr	r3, [pc, #128]	; (8004ea0 <find_volume+0x2d0>)
 8004e1e:	681a      	ldr	r2, [r3, #0]
 8004e20:	4294      	cmp	r4, r2
 8004e22:	bf04      	itt	eq
 8004e24:	2200      	moveq	r2, #0
 8004e26:	601a      	streq	r2, [r3, #0]
 8004e28:	691a      	ldr	r2, [r3, #16]
 8004e2a:	4294      	cmp	r4, r2
 8004e2c:	f47f aef3 	bne.w	8004c16 <find_volume+0x46>
 8004e30:	2200      	movs	r2, #0
 8004e32:	611a      	str	r2, [r3, #16]
 8004e34:	e6ef      	b.n	8004c16 <find_volume+0x46>
 8004e36:	2003      	movs	r0, #3
 8004e38:	3701      	adds	r7, #1
 8004e3a:	2f04      	cmp	r7, #4
 8004e3c:	f47f af15 	bne.w	8004c6a <find_volume+0x9a>
 8004e40:	2804      	cmp	r0, #4
 8004e42:	d105      	bne.n	8004e50 <find_volume+0x280>
 8004e44:	2501      	movs	r5, #1
 8004e46:	e6e6      	b.n	8004c16 <find_volume+0x46>
 8004e48:	2804      	cmp	r0, #4
 8004e4a:	d0fb      	beq.n	8004e44 <find_volume+0x274>
 8004e4c:	2801      	cmp	r0, #1
 8004e4e:	d901      	bls.n	8004e54 <find_volume+0x284>
 8004e50:	250d      	movs	r5, #13
 8004e52:	e6e0      	b.n	8004c16 <find_volume+0x46>
 8004e54:	f04f 0800 	mov.w	r8, #0
 8004e58:	e714      	b.n	8004c84 <find_volume+0xb4>
 8004e5a:	2703      	movs	r7, #3
 8004e5c:	e778      	b.n	8004d50 <find_volume+0x180>
 8004e5e:	f1ba 0f00 	cmp.w	sl, #0
 8004e62:	d0f5      	beq.n	8004e50 <find_volume+0x280>
 8004e64:	2f02      	cmp	r7, #2
 8004e66:	ea4f 0349 	mov.w	r3, r9, lsl #1
 8004e6a:	4461      	add	r1, ip
 8004e6c:	bf1c      	itt	ne
 8004e6e:	444b      	addne	r3, r9
 8004e70:	f009 0201 	andne.w	r2, r9, #1
 8004e74:	62a1      	str	r1, [r4, #40]	; 0x28
 8004e76:	bf18      	it	ne
 8004e78:	eb02 0353 	addne.w	r3, r2, r3, lsr #1
 8004e7c:	e788      	b.n	8004d90 <find_volume+0x1c0>
 8004e7e:	250b      	movs	r5, #11
 8004e80:	e6c9      	b.n	8004c16 <find_volume+0x46>
 8004e82:	250c      	movs	r5, #12
 8004e84:	e6c7      	b.n	8004c16 <find_volume+0x46>
 8004e86:	463d      	mov	r5, r7
 8004e88:	e6c5      	b.n	8004c16 <find_volume+0x46>
 8004e8a:	2503      	movs	r5, #3
 8004e8c:	e6c3      	b.n	8004c16 <find_volume+0x46>
 8004e8e:	bf00      	nop
 8004e90:	2000014c 	.word	0x2000014c
 8004e94:	41615252 	.word	0x41615252
 8004e98:	61417272 	.word	0x61417272
 8004e9c:	20000170 	.word	0x20000170
 8004ea0:	20000150 	.word	0x20000150

08004ea4 <put_fat>:
 8004ea4:	2901      	cmp	r1, #1
 8004ea6:	e92d 47f0 	stmdb	sp!, {r4, r5, r6, r7, r8, r9, sl, lr}
 8004eaa:	4606      	mov	r6, r0
 8004eac:	460c      	mov	r4, r1
 8004eae:	4617      	mov	r7, r2
 8004eb0:	d973      	bls.n	8004f9a <put_fat+0xf6>
 8004eb2:	6983      	ldr	r3, [r0, #24]
 8004eb4:	428b      	cmp	r3, r1
 8004eb6:	d970      	bls.n	8004f9a <put_fat+0xf6>
 8004eb8:	7803      	ldrb	r3, [r0, #0]
 8004eba:	2b02      	cmp	r3, #2
 8004ebc:	d03f      	beq.n	8004f3e <put_fat+0x9a>
 8004ebe:	2b03      	cmp	r3, #3
 8004ec0:	d050      	beq.n	8004f64 <put_fat+0xc0>
 8004ec2:	2b01      	cmp	r3, #1
 8004ec4:	d169      	bne.n	8004f9a <put_fat+0xf6>
 8004ec6:	eb01 0851 	add.w	r8, r1, r1, lsr #1
 8004eca:	6a41      	ldr	r1, [r0, #36]	; 0x24
 8004ecc:	eb01 2158 	add.w	r1, r1, r8, lsr #9
 8004ed0:	f7ff fe26 	bl	8004b20 <move_window>
 8004ed4:	4605      	mov	r5, r0
 8004ed6:	bb38      	cbnz	r0, 8004f28 <put_fat+0x84>
 8004ed8:	f106 0934 	add.w	r9, r6, #52	; 0x34
 8004edc:	f108 0a01 	add.w	sl, r8, #1
 8004ee0:	f3c8 0808 	ubfx	r8, r8, #0, #9
 8004ee4:	f014 0401 	ands.w	r4, r4, #1
 8004ee8:	bf1f      	itttt	ne
 8004eea:	f819 3008 	ldrbne.w	r3, [r9, r8]
 8004eee:	f003 020f 	andne.w	r2, r3, #15
 8004ef2:	013b      	lslne	r3, r7, #4
 8004ef4:	f003 03f0 	andne.w	r3, r3, #240	; 0xf0
 8004ef8:	bf14      	ite	ne
 8004efa:	4313      	orrne	r3, r2
 8004efc:	b2fb      	uxtbeq	r3, r7
 8004efe:	f809 3008 	strb.w	r3, [r9, r8]
 8004f02:	6a71      	ldr	r1, [r6, #36]	; 0x24
 8004f04:	2301      	movs	r3, #1
 8004f06:	70f3      	strb	r3, [r6, #3]
 8004f08:	eb01 215a 	add.w	r1, r1, sl, lsr #9
 8004f0c:	4630      	mov	r0, r6
 8004f0e:	f7ff fe07 	bl	8004b20 <move_window>
 8004f12:	4605      	mov	r5, r0
 8004f14:	b940      	cbnz	r0, 8004f28 <put_fat+0x84>
 8004f16:	f3ca 0a08 	ubfx	sl, sl, #0, #9
 8004f1a:	b144      	cbz	r4, 8004f2e <put_fat+0x8a>
 8004f1c:	f3c7 1707 	ubfx	r7, r7, #4, #8
 8004f20:	f809 700a 	strb.w	r7, [r9, sl]
 8004f24:	2301      	movs	r3, #1
 8004f26:	70f3      	strb	r3, [r6, #3]
 8004f28:	4628      	mov	r0, r5
 8004f2a:	e8bd 87f0 	ldmia.w	sp!, {r4, r5, r6, r7, r8, r9, sl, pc}
 8004f2e:	f819 300a 	ldrb.w	r3, [r9, sl]
 8004f32:	f3c7 2703 	ubfx	r7, r7, #8, #4
 8004f36:	f023 030f 	bic.w	r3, r3, #15
 8004f3a:	431f      	orrs	r7, r3
 8004f3c:	e7f0      	b.n	8004f20 <put_fat+0x7c>
 8004f3e:	6a41      	ldr	r1, [r0, #36]	; 0x24
 8004f40:	eb01 2114 	add.w	r1, r1, r4, lsr #8
 8004f44:	f7ff fdec 	bl	8004b20 <move_window>
 8004f48:	4605      	mov	r5, r0
 8004f4a:	2800      	cmp	r0, #0
 8004f4c:	d1ec      	bne.n	8004f28 <put_fat+0x84>
 8004f4e:	0064      	lsls	r4, r4, #1
 8004f50:	f106 0334 	add.w	r3, r6, #52	; 0x34
 8004f54:	f404 74ff 	and.w	r4, r4, #510	; 0x1fe
 8004f58:	1918      	adds	r0, r3, r4
 8004f5a:	551f      	strb	r7, [r3, r4]
 8004f5c:	f3c7 2707 	ubfx	r7, r7, #8, #8
 8004f60:	7047      	strb	r7, [r0, #1]
 8004f62:	e7df      	b.n	8004f24 <put_fat+0x80>
 8004f64:	6a41      	ldr	r1, [r0, #36]	; 0x24
 8004f66:	eb01 11d4 	add.w	r1, r1, r4, lsr #7
 8004f6a:	f7ff fdd9 	bl	8004b20 <move_window>
 8004f6e:	4605      	mov	r5, r0
 8004f70:	2800      	cmp	r0, #0
 8004f72:	d1d9      	bne.n	8004f28 <put_fat+0x84>
 8004f74:	00a4      	lsls	r4, r4, #2
 8004f76:	f106 0334 	add.w	r3, r6, #52	; 0x34
 8004f7a:	f404 74fe 	and.w	r4, r4, #508	; 0x1fc
 8004f7e:	441c      	add	r4, r3
 8004f80:	4620      	mov	r0, r4
 8004f82:	f7ff fc71 	bl	8004868 <ld_dword>
 8004f86:	f027 4770 	bic.w	r7, r7, #4026531840	; 0xf0000000
 8004f8a:	f000 4070 	and.w	r0, r0, #4026531840	; 0xf0000000
 8004f8e:	ea47 0100 	orr.w	r1, r7, r0
 8004f92:	4620      	mov	r0, r4
 8004f94:	f7ff fc70 	bl	8004878 <st_dword>
 8004f98:	e7c4      	b.n	8004f24 <put_fat+0x80>
 8004f9a:	2502      	movs	r5, #2
 8004f9c:	e7c4      	b.n	8004f28 <put_fat+0x84>

08004f9e <get_fat.isra.0>:
 8004f9e:	2901      	cmp	r1, #1
 8004fa0:	b5f8      	push	{r3, r4, r5, r6, r7, lr}
 8004fa2:	4605      	mov	r5, r0
 8004fa4:	460c      	mov	r4, r1
 8004fa6:	d952      	bls.n	800504e <get_fat.isra.0+0xb0>
 8004fa8:	6983      	ldr	r3, [r0, #24]
 8004faa:	4299      	cmp	r1, r3
 8004fac:	d24f      	bcs.n	800504e <get_fat.isra.0+0xb0>
 8004fae:	7803      	ldrb	r3, [r0, #0]
 8004fb0:	2b02      	cmp	r3, #2
 8004fb2:	d029      	beq.n	8005008 <get_fat.isra.0+0x6a>
 8004fb4:	2b03      	cmp	r3, #3
 8004fb6:	d038      	beq.n	800502a <get_fat.isra.0+0x8c>
 8004fb8:	2b01      	cmp	r3, #1
 8004fba:	d148      	bne.n	800504e <get_fat.isra.0+0xb0>
 8004fbc:	eb01 0651 	add.w	r6, r1, r1, lsr #1
 8004fc0:	6a41      	ldr	r1, [r0, #36]	; 0x24
 8004fc2:	eb01 2156 	add.w	r1, r1, r6, lsr #9
 8004fc6:	f7ff fdab 	bl	8004b20 <move_window>
 8004fca:	b110      	cbz	r0, 8004fd2 <get_fat.isra.0+0x34>
 8004fcc:	f04f 30ff 	mov.w	r0, #4294967295
 8004fd0:	bdf8      	pop	{r3, r4, r5, r6, r7, pc}
 8004fd2:	1c77      	adds	r7, r6, #1
 8004fd4:	6a69      	ldr	r1, [r5, #36]	; 0x24
 8004fd6:	f3c6 0608 	ubfx	r6, r6, #0, #9
 8004fda:	442e      	add	r6, r5
 8004fdc:	eb01 2157 	add.w	r1, r1, r7, lsr #9
 8004fe0:	4628      	mov	r0, r5
 8004fe2:	f896 6034 	ldrb.w	r6, [r6, #52]	; 0x34
 8004fe6:	f7ff fd9b 	bl	8004b20 <move_window>
 8004fea:	2800      	cmp	r0, #0
 8004fec:	d1ee      	bne.n	8004fcc <get_fat.isra.0+0x2e>
 8004fee:	f3c7 0708 	ubfx	r7, r7, #0, #9
 8004ff2:	443d      	add	r5, r7
 8004ff4:	07e3      	lsls	r3, r4, #31
 8004ff6:	f895 0034 	ldrb.w	r0, [r5, #52]	; 0x34
 8004ffa:	ea46 2000 	orr.w	r0, r6, r0, lsl #8
 8004ffe:	bf4c      	ite	mi
 8005000:	0900      	lsrmi	r0, r0, #4
 8005002:	f3c0 000b 	ubfxpl	r0, r0, #0, #12
 8005006:	e7e3      	b.n	8004fd0 <get_fat.isra.0+0x32>
 8005008:	6a41      	ldr	r1, [r0, #36]	; 0x24
 800500a:	eb01 2114 	add.w	r1, r1, r4, lsr #8
 800500e:	f7ff fd87 	bl	8004b20 <move_window>
 8005012:	2800      	cmp	r0, #0
 8005014:	d1da      	bne.n	8004fcc <get_fat.isra.0+0x2e>
 8005016:	0064      	lsls	r4, r4, #1
 8005018:	3534      	adds	r5, #52	; 0x34
 800501a:	f404 74ff 	and.w	r4, r4, #510	; 0x1fe
 800501e:	192b      	adds	r3, r5, r4
 8005020:	5d28      	ldrb	r0, [r5, r4]
 8005022:	785b      	ldrb	r3, [r3, #1]
 8005024:	ea40 2003 	orr.w	r0, r0, r3, lsl #8
 8005028:	e7d2      	b.n	8004fd0 <get_fat.isra.0+0x32>
 800502a:	6a41      	ldr	r1, [r0, #36]	; 0x24
 800502c:	eb01 11d4 	add.w	r1, r1, r4, lsr #7
 8005030:	f7ff fd76 	bl	8004b20 <move_window>
 8005034:	2800      	cmp	r0, #0
 8005036:	d1c9      	bne.n	8004fcc <get_fat.isra.0+0x2e>
 8005038:	00a4      	lsls	r4, r4, #2
 800503a:	f105 0034 	add.w	r0, r5, #52	; 0x34
 800503e:	f404 74fe 	and.w	r4, r4, #508	; 0x1fc
 8005042:	4420      	add	r0, r4
 8005044:	f7ff fc10 	bl	8004868 <ld_dword>
 8005048:	f020 4070 	bic.w	r0, r0, #4026531840	; 0xf0000000
 800504c:	e7c0      	b.n	8004fd0 <get_fat.isra.0+0x32>
 800504e:	2001      	movs	r0, #1
 8005050:	e7be      	b.n	8004fd0 <get_fat.isra.0+0x32>

08005052 <dir_sdi>:
 8005052:	f5b1 1f00 	cmp.w	r1, #2097152	; 0x200000
 8005056:	b5f8      	push	{r3, r4, r5, r6, r7, lr}
 8005058:	4606      	mov	r6, r0
 800505a:	460c      	mov	r4, r1
 800505c:	d301      	bcc.n	8005062 <dir_sdi+0x10>
 800505e:	2002      	movs	r0, #2
 8005060:	bdf8      	pop	{r3, r4, r5, r6, r7, pc}
 8005062:	06ca      	lsls	r2, r1, #27
 8005064:	d1fb      	bne.n	800505e <dir_sdi+0xc>
 8005066:	6882      	ldr	r2, [r0, #8]
 8005068:	6805      	ldr	r5, [r0, #0]
 800506a:	6141      	str	r1, [r0, #20]
 800506c:	b9ca      	cbnz	r2, 80050a2 <dir_sdi+0x50>
 800506e:	782b      	ldrb	r3, [r5, #0]
 8005070:	2b02      	cmp	r3, #2
 8005072:	d901      	bls.n	8005078 <dir_sdi+0x26>
 8005074:	6aab      	ldr	r3, [r5, #40]	; 0x28
 8005076:	b99b      	cbnz	r3, 80050a0 <dir_sdi+0x4e>
 8005078:	892b      	ldrh	r3, [r5, #8]
 800507a:	ebb3 1f54 	cmp.w	r3, r4, lsr #5
 800507e:	d9ee      	bls.n	800505e <dir_sdi+0xc>
 8005080:	6aab      	ldr	r3, [r5, #40]	; 0x28
 8005082:	61f3      	str	r3, [r6, #28]
 8005084:	69f3      	ldr	r3, [r6, #28]
 8005086:	61b2      	str	r2, [r6, #24]
 8005088:	2b00      	cmp	r3, #0
 800508a:	d0e8      	beq.n	800505e <dir_sdi+0xc>
 800508c:	eb03 2354 	add.w	r3, r3, r4, lsr #9
 8005090:	3534      	adds	r5, #52	; 0x34
 8005092:	f3c4 0408 	ubfx	r4, r4, #0, #9
 8005096:	442c      	add	r4, r5
 8005098:	61f3      	str	r3, [r6, #28]
 800509a:	6234      	str	r4, [r6, #32]
 800509c:	2000      	movs	r0, #0
 800509e:	e7df      	b.n	8005060 <dir_sdi+0xe>
 80050a0:	461a      	mov	r2, r3
 80050a2:	896f      	ldrh	r7, [r5, #10]
 80050a4:	027f      	lsls	r7, r7, #9
 80050a6:	42bc      	cmp	r4, r7
 80050a8:	4611      	mov	r1, r2
 80050aa:	d204      	bcs.n	80050b6 <dir_sdi+0x64>
 80050ac:	4628      	mov	r0, r5
 80050ae:	f7ff fc8b 	bl	80049c8 <clust2sect>
 80050b2:	61f0      	str	r0, [r6, #28]
 80050b4:	e7e6      	b.n	8005084 <dir_sdi+0x32>
 80050b6:	6830      	ldr	r0, [r6, #0]
 80050b8:	f7ff ff71 	bl	8004f9e <get_fat.isra.0>
 80050bc:	1c43      	adds	r3, r0, #1
 80050be:	4602      	mov	r2, r0
 80050c0:	d006      	beq.n	80050d0 <dir_sdi+0x7e>
 80050c2:	2801      	cmp	r0, #1
 80050c4:	d9cb      	bls.n	800505e <dir_sdi+0xc>
 80050c6:	69ab      	ldr	r3, [r5, #24]
 80050c8:	4283      	cmp	r3, r0
 80050ca:	d9c8      	bls.n	800505e <dir_sdi+0xc>
 80050cc:	1be4      	subs	r4, r4, r7
 80050ce:	e7ea      	b.n	80050a6 <dir_sdi+0x54>
 80050d0:	2001      	movs	r0, #1
 80050d2:	e7c5      	b.n	8005060 <dir_sdi+0xe>

080050d4 <create_chain>:
 80050d4:	e92d 41f0 	stmdb	sp!, {r4, r5, r6, r7, r8, lr}
 80050d8:	6805      	ldr	r5, [r0, #0]
 80050da:	4680      	mov	r8, r0
 80050dc:	460f      	mov	r7, r1
 80050de:	b971      	cbnz	r1, 80050fe <create_chain+0x2a>
 80050e0:	692e      	ldr	r6, [r5, #16]
 80050e2:	b1ee      	cbz	r6, 8005120 <create_chain+0x4c>
 80050e4:	69ab      	ldr	r3, [r5, #24]
 80050e6:	42b3      	cmp	r3, r6
 80050e8:	bf98      	it	ls
 80050ea:	2601      	movls	r6, #1
 80050ec:	4634      	mov	r4, r6
 80050ee:	69ab      	ldr	r3, [r5, #24]
 80050f0:	3401      	adds	r4, #1
 80050f2:	42a3      	cmp	r3, r4
 80050f4:	d817      	bhi.n	8005126 <create_chain+0x52>
 80050f6:	2e01      	cmp	r6, #1
 80050f8:	d814      	bhi.n	8005124 <create_chain+0x50>
 80050fa:	2400      	movs	r4, #0
 80050fc:	e006      	b.n	800510c <create_chain+0x38>
 80050fe:	4628      	mov	r0, r5
 8005100:	f7ff ff4d 	bl	8004f9e <get_fat.isra.0>
 8005104:	2801      	cmp	r0, #1
 8005106:	4604      	mov	r4, r0
 8005108:	d803      	bhi.n	8005112 <create_chain+0x3e>
 800510a:	2401      	movs	r4, #1
 800510c:	4620      	mov	r0, r4
 800510e:	e8bd 81f0 	ldmia.w	sp!, {r4, r5, r6, r7, r8, pc}
 8005112:	1c43      	adds	r3, r0, #1
 8005114:	d030      	beq.n	8005178 <create_chain+0xa4>
 8005116:	69ab      	ldr	r3, [r5, #24]
 8005118:	4283      	cmp	r3, r0
 800511a:	d8f7      	bhi.n	800510c <create_chain+0x38>
 800511c:	463e      	mov	r6, r7
 800511e:	e7e5      	b.n	80050ec <create_chain+0x18>
 8005120:	2601      	movs	r6, #1
 8005122:	e7e3      	b.n	80050ec <create_chain+0x18>
 8005124:	2402      	movs	r4, #2
 8005126:	f8d8 0000 	ldr.w	r0, [r8]
 800512a:	4621      	mov	r1, r4
 800512c:	f7ff ff37 	bl	8004f9e <get_fat.isra.0>
 8005130:	b130      	cbz	r0, 8005140 <create_chain+0x6c>
 8005132:	2801      	cmp	r0, #1
 8005134:	d0e9      	beq.n	800510a <create_chain+0x36>
 8005136:	3001      	adds	r0, #1
 8005138:	d01e      	beq.n	8005178 <create_chain+0xa4>
 800513a:	42b4      	cmp	r4, r6
 800513c:	d1d7      	bne.n	80050ee <create_chain+0x1a>
 800513e:	e7dc      	b.n	80050fa <create_chain+0x26>
 8005140:	f04f 32ff 	mov.w	r2, #4294967295
 8005144:	4621      	mov	r1, r4
 8005146:	4628      	mov	r0, r5
 8005148:	f7ff feac 	bl	8004ea4 <put_fat>
 800514c:	b990      	cbnz	r0, 8005174 <create_chain+0xa0>
 800514e:	b957      	cbnz	r7, 8005166 <create_chain+0x92>
 8005150:	e9d5 3205 	ldrd	r3, r2, [r5, #20]
 8005154:	3a02      	subs	r2, #2
 8005156:	4293      	cmp	r3, r2
 8005158:	612c      	str	r4, [r5, #16]
 800515a:	d910      	bls.n	800517e <create_chain+0xaa>
 800515c:	792b      	ldrb	r3, [r5, #4]
 800515e:	f043 0301 	orr.w	r3, r3, #1
 8005162:	712b      	strb	r3, [r5, #4]
 8005164:	e7d2      	b.n	800510c <create_chain+0x38>
 8005166:	4622      	mov	r2, r4
 8005168:	4639      	mov	r1, r7
 800516a:	4628      	mov	r0, r5
 800516c:	f7ff fe9a 	bl	8004ea4 <put_fat>
 8005170:	2800      	cmp	r0, #0
 8005172:	d0ed      	beq.n	8005150 <create_chain+0x7c>
 8005174:	2801      	cmp	r0, #1
 8005176:	d1c8      	bne.n	800510a <create_chain+0x36>
 8005178:	f04f 34ff 	mov.w	r4, #4294967295
 800517c:	e7c6      	b.n	800510c <create_chain+0x38>
 800517e:	3b01      	subs	r3, #1
 8005180:	616b      	str	r3, [r5, #20]
 8005182:	e7eb      	b.n	800515c <create_chain+0x88>

08005184 <remove_chain>:
 8005184:	b573      	push	{r0, r1, r4, r5, r6, lr}
 8005186:	460c      	mov	r4, r1
 8005188:	2c01      	cmp	r4, #1
 800518a:	6805      	ldr	r5, [r0, #0]
 800518c:	4606      	mov	r6, r0
 800518e:	4611      	mov	r1, r2
 8005190:	d92c      	bls.n	80051ec <remove_chain+0x68>
 8005192:	69ab      	ldr	r3, [r5, #24]
 8005194:	42a3      	cmp	r3, r4
 8005196:	d929      	bls.n	80051ec <remove_chain+0x68>
 8005198:	b12a      	cbz	r2, 80051a6 <remove_chain+0x22>
 800519a:	f04f 32ff 	mov.w	r2, #4294967295
 800519e:	4628      	mov	r0, r5
 80051a0:	f7ff fe80 	bl	8004ea4 <put_fat>
 80051a4:	b940      	cbnz	r0, 80051b8 <remove_chain+0x34>
 80051a6:	4621      	mov	r1, r4
 80051a8:	6830      	ldr	r0, [r6, #0]
 80051aa:	9401      	str	r4, [sp, #4]
 80051ac:	f7ff fef7 	bl	8004f9e <get_fat.isra.0>
 80051b0:	9901      	ldr	r1, [sp, #4]
 80051b2:	4604      	mov	r4, r0
 80051b4:	b910      	cbnz	r0, 80051bc <remove_chain+0x38>
 80051b6:	2000      	movs	r0, #0
 80051b8:	b002      	add	sp, #8
 80051ba:	bd70      	pop	{r4, r5, r6, pc}
 80051bc:	2801      	cmp	r0, #1
 80051be:	d015      	beq.n	80051ec <remove_chain+0x68>
 80051c0:	1c43      	adds	r3, r0, #1
 80051c2:	d015      	beq.n	80051f0 <remove_chain+0x6c>
 80051c4:	2200      	movs	r2, #0
 80051c6:	4628      	mov	r0, r5
 80051c8:	f7ff fe6c 	bl	8004ea4 <put_fat>
 80051cc:	2800      	cmp	r0, #0
 80051ce:	d1f3      	bne.n	80051b8 <remove_chain+0x34>
 80051d0:	e9d5 3205 	ldrd	r3, r2, [r5, #20]
 80051d4:	1e91      	subs	r1, r2, #2
 80051d6:	428b      	cmp	r3, r1
 80051d8:	d205      	bcs.n	80051e6 <remove_chain+0x62>
 80051da:	3301      	adds	r3, #1
 80051dc:	616b      	str	r3, [r5, #20]
 80051de:	792b      	ldrb	r3, [r5, #4]
 80051e0:	f043 0301 	orr.w	r3, r3, #1
 80051e4:	712b      	strb	r3, [r5, #4]
 80051e6:	42a2      	cmp	r2, r4
 80051e8:	d8dd      	bhi.n	80051a6 <remove_chain+0x22>
 80051ea:	e7e4      	b.n	80051b6 <remove_chain+0x32>
 80051ec:	2002      	movs	r0, #2
 80051ee:	e7e3      	b.n	80051b8 <remove_chain+0x34>
 80051f0:	2001      	movs	r0, #1
 80051f2:	e7e1      	b.n	80051b8 <remove_chain+0x34>

080051f4 <sync_fs>:
 80051f4:	b5f8      	push	{r3, r4, r5, r6, r7, lr}
 80051f6:	4604      	mov	r4, r0
 80051f8:	f7ff fc8c 	bl	8004b14 <sync_window>
 80051fc:	4605      	mov	r5, r0
 80051fe:	2800      	cmp	r0, #0
 8005200:	d142      	bne.n	8005288 <sync_fs+0x94>
 8005202:	7823      	ldrb	r3, [r4, #0]
 8005204:	2b03      	cmp	r3, #3
 8005206:	d137      	bne.n	8005278 <sync_fs+0x84>
 8005208:	7927      	ldrb	r7, [r4, #4]
 800520a:	2f01      	cmp	r7, #1
 800520c:	d134      	bne.n	8005278 <sync_fs+0x84>
 800520e:	f104 0634 	add.w	r6, r4, #52	; 0x34
 8005212:	4601      	mov	r1, r0
 8005214:	f44f 7200 	mov.w	r2, #512	; 0x200
 8005218:	4630      	mov	r0, r6
 800521a:	f7ff fb35 	bl	8004888 <mem_set>
 800521e:	2355      	movs	r3, #85	; 0x55
 8005220:	f884 3232 	strb.w	r3, [r4, #562]	; 0x232
 8005224:	23aa      	movs	r3, #170	; 0xaa
 8005226:	f884 3233 	strb.w	r3, [r4, #563]	; 0x233
 800522a:	2352      	movs	r3, #82	; 0x52
 800522c:	2241      	movs	r2, #65	; 0x41
 800522e:	2172      	movs	r1, #114	; 0x72
 8005230:	f884 3034 	strb.w	r3, [r4, #52]	; 0x34
 8005234:	f884 3035 	strb.w	r3, [r4, #53]	; 0x35
 8005238:	2361      	movs	r3, #97	; 0x61
 800523a:	f884 3036 	strb.w	r3, [r4, #54]	; 0x36
 800523e:	f884 2037 	strb.w	r2, [r4, #55]	; 0x37
 8005242:	f884 221a 	strb.w	r2, [r4, #538]	; 0x21a
 8005246:	f884 321b 	strb.w	r3, [r4, #539]	; 0x21b
 800524a:	f884 1218 	strb.w	r1, [r4, #536]	; 0x218
 800524e:	f884 1219 	strb.w	r1, [r4, #537]	; 0x219
 8005252:	f504 7007 	add.w	r0, r4, #540	; 0x21c
 8005256:	6961      	ldr	r1, [r4, #20]
 8005258:	f7ff fb0e 	bl	8004878 <st_dword>
 800525c:	6921      	ldr	r1, [r4, #16]
 800525e:	f504 7008 	add.w	r0, r4, #544	; 0x220
 8005262:	f7ff fb09 	bl	8004878 <st_dword>
 8005266:	6a22      	ldr	r2, [r4, #32]
 8005268:	7860      	ldrb	r0, [r4, #1]
 800526a:	3201      	adds	r2, #1
 800526c:	6322      	str	r2, [r4, #48]	; 0x30
 800526e:	463b      	mov	r3, r7
 8005270:	4631      	mov	r1, r6
 8005272:	f7ff fadd 	bl	8004830 <disk_write>
 8005276:	7125      	strb	r5, [r4, #4]
 8005278:	2200      	movs	r2, #0
 800527a:	7860      	ldrb	r0, [r4, #1]
 800527c:	4611      	mov	r1, r2
 800527e:	f7ff fae5 	bl	800484c <disk_ioctl>
 8005282:	3800      	subs	r0, #0
 8005284:	bf18      	it	ne
 8005286:	2001      	movne	r0, #1
 8005288:	bdf8      	pop	{r3, r4, r5, r6, r7, pc}

0800528a <dir_next>:
 800528a:	6943      	ldr	r3, [r0, #20]
 800528c:	e92d 47f0 	stmdb	sp!, {r4, r5, r6, r7, r8, r9, sl, lr}
 8005290:	f103 0820 	add.w	r8, r3, #32
 8005294:	69c3      	ldr	r3, [r0, #28]
 8005296:	4605      	mov	r5, r0
 8005298:	468a      	mov	sl, r1
 800529a:	b193      	cbz	r3, 80052c2 <dir_next+0x38>
 800529c:	f5b8 1f00 	cmp.w	r8, #2097152	; 0x200000
 80052a0:	d20f      	bcs.n	80052c2 <dir_next+0x38>
 80052a2:	f3c8 0908 	ubfx	r9, r8, #0, #9
 80052a6:	6804      	ldr	r4, [r0, #0]
 80052a8:	f1b9 0f00 	cmp.w	r9, #0
 80052ac:	d14d      	bne.n	800534a <dir_next+0xc0>
 80052ae:	6981      	ldr	r1, [r0, #24]
 80052b0:	3301      	adds	r3, #1
 80052b2:	61c3      	str	r3, [r0, #28]
 80052b4:	b939      	cbnz	r1, 80052c6 <dir_next+0x3c>
 80052b6:	8923      	ldrh	r3, [r4, #8]
 80052b8:	ebb3 1f58 	cmp.w	r3, r8, lsr #5
 80052bc:	d845      	bhi.n	800534a <dir_next+0xc0>
 80052be:	2300      	movs	r3, #0
 80052c0:	61eb      	str	r3, [r5, #28]
 80052c2:	2004      	movs	r0, #4
 80052c4:	e00b      	b.n	80052de <dir_next+0x54>
 80052c6:	8967      	ldrh	r7, [r4, #10]
 80052c8:	3f01      	subs	r7, #1
 80052ca:	ea17 2758 	ands.w	r7, r7, r8, lsr #9
 80052ce:	d13c      	bne.n	800534a <dir_next+0xc0>
 80052d0:	4620      	mov	r0, r4
 80052d2:	f7ff fe64 	bl	8004f9e <get_fat.isra.0>
 80052d6:	2801      	cmp	r0, #1
 80052d8:	4606      	mov	r6, r0
 80052da:	d802      	bhi.n	80052e2 <dir_next+0x58>
 80052dc:	2002      	movs	r0, #2
 80052de:	e8bd 87f0 	ldmia.w	sp!, {r4, r5, r6, r7, r8, r9, sl, pc}
 80052e2:	1c42      	adds	r2, r0, #1
 80052e4:	d101      	bne.n	80052ea <dir_next+0x60>
 80052e6:	2001      	movs	r0, #1
 80052e8:	e7f9      	b.n	80052de <dir_next+0x54>
 80052ea:	69a3      	ldr	r3, [r4, #24]
 80052ec:	4283      	cmp	r3, r0
 80052ee:	d826      	bhi.n	800533e <dir_next+0xb4>
 80052f0:	f1ba 0f00 	cmp.w	sl, #0
 80052f4:	d0e3      	beq.n	80052be <dir_next+0x34>
 80052f6:	69a9      	ldr	r1, [r5, #24]
 80052f8:	4628      	mov	r0, r5
 80052fa:	f7ff feeb 	bl	80050d4 <create_chain>
 80052fe:	4606      	mov	r6, r0
 8005300:	2800      	cmp	r0, #0
 8005302:	d035      	beq.n	8005370 <dir_next+0xe6>
 8005304:	2801      	cmp	r0, #1
 8005306:	d0e9      	beq.n	80052dc <dir_next+0x52>
 8005308:	1c43      	adds	r3, r0, #1
 800530a:	d0ec      	beq.n	80052e6 <dir_next+0x5c>
 800530c:	4620      	mov	r0, r4
 800530e:	f7ff fc01 	bl	8004b14 <sync_window>
 8005312:	4601      	mov	r1, r0
 8005314:	2800      	cmp	r0, #0
 8005316:	d1e6      	bne.n	80052e6 <dir_next+0x5c>
 8005318:	f44f 7200 	mov.w	r2, #512	; 0x200
 800531c:	f104 0034 	add.w	r0, r4, #52	; 0x34
 8005320:	f7ff fab2 	bl	8004888 <mem_set>
 8005324:	4631      	mov	r1, r6
 8005326:	4620      	mov	r0, r4
 8005328:	f7ff fb4e 	bl	80049c8 <clust2sect>
 800532c:	f04f 0a01 	mov.w	sl, #1
 8005330:	6320      	str	r0, [r4, #48]	; 0x30
 8005332:	8963      	ldrh	r3, [r4, #10]
 8005334:	429f      	cmp	r7, r3
 8005336:	d30f      	bcc.n	8005358 <dir_next+0xce>
 8005338:	6b23      	ldr	r3, [r4, #48]	; 0x30
 800533a:	1bdf      	subs	r7, r3, r7
 800533c:	6327      	str	r7, [r4, #48]	; 0x30
 800533e:	61ae      	str	r6, [r5, #24]
 8005340:	4631      	mov	r1, r6
 8005342:	4620      	mov	r0, r4
 8005344:	f7ff fb40 	bl	80049c8 <clust2sect>
 8005348:	61e8      	str	r0, [r5, #28]
 800534a:	3434      	adds	r4, #52	; 0x34
 800534c:	444c      	add	r4, r9
 800534e:	f8c5 8014 	str.w	r8, [r5, #20]
 8005352:	622c      	str	r4, [r5, #32]
 8005354:	2000      	movs	r0, #0
 8005356:	e7c2      	b.n	80052de <dir_next+0x54>
 8005358:	f884 a003 	strb.w	sl, [r4, #3]
 800535c:	4620      	mov	r0, r4
 800535e:	f7ff fbb3 	bl	8004ac8 <sync_window.part.0>
 8005362:	2800      	cmp	r0, #0
 8005364:	d1bf      	bne.n	80052e6 <dir_next+0x5c>
 8005366:	6b23      	ldr	r3, [r4, #48]	; 0x30
 8005368:	3301      	adds	r3, #1
 800536a:	3701      	adds	r7, #1
 800536c:	6323      	str	r3, [r4, #48]	; 0x30
 800536e:	e7e0      	b.n	8005332 <dir_next+0xa8>
 8005370:	2007      	movs	r0, #7
 8005372:	e7b4      	b.n	80052de <dir_next+0x54>

08005374 <dir_remove>:
 8005374:	6b01      	ldr	r1, [r0, #48]	; 0x30
 8005376:	1c4b      	adds	r3, r1, #1
 8005378:	e92d 41f0 	stmdb	sp!, {r4, r5, r6, r7, r8, lr}
 800537c:	6805      	ldr	r5, [r0, #0]
 800537e:	6946      	ldr	r6, [r0, #20]
 8005380:	4604      	mov	r4, r0
 8005382:	d118      	bne.n	80053b6 <dir_remove+0x42>
 8005384:	27e5      	movs	r7, #229	; 0xe5
 8005386:	f04f 0801 	mov.w	r8, #1
 800538a:	69e1      	ldr	r1, [r4, #28]
 800538c:	4628      	mov	r0, r5
 800538e:	f7ff fbc7 	bl	8004b20 <move_window>
 8005392:	b960      	cbnz	r0, 80053ae <dir_remove+0x3a>
 8005394:	6a23      	ldr	r3, [r4, #32]
 8005396:	701f      	strb	r7, [r3, #0]
 8005398:	f885 8003 	strb.w	r8, [r5, #3]
 800539c:	6963      	ldr	r3, [r4, #20]
 800539e:	42b3      	cmp	r3, r6
 80053a0:	d20d      	bcs.n	80053be <dir_remove+0x4a>
 80053a2:	4601      	mov	r1, r0
 80053a4:	4620      	mov	r0, r4
 80053a6:	f7ff ff70 	bl	800528a <dir_next>
 80053aa:	2800      	cmp	r0, #0
 80053ac:	d0ed      	beq.n	800538a <dir_remove+0x16>
 80053ae:	2804      	cmp	r0, #4
 80053b0:	bf08      	it	eq
 80053b2:	2002      	moveq	r0, #2
 80053b4:	e003      	b.n	80053be <dir_remove+0x4a>
 80053b6:	f7ff fe4c 	bl	8005052 <dir_sdi>
 80053ba:	2800      	cmp	r0, #0
 80053bc:	d0e2      	beq.n	8005384 <dir_remove+0x10>
 80053be:	e8bd 81f0 	ldmia.w	sp!, {r4, r5, r6, r7, r8, pc}
	...

080053c4 <dir_find>:
 80053c4:	e92d 4ff0 	stmdb	sp!, {r4, r5, r6, r7, r8, r9, sl, fp, lr}
 80053c8:	2100      	movs	r1, #0
 80053ca:	b085      	sub	sp, #20
 80053cc:	f8d0 a000 	ldr.w	sl, [r0]
 80053d0:	4604      	mov	r4, r0
 80053d2:	f7ff fe3e 	bl	8005052 <dir_sdi>
 80053d6:	4607      	mov	r7, r0
 80053d8:	2800      	cmp	r0, #0
 80053da:	f040 809b 	bne.w	8005514 <dir_find+0x150>
 80053de:	f04f 33ff 	mov.w	r3, #4294967295
 80053e2:	f04f 09ff 	mov.w	r9, #255	; 0xff
 80053e6:	6323      	str	r3, [r4, #48]	; 0x30
 80053e8:	46c8      	mov	r8, r9
 80053ea:	9300      	str	r3, [sp, #0]
 80053ec:	69e1      	ldr	r1, [r4, #28]
 80053ee:	4650      	mov	r0, sl
 80053f0:	f7ff fb96 	bl	8004b20 <move_window>
 80053f4:	4607      	mov	r7, r0
 80053f6:	2800      	cmp	r0, #0
 80053f8:	f040 808c 	bne.w	8005514 <dir_find+0x150>
 80053fc:	6a25      	ldr	r5, [r4, #32]
 80053fe:	782e      	ldrb	r6, [r5, #0]
 8005400:	2e00      	cmp	r6, #0
 8005402:	f000 808b 	beq.w	800551c <dir_find+0x158>
 8005406:	7aea      	ldrb	r2, [r5, #11]
 8005408:	2ee5      	cmp	r6, #229	; 0xe5
 800540a:	f002 033f 	and.w	r3, r2, #63	; 0x3f
 800540e:	71a3      	strb	r3, [r4, #6]
 8005410:	d003      	beq.n	800541a <dir_find+0x56>
 8005412:	0710      	lsls	r0, r2, #28
 8005414:	d504      	bpl.n	8005420 <dir_find+0x5c>
 8005416:	2b0f      	cmp	r3, #15
 8005418:	d004      	beq.n	8005424 <dir_find+0x60>
 800541a:	9b00      	ldr	r3, [sp, #0]
 800541c:	6323      	str	r3, [r4, #48]	; 0x30
 800541e:	e053      	b.n	80054c8 <dir_find+0x104>
 8005420:	2b0f      	cmp	r3, #15
 8005422:	d159      	bne.n	80054d8 <dir_find+0x114>
 8005424:	f894 302f 	ldrb.w	r3, [r4, #47]	; 0x2f
 8005428:	0659      	lsls	r1, r3, #25
 800542a:	d443      	bmi.n	80054b4 <dir_find+0xf0>
 800542c:	0672      	lsls	r2, r6, #25
 800542e:	d549      	bpl.n	80054c4 <dir_find+0x100>
 8005430:	6963      	ldr	r3, [r4, #20]
 8005432:	f895 900d 	ldrb.w	r9, [r5, #13]
 8005436:	6323      	str	r3, [r4, #48]	; 0x30
 8005438:	f006 06bf 	and.w	r6, r6, #191	; 0xbf
 800543c:	7b6b      	ldrb	r3, [r5, #13]
 800543e:	454b      	cmp	r3, r9
 8005440:	d142      	bne.n	80054c8 <dir_find+0x104>
 8005442:	7eea      	ldrb	r2, [r5, #27]
 8005444:	7eab      	ldrb	r3, [r5, #26]
 8005446:	ea53 2302 	orrs.w	r3, r3, r2, lsl #8
 800544a:	d13d      	bne.n	80054c8 <dir_find+0x104>
 800544c:	782f      	ldrb	r7, [r5, #0]
 800544e:	f8da b00c 	ldr.w	fp, [sl, #12]
 8005452:	f007 073f 	and.w	r7, r7, #63	; 0x3f
 8005456:	1e7b      	subs	r3, r7, #1
 8005458:	270d      	movs	r7, #13
 800545a:	435f      	muls	r7, r3
 800545c:	4b30      	ldr	r3, [pc, #192]	; (8005520 <dir_find+0x15c>)
 800545e:	2201      	movs	r2, #1
 8005460:	f813 1b01 	ldrb.w	r1, [r3], #1
 8005464:	1868      	adds	r0, r5, r1
 8005466:	f815 8001 	ldrb.w	r8, [r5, r1]
 800546a:	7840      	ldrb	r0, [r0, #1]
 800546c:	ea48 2800 	orr.w	r8, r8, r0, lsl #8
 8005470:	b36a      	cbz	r2, 80054ce <dir_find+0x10a>
 8005472:	2ffe      	cmp	r7, #254	; 0xfe
 8005474:	9303      	str	r3, [sp, #12]
 8005476:	d827      	bhi.n	80054c8 <dir_find+0x104>
 8005478:	4640      	mov	r0, r8
 800547a:	f001 f855 	bl	8006528 <ff_wtoupper>
 800547e:	1c79      	adds	r1, r7, #1
 8005480:	9002      	str	r0, [sp, #8]
 8005482:	f83b 0017 	ldrh.w	r0, [fp, r7, lsl #1]
 8005486:	9101      	str	r1, [sp, #4]
 8005488:	f001 f84e 	bl	8006528 <ff_wtoupper>
 800548c:	9a02      	ldr	r2, [sp, #8]
 800548e:	4282      	cmp	r2, r0
 8005490:	d11a      	bne.n	80054c8 <dir_find+0x104>
 8005492:	9901      	ldr	r1, [sp, #4]
 8005494:	9b03      	ldr	r3, [sp, #12]
 8005496:	4642      	mov	r2, r8
 8005498:	460f      	mov	r7, r1
 800549a:	4922      	ldr	r1, [pc, #136]	; (8005524 <dir_find+0x160>)
 800549c:	4299      	cmp	r1, r3
 800549e:	d1df      	bne.n	8005460 <dir_find+0x9c>
 80054a0:	782b      	ldrb	r3, [r5, #0]
 80054a2:	065b      	lsls	r3, r3, #25
 80054a4:	d503      	bpl.n	80054ae <dir_find+0xea>
 80054a6:	b112      	cbz	r2, 80054ae <dir_find+0xea>
 80054a8:	f83b 3017 	ldrh.w	r3, [fp, r7, lsl #1]
 80054ac:	b963      	cbnz	r3, 80054c8 <dir_find+0x104>
 80054ae:	3e01      	subs	r6, #1
 80054b0:	fa5f f886 	uxtb.w	r8, r6
 80054b4:	2100      	movs	r1, #0
 80054b6:	4620      	mov	r0, r4
 80054b8:	f7ff fee7 	bl	800528a <dir_next>
 80054bc:	4607      	mov	r7, r0
 80054be:	2800      	cmp	r0, #0
 80054c0:	d094      	beq.n	80053ec <dir_find+0x28>
 80054c2:	e027      	b.n	8005514 <dir_find+0x150>
 80054c4:	45b0      	cmp	r8, r6
 80054c6:	d0b9      	beq.n	800543c <dir_find+0x78>
 80054c8:	f04f 08ff 	mov.w	r8, #255	; 0xff
 80054cc:	e7f2      	b.n	80054b4 <dir_find+0xf0>
 80054ce:	f64f 71ff 	movw	r1, #65535	; 0xffff
 80054d2:	4588      	cmp	r8, r1
 80054d4:	d0e1      	beq.n	800549a <dir_find+0xd6>
 80054d6:	e7f7      	b.n	80054c8 <dir_find+0x104>
 80054d8:	f1b8 0f00 	cmp.w	r8, #0
 80054dc:	d104      	bne.n	80054e8 <dir_find+0x124>
 80054de:	4628      	mov	r0, r5
 80054e0:	f7ff fa8e 	bl	8004a00 <sum_sfn>
 80054e4:	4548      	cmp	r0, r9
 80054e6:	d015      	beq.n	8005514 <dir_find+0x150>
 80054e8:	f894 702f 	ldrb.w	r7, [r4, #47]	; 0x2f
 80054ec:	f017 0701 	ands.w	r7, r7, #1
 80054f0:	d193      	bne.n	800541a <dir_find+0x56>
 80054f2:	f104 0224 	add.w	r2, r4, #36	; 0x24
 80054f6:	f105 010b 	add.w	r1, r5, #11
 80054fa:	f815 3b01 	ldrb.w	r3, [r5], #1
 80054fe:	f812 0b01 	ldrb.w	r0, [r2], #1
 8005502:	428d      	cmp	r5, r1
 8005504:	eba3 0300 	sub.w	r3, r3, r0
 8005508:	d002      	beq.n	8005510 <dir_find+0x14c>
 800550a:	2b00      	cmp	r3, #0
 800550c:	d0f5      	beq.n	80054fa <dir_find+0x136>
 800550e:	e784      	b.n	800541a <dir_find+0x56>
 8005510:	2b00      	cmp	r3, #0
 8005512:	d182      	bne.n	800541a <dir_find+0x56>
 8005514:	4638      	mov	r0, r7
 8005516:	b005      	add	sp, #20
 8005518:	e8bd 8ff0 	ldmia.w	sp!, {r4, r5, r6, r7, r8, r9, sl, fp, pc}
 800551c:	2704      	movs	r7, #4
 800551e:	e7f9      	b.n	8005514 <dir_find+0x150>
 8005520:	080079a0 	.word	0x080079a0
 8005524:	080079ad 	.word	0x080079ad

08005528 <dir_register>:
 8005528:	e92d 4ff0 	stmdb	sp!, {r4, r5, r6, r7, r8, r9, sl, fp, lr}
 800552c:	f890 502f 	ldrb.w	r5, [r0, #47]	; 0x2f
 8005530:	f015 05a0 	ands.w	r5, r5, #160	; 0xa0
 8005534:	b089      	sub	sp, #36	; 0x24
 8005536:	4604      	mov	r4, r0
 8005538:	f040 8093 	bne.w	8005662 <dir_register+0x13a>
 800553c:	6806      	ldr	r6, [r0, #0]
 800553e:	68f2      	ldr	r2, [r6, #12]
 8005540:	f832 3015 	ldrh.w	r3, [r2, r5, lsl #1]
 8005544:	2b00      	cmp	r3, #0
 8005546:	d162      	bne.n	800560e <dir_register+0xe6>
 8005548:	f104 0724 	add.w	r7, r4, #36	; 0x24
 800554c:	220c      	movs	r2, #12
 800554e:	4639      	mov	r1, r7
 8005550:	a805      	add	r0, sp, #20
 8005552:	f7ff fa96 	bl	8004a82 <mem_cpy.part.0>
 8005556:	f89d 301f 	ldrb.w	r3, [sp, #31]
 800555a:	07db      	lsls	r3, r3, #31
 800555c:	f140 808a 	bpl.w	8005674 <dir_register+0x14c>
 8005560:	2340      	movs	r3, #64	; 0x40
 8005562:	f8df 8244 	ldr.w	r8, [pc, #580]	; 80057a8 <dir_register+0x280>
 8005566:	f884 302f 	strb.w	r3, [r4, #47]	; 0x2f
 800556a:	f04f 0a01 	mov.w	sl, #1
 800556e:	220b      	movs	r2, #11
 8005570:	a905      	add	r1, sp, #20
 8005572:	4638      	mov	r0, r7
 8005574:	f8d6 900c 	ldr.w	r9, [r6, #12]
 8005578:	f7ff fa83 	bl	8004a82 <mem_cpy.part.0>
 800557c:	f1ba 0f05 	cmp.w	sl, #5
 8005580:	d956      	bls.n	8005630 <dir_register+0x108>
 8005582:	f1a9 0102 	sub.w	r1, r9, #2
 8005586:	4653      	mov	r3, sl
 8005588:	f831 2f02 	ldrh.w	r2, [r1, #2]!
 800558c:	2a00      	cmp	r2, #0
 800558e:	d140      	bne.n	8005612 <dir_register+0xea>
 8005590:	f10d 0c13 	add.w	ip, sp, #19
 8005594:	2207      	movs	r2, #7
 8005596:	f003 000f 	and.w	r0, r3, #15
 800559a:	f100 0130 	add.w	r1, r0, #48	; 0x30
 800559e:	2939      	cmp	r1, #57	; 0x39
 80055a0:	bf88      	it	hi
 80055a2:	f100 0137 	addhi.w	r1, r0, #55	; 0x37
 80055a6:	2b0f      	cmp	r3, #15
 80055a8:	f80c 1901 	strb.w	r1, [ip], #-1
 80055ac:	f102 30ff 	add.w	r0, r2, #4294967295
 80055b0:	ea4f 1113 	mov.w	r1, r3, lsr #4
 80055b4:	d83e      	bhi.n	8005634 <dir_register+0x10c>
 80055b6:	ab08      	add	r3, sp, #32
 80055b8:	4403      	add	r3, r0
 80055ba:	217e      	movs	r1, #126	; 0x7e
 80055bc:	f803 1c14 	strb.w	r1, [r3, #-20]
 80055c0:	2300      	movs	r3, #0
 80055c2:	1e91      	subs	r1, r2, #2
 80055c4:	4298      	cmp	r0, r3
 80055c6:	d902      	bls.n	80055ce <dir_register+0xa6>
 80055c8:	5cfa      	ldrb	r2, [r7, r3]
 80055ca:	2a20      	cmp	r2, #32
 80055cc:	d135      	bne.n	800563a <dir_register+0x112>
 80055ce:	f104 0123 	add.w	r1, r4, #35	; 0x23
 80055d2:	2807      	cmp	r0, #7
 80055d4:	bf9c      	itt	ls
 80055d6:	aa08      	addls	r2, sp, #32
 80055d8:	1812      	addls	r2, r2, r0
 80055da:	f103 0301 	add.w	r3, r3, #1
 80055de:	bf96      	itet	ls
 80055e0:	f812 2c14 	ldrbls.w	r2, [r2, #-20]
 80055e4:	2220      	movhi	r2, #32
 80055e6:	3001      	addls	r0, #1
 80055e8:	2b07      	cmp	r3, #7
 80055ea:	54ca      	strb	r2, [r1, r3]
 80055ec:	d9f1      	bls.n	80055d2 <dir_register+0xaa>
 80055ee:	4620      	mov	r0, r4
 80055f0:	f7ff fee8 	bl	80053c4 <dir_find>
 80055f4:	4681      	mov	r9, r0
 80055f6:	bbb8      	cbnz	r0, 8005668 <dir_register+0x140>
 80055f8:	f10a 0a01 	add.w	sl, sl, #1
 80055fc:	f1ba 0f64 	cmp.w	sl, #100	; 0x64
 8005600:	d1b5      	bne.n	800556e <dir_register+0x46>
 8005602:	f04f 0907 	mov.w	r9, #7
 8005606:	4648      	mov	r0, r9
 8005608:	b009      	add	sp, #36	; 0x24
 800560a:	e8bd 8ff0 	ldmia.w	sp!, {r4, r5, r6, r7, r8, r9, sl, fp, pc}
 800560e:	3501      	adds	r5, #1
 8005610:	e796      	b.n	8005540 <dir_register+0x18>
 8005612:	2010      	movs	r0, #16
 8005614:	f002 0c01 	and.w	ip, r2, #1
 8005618:	eb0c 0343 	add.w	r3, ip, r3, lsl #1
 800561c:	f413 3f80 	tst.w	r3, #65536	; 0x10000
 8005620:	bf18      	it	ne
 8005622:	ea83 0308 	eorne.w	r3, r3, r8
 8005626:	3801      	subs	r0, #1
 8005628:	ea4f 0252 	mov.w	r2, r2, lsr #1
 800562c:	d1f2      	bne.n	8005614 <dir_register+0xec>
 800562e:	e7ab      	b.n	8005588 <dir_register+0x60>
 8005630:	4653      	mov	r3, sl
 8005632:	e7ad      	b.n	8005590 <dir_register+0x68>
 8005634:	4602      	mov	r2, r0
 8005636:	460b      	mov	r3, r1
 8005638:	e7ad      	b.n	8005596 <dir_register+0x6e>
 800563a:	327f      	adds	r2, #127	; 0x7f
 800563c:	b2d2      	uxtb	r2, r2
 800563e:	2a7d      	cmp	r2, #125	; 0x7d
 8005640:	d802      	bhi.n	8005648 <dir_register+0x120>
 8005642:	4299      	cmp	r1, r3
 8005644:	d0c3      	beq.n	80055ce <dir_register+0xa6>
 8005646:	3301      	adds	r3, #1
 8005648:	3301      	adds	r3, #1
 800564a:	e7bb      	b.n	80055c4 <dir_register+0x9c>
 800564c:	4680      	mov	r8, r0
 800564e:	2101      	movs	r1, #1
 8005650:	4620      	mov	r0, r4
 8005652:	f7ff fe1a 	bl	800528a <dir_next>
 8005656:	4681      	mov	r9, r0
 8005658:	b310      	cbz	r0, 80056a0 <dir_register+0x178>
 800565a:	f1b9 0f04 	cmp.w	r9, #4
 800565e:	d0d0      	beq.n	8005602 <dir_register+0xda>
 8005660:	e7d1      	b.n	8005606 <dir_register+0xde>
 8005662:	f04f 0906 	mov.w	r9, #6
 8005666:	e7ce      	b.n	8005606 <dir_register+0xde>
 8005668:	2804      	cmp	r0, #4
 800566a:	d1cc      	bne.n	8005606 <dir_register+0xde>
 800566c:	f89d 301f 	ldrb.w	r3, [sp, #31]
 8005670:	f884 302f 	strb.w	r3, [r4, #47]	; 0x2f
 8005674:	f89d 301f 	ldrb.w	r3, [sp, #31]
 8005678:	f8d4 a000 	ldr.w	sl, [r4]
 800567c:	079b      	lsls	r3, r3, #30
 800567e:	bf48      	it	mi
 8005680:	350c      	addmi	r5, #12
 8005682:	f04f 0100 	mov.w	r1, #0
 8005686:	4620      	mov	r0, r4
 8005688:	bf49      	itett	mi
 800568a:	230d      	movmi	r3, #13
 800568c:	2501      	movpl	r5, #1
 800568e:	fbb5 f5f3 	udivmi	r5, r5, r3
 8005692:	3501      	addmi	r5, #1
 8005694:	f7ff fcdd 	bl	8005052 <dir_sdi>
 8005698:	4681      	mov	r9, r0
 800569a:	2800      	cmp	r0, #0
 800569c:	d1dd      	bne.n	800565a <dir_register+0x132>
 800569e:	4680      	mov	r8, r0
 80056a0:	69e1      	ldr	r1, [r4, #28]
 80056a2:	4650      	mov	r0, sl
 80056a4:	f7ff fa3c 	bl	8004b20 <move_window>
 80056a8:	4681      	mov	r9, r0
 80056aa:	2800      	cmp	r0, #0
 80056ac:	d1d5      	bne.n	800565a <dir_register+0x132>
 80056ae:	6a23      	ldr	r3, [r4, #32]
 80056b0:	781b      	ldrb	r3, [r3, #0]
 80056b2:	2be5      	cmp	r3, #229	; 0xe5
 80056b4:	d001      	beq.n	80056ba <dir_register+0x192>
 80056b6:	2b00      	cmp	r3, #0
 80056b8:	d1c8      	bne.n	800564c <dir_register+0x124>
 80056ba:	f108 0801 	add.w	r8, r8, #1
 80056be:	4545      	cmp	r5, r8
 80056c0:	d1c5      	bne.n	800564e <dir_register+0x126>
 80056c2:	3d01      	subs	r5, #1
 80056c4:	d055      	beq.n	8005772 <dir_register+0x24a>
 80056c6:	6961      	ldr	r1, [r4, #20]
 80056c8:	4620      	mov	r0, r4
 80056ca:	eba1 1145 	sub.w	r1, r1, r5, lsl #5
 80056ce:	f7ff fcc0 	bl	8005052 <dir_sdi>
 80056d2:	4681      	mov	r9, r0
 80056d4:	2800      	cmp	r0, #0
 80056d6:	d196      	bne.n	8005606 <dir_register+0xde>
 80056d8:	4638      	mov	r0, r7
 80056da:	f7ff f991 	bl	8004a00 <sum_sfn>
 80056de:	f64f 78ff 	movw	r8, #65535	; 0xffff
 80056e2:	9001      	str	r0, [sp, #4]
 80056e4:	69e1      	ldr	r1, [r4, #28]
 80056e6:	4630      	mov	r0, r6
 80056e8:	f7ff fa1a 	bl	8004b20 <move_window>
 80056ec:	4681      	mov	r9, r0
 80056ee:	2800      	cmp	r0, #0
 80056f0:	d189      	bne.n	8005606 <dir_register+0xde>
 80056f2:	6a23      	ldr	r3, [r4, #32]
 80056f4:	9a01      	ldr	r2, [sp, #4]
 80056f6:	f8d6 e00c 	ldr.w	lr, [r6, #12]
 80056fa:	735a      	strb	r2, [r3, #13]
 80056fc:	b2e9      	uxtb	r1, r5
 80056fe:	f04f 020f 	mov.w	r2, #15
 8005702:	f04f 0c0d 	mov.w	ip, #13
 8005706:	72da      	strb	r2, [r3, #11]
 8005708:	f8df a0a0 	ldr.w	sl, [pc, #160]	; 80057ac <dir_register+0x284>
 800570c:	7318      	strb	r0, [r3, #12]
 800570e:	1e4a      	subs	r2, r1, #1
 8005710:	fb0c f202 	mul.w	r2, ip, r2
 8005714:	7698      	strb	r0, [r3, #26]
 8005716:	76d8      	strb	r0, [r3, #27]
 8005718:	4684      	mov	ip, r0
 800571a:	f81a 9b01 	ldrb.w	r9, [sl], #1
 800571e:	4540      	cmp	r0, r8
 8005720:	bf18      	it	ne
 8005722:	f83e 0012 	ldrhne.w	r0, [lr, r2, lsl #1]
 8005726:	f803 0009 	strb.w	r0, [r3, r9]
 800572a:	eb03 0b09 	add.w	fp, r3, r9
 800572e:	f10c 0c01 	add.w	ip, ip, #1
 8005732:	bf18      	it	ne
 8005734:	3201      	addne	r2, #1
 8005736:	ea4f 2910 	mov.w	r9, r0, lsr #8
 800573a:	2800      	cmp	r0, #0
 800573c:	bf08      	it	eq
 800573e:	4640      	moveq	r0, r8
 8005740:	f1bc 0f0d 	cmp.w	ip, #13
 8005744:	f88b 9001 	strb.w	r9, [fp, #1]
 8005748:	d1e7      	bne.n	800571a <dir_register+0x1f2>
 800574a:	4540      	cmp	r0, r8
 800574c:	d002      	beq.n	8005754 <dir_register+0x22c>
 800574e:	f83e 2012 	ldrh.w	r2, [lr, r2, lsl #1]
 8005752:	b90a      	cbnz	r2, 8005758 <dir_register+0x230>
 8005754:	f041 0140 	orr.w	r1, r1, #64	; 0x40
 8005758:	7019      	strb	r1, [r3, #0]
 800575a:	2301      	movs	r3, #1
 800575c:	70f3      	strb	r3, [r6, #3]
 800575e:	2100      	movs	r1, #0
 8005760:	4620      	mov	r0, r4
 8005762:	f7ff fd92 	bl	800528a <dir_next>
 8005766:	4681      	mov	r9, r0
 8005768:	2800      	cmp	r0, #0
 800576a:	f47f af4c 	bne.w	8005606 <dir_register+0xde>
 800576e:	3d01      	subs	r5, #1
 8005770:	d1b8      	bne.n	80056e4 <dir_register+0x1bc>
 8005772:	69e1      	ldr	r1, [r4, #28]
 8005774:	4630      	mov	r0, r6
 8005776:	f7ff f9d3 	bl	8004b20 <move_window>
 800577a:	4681      	mov	r9, r0
 800577c:	2800      	cmp	r0, #0
 800577e:	f47f af42 	bne.w	8005606 <dir_register+0xde>
 8005782:	4601      	mov	r1, r0
 8005784:	2220      	movs	r2, #32
 8005786:	6a20      	ldr	r0, [r4, #32]
 8005788:	f7ff f87e 	bl	8004888 <mem_set>
 800578c:	220b      	movs	r2, #11
 800578e:	6a20      	ldr	r0, [r4, #32]
 8005790:	4639      	mov	r1, r7
 8005792:	f7ff f976 	bl	8004a82 <mem_cpy.part.0>
 8005796:	f894 302f 	ldrb.w	r3, [r4, #47]	; 0x2f
 800579a:	6a22      	ldr	r2, [r4, #32]
 800579c:	f003 0318 	and.w	r3, r3, #24
 80057a0:	7313      	strb	r3, [r2, #12]
 80057a2:	2301      	movs	r3, #1
 80057a4:	70f3      	strb	r3, [r6, #3]
 80057a6:	e72e      	b.n	8005606 <dir_register+0xde>
 80057a8:	00011021 	.word	0x00011021
 80057ac:	080079a0 	.word	0x080079a0

080057b0 <dir_read.constprop.0>:
 80057b0:	e92d 4ff8 	stmdb	sp!, {r3, r4, r5, r6, r7, r8, r9, sl, fp, lr}
 80057b4:	27ff      	movs	r7, #255	; 0xff
 80057b6:	f8d0 8000 	ldr.w	r8, [r0]
 80057ba:	4606      	mov	r6, r0
 80057bc:	463c      	mov	r4, r7
 80057be:	2504      	movs	r5, #4
 80057c0:	f64f 79ff 	movw	r9, #65535	; 0xffff
 80057c4:	69f1      	ldr	r1, [r6, #28]
 80057c6:	b911      	cbnz	r1, 80057ce <dir_read.constprop.0+0x1e>
 80057c8:	2d00      	cmp	r5, #0
 80057ca:	d06a      	beq.n	80058a2 <dir_read.constprop.0+0xf2>
 80057cc:	e05a      	b.n	8005884 <dir_read.constprop.0+0xd4>
 80057ce:	4640      	mov	r0, r8
 80057d0:	f7ff f9a6 	bl	8004b20 <move_window>
 80057d4:	4605      	mov	r5, r0
 80057d6:	2800      	cmp	r0, #0
 80057d8:	d154      	bne.n	8005884 <dir_read.constprop.0+0xd4>
 80057da:	6a30      	ldr	r0, [r6, #32]
 80057dc:	7803      	ldrb	r3, [r0, #0]
 80057de:	2b00      	cmp	r3, #0
 80057e0:	d067      	beq.n	80058b2 <dir_read.constprop.0+0x102>
 80057e2:	7ac2      	ldrb	r2, [r0, #11]
 80057e4:	2be5      	cmp	r3, #229	; 0xe5
 80057e6:	f002 023f 	and.w	r2, r2, #63	; 0x3f
 80057ea:	71b2      	strb	r2, [r6, #6]
 80057ec:	d04f      	beq.n	800588e <dir_read.constprop.0+0xde>
 80057ee:	2b2e      	cmp	r3, #46	; 0x2e
 80057f0:	d04d      	beq.n	800588e <dir_read.constprop.0+0xde>
 80057f2:	f022 0120 	bic.w	r1, r2, #32
 80057f6:	2908      	cmp	r1, #8
 80057f8:	d049      	beq.n	800588e <dir_read.constprop.0+0xde>
 80057fa:	2a0f      	cmp	r2, #15
 80057fc:	d14c      	bne.n	8005898 <dir_read.constprop.0+0xe8>
 80057fe:	0659      	lsls	r1, r3, #25
 8005800:	d543      	bpl.n	800588a <dir_read.constprop.0+0xda>
 8005802:	f003 04bf 	and.w	r4, r3, #191	; 0xbf
 8005806:	6973      	ldr	r3, [r6, #20]
 8005808:	7b47      	ldrb	r7, [r0, #13]
 800580a:	6333      	str	r3, [r6, #48]	; 0x30
 800580c:	7b43      	ldrb	r3, [r0, #13]
 800580e:	42bb      	cmp	r3, r7
 8005810:	d13d      	bne.n	800588e <dir_read.constprop.0+0xde>
 8005812:	7ec2      	ldrb	r2, [r0, #27]
 8005814:	7e83      	ldrb	r3, [r0, #26]
 8005816:	ea43 2302 	orr.w	r3, r3, r2, lsl #8
 800581a:	b219      	sxth	r1, r3
 800581c:	bbbb      	cbnz	r3, 800588e <dir_read.constprop.0+0xde>
 800581e:	7803      	ldrb	r3, [r0, #0]
 8005820:	f8d8 500c 	ldr.w	r5, [r8, #12]
 8005824:	f8df c090 	ldr.w	ip, [pc, #144]	; 80058b8 <dir_read.constprop.0+0x108>
 8005828:	f023 0340 	bic.w	r3, r3, #64	; 0x40
 800582c:	3b01      	subs	r3, #1
 800582e:	220d      	movs	r2, #13
 8005830:	4353      	muls	r3, r2
 8005832:	f04f 0e01 	mov.w	lr, #1
 8005836:	f81c ab01 	ldrb.w	sl, [ip], #1
 800583a:	eb00 020a 	add.w	r2, r0, sl
 800583e:	f892 b001 	ldrb.w	fp, [r2, #1]
 8005842:	f810 200a 	ldrb.w	r2, [r0, sl]
 8005846:	ea42 220b 	orr.w	r2, r2, fp, lsl #8
 800584a:	f1be 0f00 	cmp.w	lr, #0
 800584e:	d020      	beq.n	8005892 <dir_read.constprop.0+0xe2>
 8005850:	2bfe      	cmp	r3, #254	; 0xfe
 8005852:	d81c      	bhi.n	800588e <dir_read.constprop.0+0xde>
 8005854:	f825 2013 	strh.w	r2, [r5, r3, lsl #1]
 8005858:	4696      	mov	lr, r2
 800585a:	3301      	adds	r3, #1
 800585c:	3101      	adds	r1, #1
 800585e:	290d      	cmp	r1, #13
 8005860:	d1e9      	bne.n	8005836 <dir_read.constprop.0+0x86>
 8005862:	7802      	ldrb	r2, [r0, #0]
 8005864:	0652      	lsls	r2, r2, #25
 8005866:	d504      	bpl.n	8005872 <dir_read.constprop.0+0xc2>
 8005868:	2bfe      	cmp	r3, #254	; 0xfe
 800586a:	d810      	bhi.n	800588e <dir_read.constprop.0+0xde>
 800586c:	2200      	movs	r2, #0
 800586e:	f825 2013 	strh.w	r2, [r5, r3, lsl #1]
 8005872:	3c01      	subs	r4, #1
 8005874:	b2e4      	uxtb	r4, r4
 8005876:	2100      	movs	r1, #0
 8005878:	4630      	mov	r0, r6
 800587a:	f7ff fd06 	bl	800528a <dir_next>
 800587e:	4605      	mov	r5, r0
 8005880:	2800      	cmp	r0, #0
 8005882:	d09f      	beq.n	80057c4 <dir_read.constprop.0+0x14>
 8005884:	2300      	movs	r3, #0
 8005886:	61f3      	str	r3, [r6, #28]
 8005888:	e00c      	b.n	80058a4 <dir_read.constprop.0+0xf4>
 800588a:	42a3      	cmp	r3, r4
 800588c:	d0be      	beq.n	800580c <dir_read.constprop.0+0x5c>
 800588e:	24ff      	movs	r4, #255	; 0xff
 8005890:	e7f1      	b.n	8005876 <dir_read.constprop.0+0xc6>
 8005892:	454a      	cmp	r2, r9
 8005894:	d0e2      	beq.n	800585c <dir_read.constprop.0+0xac>
 8005896:	e7fa      	b.n	800588e <dir_read.constprop.0+0xde>
 8005898:	b93c      	cbnz	r4, 80058aa <dir_read.constprop.0+0xfa>
 800589a:	f7ff f8b1 	bl	8004a00 <sum_sfn>
 800589e:	42b8      	cmp	r0, r7
 80058a0:	d103      	bne.n	80058aa <dir_read.constprop.0+0xfa>
 80058a2:	2500      	movs	r5, #0
 80058a4:	4628      	mov	r0, r5
 80058a6:	e8bd 8ff8 	ldmia.w	sp!, {r3, r4, r5, r6, r7, r8, r9, sl, fp, pc}
 80058aa:	f04f 33ff 	mov.w	r3, #4294967295
 80058ae:	6333      	str	r3, [r6, #48]	; 0x30
 80058b0:	e7f8      	b.n	80058a4 <dir_read.constprop.0+0xf4>
 80058b2:	2504      	movs	r5, #4
 80058b4:	e7e6      	b.n	8005884 <dir_read.constprop.0+0xd4>
 80058b6:	bf00      	nop
 80058b8:	080079a0 	.word	0x080079a0

080058bc <follow_path>:
 80058bc:	e92d 4ff0 	stmdb	sp!, {r4, r5, r6, r7, r8, r9, sl, fp, lr}
 80058c0:	b085      	sub	sp, #20
 80058c2:	6803      	ldr	r3, [r0, #0]
 80058c4:	9301      	str	r3, [sp, #4]
 80058c6:	4606      	mov	r6, r0
 80058c8:	468a      	mov	sl, r1
 80058ca:	f811 3b01 	ldrb.w	r3, [r1], #1
 80058ce:	2b2f      	cmp	r3, #47	; 0x2f
 80058d0:	d0fa      	beq.n	80058c8 <follow_path+0xc>
 80058d2:	2b5c      	cmp	r3, #92	; 0x5c
 80058d4:	d0f8      	beq.n	80058c8 <follow_path+0xc>
 80058d6:	2100      	movs	r1, #0
 80058d8:	60b1      	str	r1, [r6, #8]
 80058da:	f89a 3000 	ldrb.w	r3, [sl]
 80058de:	2b1f      	cmp	r3, #31
 80058e0:	d950      	bls.n	8005984 <follow_path+0xc8>
 80058e2:	9102      	str	r1, [sp, #8]
 80058e4:	6833      	ldr	r3, [r6, #0]
 80058e6:	2500      	movs	r5, #0
 80058e8:	f8d3 b00c 	ldr.w	fp, [r3, #12]
 80058ec:	462c      	mov	r4, r5
 80058ee:	f81a 1004 	ldrb.w	r1, [sl, r4]
 80058f2:	291f      	cmp	r1, #31
 80058f4:	f104 0201 	add.w	r2, r4, #1
 80058f8:	4608      	mov	r0, r1
 80058fa:	d909      	bls.n	8005910 <follow_path+0x54>
 80058fc:	292f      	cmp	r1, #47	; 0x2f
 80058fe:	d001      	beq.n	8005904 <follow_path+0x48>
 8005900:	295c      	cmp	r1, #92	; 0x5c
 8005902:	d14a      	bne.n	800599a <follow_path+0xde>
 8005904:	f81a 1002 	ldrb.w	r1, [sl, r2]
 8005908:	292f      	cmp	r1, #47	; 0x2f
 800590a:	d044      	beq.n	8005996 <follow_path+0xda>
 800590c:	295c      	cmp	r1, #92	; 0x5c
 800590e:	d042      	beq.n	8005996 <follow_path+0xda>
 8005910:	2820      	cmp	r0, #32
 8005912:	4492      	add	sl, r2
 8005914:	bf34      	ite	cc
 8005916:	2404      	movcc	r4, #4
 8005918:	2400      	movcs	r4, #0
 800591a:	f1ab 0102 	sub.w	r1, fp, #2
 800591e:	2d00      	cmp	r5, #0
 8005920:	d165      	bne.n	80059ee <follow_path+0x132>
 8005922:	9b02      	ldr	r3, [sp, #8]
 8005924:	f82b 3015 	strh.w	r3, [fp, r5, lsl #1]
 8005928:	2d00      	cmp	r5, #0
 800592a:	d04b      	beq.n	80059c4 <follow_path+0x108>
 800592c:	2120      	movs	r1, #32
 800592e:	220b      	movs	r2, #11
 8005930:	f106 0024 	add.w	r0, r6, #36	; 0x24
 8005934:	f7fe ffa8 	bl	8004888 <mem_set>
 8005938:	2100      	movs	r1, #0
 800593a:	f83b 2011 	ldrh.w	r2, [fp, r1, lsl #1]
 800593e:	2a20      	cmp	r2, #32
 8005940:	d05d      	beq.n	80059fe <follow_path+0x142>
 8005942:	2a2e      	cmp	r2, #46	; 0x2e
 8005944:	d05b      	beq.n	80059fe <follow_path+0x142>
 8005946:	b109      	cbz	r1, 800594c <follow_path+0x90>
 8005948:	f044 0403 	orr.w	r4, r4, #3
 800594c:	f1ab 0002 	sub.w	r0, fp, #2
 8005950:	f830 2015 	ldrh.w	r2, [r0, r5, lsl #1]
 8005954:	2a2e      	cmp	r2, #46	; 0x2e
 8005956:	d001      	beq.n	800595c <follow_path+0xa0>
 8005958:	3d01      	subs	r5, #1
 800595a:	d1f9      	bne.n	8005950 <follow_path+0x94>
 800595c:	f04f 0800 	mov.w	r8, #0
 8005960:	f04f 0908 	mov.w	r9, #8
 8005964:	4647      	mov	r7, r8
 8005966:	f83b 0011 	ldrh.w	r0, [fp, r1, lsl #1]
 800596a:	1c4a      	adds	r2, r1, #1
 800596c:	2800      	cmp	r0, #0
 800596e:	d057      	beq.n	8005a20 <follow_path+0x164>
 8005970:	2820      	cmp	r0, #32
 8005972:	d003      	beq.n	800597c <follow_path+0xc0>
 8005974:	282e      	cmp	r0, #46	; 0x2e
 8005976:	d144      	bne.n	8005a02 <follow_path+0x146>
 8005978:	42aa      	cmp	r2, r5
 800597a:	d046      	beq.n	8005a0a <follow_path+0x14e>
 800597c:	f044 0403 	orr.w	r4, r4, #3
 8005980:	4611      	mov	r1, r2
 8005982:	e7f0      	b.n	8005966 <follow_path+0xaa>
 8005984:	2380      	movs	r3, #128	; 0x80
 8005986:	4630      	mov	r0, r6
 8005988:	f886 302f 	strb.w	r3, [r6, #47]	; 0x2f
 800598c:	b005      	add	sp, #20
 800598e:	e8bd 4ff0 	ldmia.w	sp!, {r4, r5, r6, r7, r8, r9, sl, fp, lr}
 8005992:	f7ff bb5e 	b.w	8005052 <dir_sdi>
 8005996:	3201      	adds	r2, #1
 8005998:	e7b4      	b.n	8005904 <follow_path+0x48>
 800599a:	2dff      	cmp	r5, #255	; 0xff
 800599c:	d012      	beq.n	80059c4 <follow_path+0x108>
 800599e:	317f      	adds	r1, #127	; 0x7f
 80059a0:	b2c9      	uxtb	r1, r1
 80059a2:	297d      	cmp	r1, #125	; 0x7d
 80059a4:	d810      	bhi.n	80059c8 <follow_path+0x10c>
 80059a6:	f81a 2002 	ldrb.w	r2, [sl, r2]
 80059aa:	f1a2 0140 	sub.w	r1, r2, #64	; 0x40
 80059ae:	eb02 2000 	add.w	r0, r2, r0, lsl #8
 80059b2:	293e      	cmp	r1, #62	; 0x3e
 80059b4:	f104 0402 	add.w	r4, r4, #2
 80059b8:	b280      	uxth	r0, r0
 80059ba:	d906      	bls.n	80059ca <follow_path+0x10e>
 80059bc:	f082 0280 	eor.w	r2, r2, #128	; 0x80
 80059c0:	2a7e      	cmp	r2, #126	; 0x7e
 80059c2:	d902      	bls.n	80059ca <follow_path+0x10e>
 80059c4:	2006      	movs	r0, #6
 80059c6:	e05c      	b.n	8005a82 <follow_path+0x1c6>
 80059c8:	4614      	mov	r4, r2
 80059ca:	2101      	movs	r1, #1
 80059cc:	f000 fd86 	bl	80064dc <ff_convert>
 80059d0:	2800      	cmp	r0, #0
 80059d2:	d0f7      	beq.n	80059c4 <follow_path+0x108>
 80059d4:	287f      	cmp	r0, #127	; 0x7f
 80059d6:	d806      	bhi.n	80059e6 <follow_path+0x12a>
 80059d8:	495d      	ldr	r1, [pc, #372]	; (8005b50 <follow_path+0x294>)
 80059da:	f811 2b01 	ldrb.w	r2, [r1], #1
 80059de:	b112      	cbz	r2, 80059e6 <follow_path+0x12a>
 80059e0:	4290      	cmp	r0, r2
 80059e2:	d1fa      	bne.n	80059da <follow_path+0x11e>
 80059e4:	e7ee      	b.n	80059c4 <follow_path+0x108>
 80059e6:	f82b 0015 	strh.w	r0, [fp, r5, lsl #1]
 80059ea:	3501      	adds	r5, #1
 80059ec:	e77f      	b.n	80058ee <follow_path+0x32>
 80059ee:	f831 2015 	ldrh.w	r2, [r1, r5, lsl #1]
 80059f2:	2a20      	cmp	r2, #32
 80059f4:	d001      	beq.n	80059fa <follow_path+0x13e>
 80059f6:	2a2e      	cmp	r2, #46	; 0x2e
 80059f8:	d193      	bne.n	8005922 <follow_path+0x66>
 80059fa:	3d01      	subs	r5, #1
 80059fc:	e78f      	b.n	800591e <follow_path+0x62>
 80059fe:	3101      	adds	r1, #1
 8005a00:	e79b      	b.n	800593a <follow_path+0x7e>
 8005a02:	45c8      	cmp	r8, r9
 8005a04:	d205      	bcs.n	8005a12 <follow_path+0x156>
 8005a06:	42aa      	cmp	r2, r5
 8005a08:	d14b      	bne.n	8005aa2 <follow_path+0x1e6>
 8005a0a:	f1b9 0f0b 	cmp.w	r9, #11
 8005a0e:	d140      	bne.n	8005a92 <follow_path+0x1d6>
 8005a10:	e002      	b.n	8005a18 <follow_path+0x15c>
 8005a12:	f1b9 0f0b 	cmp.w	r9, #11
 8005a16:	d137      	bne.n	8005a88 <follow_path+0x1cc>
 8005a18:	f044 0403 	orr.w	r4, r4, #3
 8005a1c:	f04f 090b 	mov.w	r9, #11
 8005a20:	f896 3024 	ldrb.w	r3, [r6, #36]	; 0x24
 8005a24:	2be5      	cmp	r3, #229	; 0xe5
 8005a26:	bf04      	itt	eq
 8005a28:	2305      	moveq	r3, #5
 8005a2a:	f886 3024 	strbeq.w	r3, [r6, #36]	; 0x24
 8005a2e:	f1b9 0f08 	cmp.w	r9, #8
 8005a32:	bf04      	itt	eq
 8005a34:	00bf      	lsleq	r7, r7, #2
 8005a36:	b2ff      	uxtbeq	r7, r7
 8005a38:	f007 030c 	and.w	r3, r7, #12
 8005a3c:	2b0c      	cmp	r3, #12
 8005a3e:	d003      	beq.n	8005a48 <follow_path+0x18c>
 8005a40:	f007 0203 	and.w	r2, r7, #3
 8005a44:	2a03      	cmp	r2, #3
 8005a46:	d101      	bne.n	8005a4c <follow_path+0x190>
 8005a48:	f044 0402 	orr.w	r4, r4, #2
 8005a4c:	07a1      	lsls	r1, r4, #30
 8005a4e:	d409      	bmi.n	8005a64 <follow_path+0x1a8>
 8005a50:	f007 0703 	and.w	r7, r7, #3
 8005a54:	2f01      	cmp	r7, #1
 8005a56:	bf08      	it	eq
 8005a58:	f044 0410 	orreq.w	r4, r4, #16
 8005a5c:	2b04      	cmp	r3, #4
 8005a5e:	bf08      	it	eq
 8005a60:	f044 0408 	orreq.w	r4, r4, #8
 8005a64:	f886 402f 	strb.w	r4, [r6, #47]	; 0x2f
 8005a68:	4630      	mov	r0, r6
 8005a6a:	f7ff fcab 	bl	80053c4 <dir_find>
 8005a6e:	f896 302f 	ldrb.w	r3, [r6, #47]	; 0x2f
 8005a72:	2800      	cmp	r0, #0
 8005a74:	d058      	beq.n	8005b28 <follow_path+0x26c>
 8005a76:	2804      	cmp	r0, #4
 8005a78:	d103      	bne.n	8005a82 <follow_path+0x1c6>
 8005a7a:	f013 0f04 	tst.w	r3, #4
 8005a7e:	bf08      	it	eq
 8005a80:	2005      	moveq	r0, #5
 8005a82:	b005      	add	sp, #20
 8005a84:	e8bd 8ff0 	ldmia.w	sp!, {r4, r5, r6, r7, r8, r9, sl, fp, pc}
 8005a88:	42aa      	cmp	r2, r5
 8005a8a:	d002      	beq.n	8005a92 <follow_path+0x1d6>
 8005a8c:	f044 0403 	orr.w	r4, r4, #3
 8005a90:	d8c6      	bhi.n	8005a20 <follow_path+0x164>
 8005a92:	00bf      	lsls	r7, r7, #2
 8005a94:	b2ff      	uxtb	r7, r7
 8005a96:	462a      	mov	r2, r5
 8005a98:	f04f 090b 	mov.w	r9, #11
 8005a9c:	f04f 0808 	mov.w	r8, #8
 8005aa0:	e76e      	b.n	8005980 <follow_path+0xc4>
 8005aa2:	287f      	cmp	r0, #127	; 0x7f
 8005aa4:	d924      	bls.n	8005af0 <follow_path+0x234>
 8005aa6:	9203      	str	r2, [sp, #12]
 8005aa8:	f000 fd3e 	bl	8006528 <ff_wtoupper>
 8005aac:	2100      	movs	r1, #0
 8005aae:	f000 fd15 	bl	80064dc <ff_convert>
 8005ab2:	28ff      	cmp	r0, #255	; 0xff
 8005ab4:	9a03      	ldr	r2, [sp, #12]
 8005ab6:	f044 0102 	orr.w	r1, r4, #2
 8005aba:	d917      	bls.n	8005aec <follow_path+0x230>
 8005abc:	f109 3cff 	add.w	ip, r9, #4294967295
 8005ac0:	45e0      	cmp	r8, ip
 8005ac2:	d303      	bcc.n	8005acc <follow_path+0x210>
 8005ac4:	f044 0403 	orr.w	r4, r4, #3
 8005ac8:	46c8      	mov	r8, r9
 8005aca:	e759      	b.n	8005980 <follow_path+0xc4>
 8005acc:	eb06 0408 	add.w	r4, r6, r8
 8005ad0:	ea4f 2c10 	mov.w	ip, r0, lsr #8
 8005ad4:	f884 c024 	strb.w	ip, [r4, #36]	; 0x24
 8005ad8:	f108 0801 	add.w	r8, r8, #1
 8005adc:	460c      	mov	r4, r1
 8005ade:	eb06 0108 	add.w	r1, r6, r8
 8005ae2:	f108 0801 	add.w	r8, r8, #1
 8005ae6:	f881 0024 	strb.w	r0, [r1, #36]	; 0x24
 8005aea:	e749      	b.n	8005980 <follow_path+0xc4>
 8005aec:	460c      	mov	r4, r1
 8005aee:	b128      	cbz	r0, 8005afc <follow_path+0x240>
 8005af0:	4b18      	ldr	r3, [pc, #96]	; (8005b54 <follow_path+0x298>)
 8005af2:	f813 1b01 	ldrb.w	r1, [r3], #1
 8005af6:	b129      	cbz	r1, 8005b04 <follow_path+0x248>
 8005af8:	4281      	cmp	r1, r0
 8005afa:	d1fa      	bne.n	8005af2 <follow_path+0x236>
 8005afc:	f044 0403 	orr.w	r4, r4, #3
 8005b00:	205f      	movs	r0, #95	; 0x5f
 8005b02:	e7ec      	b.n	8005ade <follow_path+0x222>
 8005b04:	f1a0 0141 	sub.w	r1, r0, #65	; 0x41
 8005b08:	b289      	uxth	r1, r1
 8005b0a:	2919      	cmp	r1, #25
 8005b0c:	d802      	bhi.n	8005b14 <follow_path+0x258>
 8005b0e:	f047 0702 	orr.w	r7, r7, #2
 8005b12:	e7e4      	b.n	8005ade <follow_path+0x222>
 8005b14:	f1a0 0161 	sub.w	r1, r0, #97	; 0x61
 8005b18:	b289      	uxth	r1, r1
 8005b1a:	2919      	cmp	r1, #25
 8005b1c:	bf9e      	ittt	ls
 8005b1e:	3820      	subls	r0, #32
 8005b20:	f047 0701 	orrls.w	r7, r7, #1
 8005b24:	b280      	uxthls	r0, r0
 8005b26:	e7da      	b.n	8005ade <follow_path+0x222>
 8005b28:	075a      	lsls	r2, r3, #29
 8005b2a:	d4aa      	bmi.n	8005a82 <follow_path+0x1c6>
 8005b2c:	79b3      	ldrb	r3, [r6, #6]
 8005b2e:	06db      	lsls	r3, r3, #27
 8005b30:	d50c      	bpl.n	8005b4c <follow_path+0x290>
 8005b32:	9b01      	ldr	r3, [sp, #4]
 8005b34:	f103 0134 	add.w	r1, r3, #52	; 0x34
 8005b38:	6973      	ldr	r3, [r6, #20]
 8005b3a:	f3c3 0308 	ubfx	r3, r3, #0, #9
 8005b3e:	4419      	add	r1, r3
 8005b40:	9b01      	ldr	r3, [sp, #4]
 8005b42:	7818      	ldrb	r0, [r3, #0]
 8005b44:	f7fe ffa6 	bl	8004a94 <ld_clust.isra.0>
 8005b48:	60b0      	str	r0, [r6, #8]
 8005b4a:	e6cb      	b.n	80058e4 <follow_path+0x28>
 8005b4c:	2005      	movs	r0, #5
 8005b4e:	e798      	b.n	8005a82 <follow_path+0x1c6>
 8005b50:	08007990 	.word	0x08007990
 8005b54:	08007999 	.word	0x08007999

08005b58 <f_mount>:
 8005b58:	b530      	push	{r4, r5, lr}
 8005b5a:	b085      	sub	sp, #20
 8005b5c:	e9cd 1000 	strd	r1, r0, [sp]
 8005b60:	a803      	add	r0, sp, #12
 8005b62:	9103      	str	r1, [sp, #12]
 8005b64:	4615      	mov	r5, r2
 8005b66:	f7fe ff5a 	bl	8004a1e <get_ldnumber>
 8005b6a:	1e01      	subs	r1, r0, #0
 8005b6c:	db20      	blt.n	8005bb0 <f_mount+0x58>
 8005b6e:	4c12      	ldr	r4, [pc, #72]	; (8005bb8 <f_mount+0x60>)
 8005b70:	f854 0021 	ldr.w	r0, [r4, r1, lsl #2]
 8005b74:	b160      	cbz	r0, 8005b90 <f_mount+0x38>
 8005b76:	4b11      	ldr	r3, [pc, #68]	; (8005bbc <f_mount+0x64>)
 8005b78:	681a      	ldr	r2, [r3, #0]
 8005b7a:	4290      	cmp	r0, r2
 8005b7c:	bf04      	itt	eq
 8005b7e:	2200      	moveq	r2, #0
 8005b80:	601a      	streq	r2, [r3, #0]
 8005b82:	691a      	ldr	r2, [r3, #16]
 8005b84:	4290      	cmp	r0, r2
 8005b86:	f04f 0200 	mov.w	r2, #0
 8005b8a:	bf08      	it	eq
 8005b8c:	611a      	streq	r2, [r3, #16]
 8005b8e:	7002      	strb	r2, [r0, #0]
 8005b90:	9801      	ldr	r0, [sp, #4]
 8005b92:	b108      	cbz	r0, 8005b98 <f_mount+0x40>
 8005b94:	2300      	movs	r3, #0
 8005b96:	7003      	strb	r3, [r0, #0]
 8005b98:	f844 0021 	str.w	r0, [r4, r1, lsl #2]
 8005b9c:	b130      	cbz	r0, 8005bac <f_mount+0x54>
 8005b9e:	2d01      	cmp	r5, #1
 8005ba0:	d108      	bne.n	8005bb4 <f_mount+0x5c>
 8005ba2:	2200      	movs	r2, #0
 8005ba4:	a901      	add	r1, sp, #4
 8005ba6:	4668      	mov	r0, sp
 8005ba8:	f7ff f812 	bl	8004bd0 <find_volume>
 8005bac:	b005      	add	sp, #20
 8005bae:	bd30      	pop	{r4, r5, pc}
 8005bb0:	200b      	movs	r0, #11
 8005bb2:	e7fb      	b.n	8005bac <f_mount+0x54>
 8005bb4:	2000      	movs	r0, #0
 8005bb6:	e7f9      	b.n	8005bac <f_mount+0x54>
 8005bb8:	2000014c 	.word	0x2000014c
 8005bbc:	20000150 	.word	0x20000150

08005bc0 <f_open>:
 8005bc0:	e92d 41f0 	stmdb	sp!, {r4, r5, r6, r7, r8, lr}
 8005bc4:	f5ad 7d10 	sub.w	sp, sp, #576	; 0x240
 8005bc8:	4617      	mov	r7, r2
 8005bca:	9101      	str	r1, [sp, #4]
 8005bcc:	4604      	mov	r4, r0
 8005bce:	2800      	cmp	r0, #0
 8005bd0:	f000 80f5 	beq.w	8005dbe <f_open+0x1fe>
 8005bd4:	f002 053f 	and.w	r5, r2, #63	; 0x3f
 8005bd8:	462a      	mov	r2, r5
 8005bda:	a902      	add	r1, sp, #8
 8005bdc:	a801      	add	r0, sp, #4
 8005bde:	f7fe fff7 	bl	8004bd0 <find_volume>
 8005be2:	4606      	mov	r6, r0
 8005be4:	2800      	cmp	r0, #0
 8005be6:	d15e      	bne.n	8005ca6 <f_open+0xe6>
 8005be8:	9b02      	ldr	r3, [sp, #8]
 8005bea:	9901      	ldr	r1, [sp, #4]
 8005bec:	9303      	str	r3, [sp, #12]
 8005bee:	aa10      	add	r2, sp, #64	; 0x40
 8005bf0:	60da      	str	r2, [r3, #12]
 8005bf2:	a803      	add	r0, sp, #12
 8005bf4:	f7ff fe62 	bl	80058bc <follow_path>
 8005bf8:	b958      	cbnz	r0, 8005c12 <f_open+0x52>
 8005bfa:	f99d 303b 	ldrsb.w	r3, [sp, #59]	; 0x3b
 8005bfe:	2b00      	cmp	r3, #0
 8005c00:	db59      	blt.n	8005cb6 <f_open+0xf6>
 8005c02:	f015 0f3e 	tst.w	r5, #62	; 0x3e
 8005c06:	bf14      	ite	ne
 8005c08:	2101      	movne	r1, #1
 8005c0a:	2100      	moveq	r1, #0
 8005c0c:	a803      	add	r0, sp, #12
 8005c0e:	f7fe fe41 	bl	8004894 <chk_lock>
 8005c12:	f017 0f1c 	tst.w	r7, #28
 8005c16:	d06e      	beq.n	8005cf6 <f_open+0x136>
 8005c18:	2800      	cmp	r0, #0
 8005c1a:	d04e      	beq.n	8005cba <f_open+0xfa>
 8005c1c:	2804      	cmp	r0, #4
 8005c1e:	d142      	bne.n	8005ca6 <f_open+0xe6>
 8005c20:	4b68      	ldr	r3, [pc, #416]	; (8005dc4 <f_open+0x204>)
 8005c22:	681a      	ldr	r2, [r3, #0]
 8005c24:	b11a      	cbz	r2, 8005c2e <f_open+0x6e>
 8005c26:	691b      	ldr	r3, [r3, #16]
 8005c28:	2b00      	cmp	r3, #0
 8005c2a:	f040 80c2 	bne.w	8005db2 <f_open+0x1f2>
 8005c2e:	a803      	add	r0, sp, #12
 8005c30:	f7ff fc7a 	bl	8005528 <dir_register>
 8005c34:	2800      	cmp	r0, #0
 8005c36:	d136      	bne.n	8005ca6 <f_open+0xe6>
 8005c38:	f045 0508 	orr.w	r5, r5, #8
 8005c3c:	f7fe fca0 	bl	8004580 <get_fattime>
 8005c40:	4601      	mov	r1, r0
 8005c42:	980b      	ldr	r0, [sp, #44]	; 0x2c
 8005c44:	9100      	str	r1, [sp, #0]
 8005c46:	300e      	adds	r0, #14
 8005c48:	f7fe fe16 	bl	8004878 <st_dword>
 8005c4c:	980b      	ldr	r0, [sp, #44]	; 0x2c
 8005c4e:	9900      	ldr	r1, [sp, #0]
 8005c50:	3016      	adds	r0, #22
 8005c52:	f7fe fe11 	bl	8004878 <st_dword>
 8005c56:	9b0b      	ldr	r3, [sp, #44]	; 0x2c
 8005c58:	f8dd 8008 	ldr.w	r8, [sp, #8]
 8005c5c:	2220      	movs	r2, #32
 8005c5e:	72da      	strb	r2, [r3, #11]
 8005c60:	990b      	ldr	r1, [sp, #44]	; 0x2c
 8005c62:	f898 0000 	ldrb.w	r0, [r8]
 8005c66:	f7fe ff15 	bl	8004a94 <ld_clust.isra.0>
 8005c6a:	2200      	movs	r2, #0
 8005c6c:	4607      	mov	r7, r0
 8005c6e:	4640      	mov	r0, r8
 8005c70:	f7fe ff1e 	bl	8004ab0 <st_clust.isra.0>
 8005c74:	9b0b      	ldr	r3, [sp, #44]	; 0x2c
 8005c76:	2200      	movs	r2, #0
 8005c78:	771a      	strb	r2, [r3, #28]
 8005c7a:	775a      	strb	r2, [r3, #29]
 8005c7c:	779a      	strb	r2, [r3, #30]
 8005c7e:	77da      	strb	r2, [r3, #31]
 8005c80:	9b02      	ldr	r3, [sp, #8]
 8005c82:	2101      	movs	r1, #1
 8005c84:	70d9      	strb	r1, [r3, #3]
 8005c86:	b30f      	cbz	r7, 8005ccc <f_open+0x10c>
 8005c88:	4639      	mov	r1, r7
 8005c8a:	a803      	add	r0, sp, #12
 8005c8c:	f8d3 8030 	ldr.w	r8, [r3, #48]	; 0x30
 8005c90:	f7ff fa78 	bl	8005184 <remove_chain>
 8005c94:	b938      	cbnz	r0, 8005ca6 <f_open+0xe6>
 8005c96:	9802      	ldr	r0, [sp, #8]
 8005c98:	4641      	mov	r1, r8
 8005c9a:	f7fe ff41 	bl	8004b20 <move_window>
 8005c9e:	9b02      	ldr	r3, [sp, #8]
 8005ca0:	3f01      	subs	r7, #1
 8005ca2:	611f      	str	r7, [r3, #16]
 8005ca4:	b190      	cbz	r0, 8005ccc <f_open+0x10c>
 8005ca6:	2300      	movs	r3, #0
 8005ca8:	6023      	str	r3, [r4, #0]
 8005caa:	4606      	mov	r6, r0
 8005cac:	4630      	mov	r0, r6
 8005cae:	f50d 7d10 	add.w	sp, sp, #576	; 0x240
 8005cb2:	e8bd 81f0 	ldmia.w	sp!, {r4, r5, r6, r7, r8, pc}
 8005cb6:	2006      	movs	r0, #6
 8005cb8:	e7ab      	b.n	8005c12 <f_open+0x52>
 8005cba:	f89d 3012 	ldrb.w	r3, [sp, #18]
 8005cbe:	f013 0f11 	tst.w	r3, #17
 8005cc2:	d122      	bne.n	8005d0a <f_open+0x14a>
 8005cc4:	077b      	lsls	r3, r7, #29
 8005cc6:	d476      	bmi.n	8005db6 <f_open+0x1f6>
 8005cc8:	073f      	lsls	r7, r7, #28
 8005cca:	d4b7      	bmi.n	8005c3c <f_open+0x7c>
 8005ccc:	9b02      	ldr	r3, [sp, #8]
 8005cce:	0728      	lsls	r0, r5, #28
 8005cd0:	6b1b      	ldr	r3, [r3, #48]	; 0x30
 8005cd2:	6263      	str	r3, [r4, #36]	; 0x24
 8005cd4:	bf48      	it	mi
 8005cd6:	f045 0540 	orrmi.w	r5, r5, #64	; 0x40
 8005cda:	f015 0ffe 	tst.w	r5, #254	; 0xfe
 8005cde:	9b0b      	ldr	r3, [sp, #44]	; 0x2c
 8005ce0:	62a3      	str	r3, [r4, #40]	; 0x28
 8005ce2:	bf14      	ite	ne
 8005ce4:	2101      	movne	r1, #1
 8005ce6:	2100      	moveq	r1, #0
 8005ce8:	a803      	add	r0, sp, #12
 8005cea:	f7fe fe0d 	bl	8004908 <inc_lock>
 8005cee:	6120      	str	r0, [r4, #16]
 8005cf0:	b968      	cbnz	r0, 8005d0e <f_open+0x14e>
 8005cf2:	2002      	movs	r0, #2
 8005cf4:	e7d7      	b.n	8005ca6 <f_open+0xe6>
 8005cf6:	2800      	cmp	r0, #0
 8005cf8:	d1d5      	bne.n	8005ca6 <f_open+0xe6>
 8005cfa:	f89d 3012 	ldrb.w	r3, [sp, #18]
 8005cfe:	06d8      	lsls	r0, r3, #27
 8005d00:	d45b      	bmi.n	8005dba <f_open+0x1fa>
 8005d02:	07ba      	lsls	r2, r7, #30
 8005d04:	d5e2      	bpl.n	8005ccc <f_open+0x10c>
 8005d06:	07df      	lsls	r7, r3, #31
 8005d08:	d5e0      	bpl.n	8005ccc <f_open+0x10c>
 8005d0a:	2007      	movs	r0, #7
 8005d0c:	e7cb      	b.n	8005ca6 <f_open+0xe6>
 8005d0e:	9f02      	ldr	r7, [sp, #8]
 8005d10:	990b      	ldr	r1, [sp, #44]	; 0x2c
 8005d12:	7838      	ldrb	r0, [r7, #0]
 8005d14:	f7fe febe 	bl	8004a94 <ld_clust.isra.0>
 8005d18:	60a0      	str	r0, [r4, #8]
 8005d1a:	f101 001c 	add.w	r0, r1, #28
 8005d1e:	f7fe fda3 	bl	8004868 <ld_dword>
 8005d22:	88fb      	ldrh	r3, [r7, #6]
 8005d24:	6027      	str	r7, [r4, #0]
 8005d26:	2100      	movs	r1, #0
 8005d28:	f104 0730 	add.w	r7, r4, #48	; 0x30
 8005d2c:	60e0      	str	r0, [r4, #12]
 8005d2e:	f44f 7200 	mov.w	r2, #512	; 0x200
 8005d32:	62e1      	str	r1, [r4, #44]	; 0x2c
 8005d34:	80a3      	strh	r3, [r4, #4]
 8005d36:	7525      	strb	r5, [r4, #20]
 8005d38:	7561      	strb	r1, [r4, #21]
 8005d3a:	6221      	str	r1, [r4, #32]
 8005d3c:	61a1      	str	r1, [r4, #24]
 8005d3e:	4638      	mov	r0, r7
 8005d40:	f7fe fda2 	bl	8004888 <mem_set>
 8005d44:	06aa      	lsls	r2, r5, #26
 8005d46:	d5b1      	bpl.n	8005cac <f_open+0xec>
 8005d48:	f8d4 800c 	ldr.w	r8, [r4, #12]
 8005d4c:	f1b8 0f00 	cmp.w	r8, #0
 8005d50:	d0ac      	beq.n	8005cac <f_open+0xec>
 8005d52:	9b02      	ldr	r3, [sp, #8]
 8005d54:	68a1      	ldr	r1, [r4, #8]
 8005d56:	895d      	ldrh	r5, [r3, #10]
 8005d58:	f8c4 8018 	str.w	r8, [r4, #24]
 8005d5c:	026d      	lsls	r5, r5, #9
 8005d5e:	4545      	cmp	r5, r8
 8005d60:	d319      	bcc.n	8005d96 <f_open+0x1d6>
 8005d62:	2000      	movs	r0, #0
 8005d64:	61e1      	str	r1, [r4, #28]
 8005d66:	2800      	cmp	r0, #0
 8005d68:	d19d      	bne.n	8005ca6 <f_open+0xe6>
 8005d6a:	f3c8 0308 	ubfx	r3, r8, #0, #9
 8005d6e:	2b00      	cmp	r3, #0
 8005d70:	d09c      	beq.n	8005cac <f_open+0xec>
 8005d72:	9d02      	ldr	r5, [sp, #8]
 8005d74:	4628      	mov	r0, r5
 8005d76:	f7fe fe27 	bl	80049c8 <clust2sect>
 8005d7a:	2800      	cmp	r0, #0
 8005d7c:	d0b9      	beq.n	8005cf2 <f_open+0x132>
 8005d7e:	eb00 2258 	add.w	r2, r0, r8, lsr #9
 8005d82:	6222      	str	r2, [r4, #32]
 8005d84:	7868      	ldrb	r0, [r5, #1]
 8005d86:	2301      	movs	r3, #1
 8005d88:	4639      	mov	r1, r7
 8005d8a:	f7fe fd43 	bl	8004814 <disk_read>
 8005d8e:	2800      	cmp	r0, #0
 8005d90:	d08c      	beq.n	8005cac <f_open+0xec>
 8005d92:	2001      	movs	r0, #1
 8005d94:	e787      	b.n	8005ca6 <f_open+0xe6>
 8005d96:	6820      	ldr	r0, [r4, #0]
 8005d98:	f7ff f901 	bl	8004f9e <get_fat.isra.0>
 8005d9c:	2801      	cmp	r0, #1
 8005d9e:	4601      	mov	r1, r0
 8005da0:	eba8 0805 	sub.w	r8, r8, r5
 8005da4:	d903      	bls.n	8005dae <f_open+0x1ee>
 8005da6:	1c43      	adds	r3, r0, #1
 8005da8:	d1d9      	bne.n	8005d5e <f_open+0x19e>
 8005daa:	2001      	movs	r0, #1
 8005dac:	e7da      	b.n	8005d64 <f_open+0x1a4>
 8005dae:	2002      	movs	r0, #2
 8005db0:	e7d8      	b.n	8005d64 <f_open+0x1a4>
 8005db2:	2012      	movs	r0, #18
 8005db4:	e777      	b.n	8005ca6 <f_open+0xe6>
 8005db6:	2008      	movs	r0, #8
 8005db8:	e775      	b.n	8005ca6 <f_open+0xe6>
 8005dba:	2004      	movs	r0, #4
 8005dbc:	e773      	b.n	8005ca6 <f_open+0xe6>
 8005dbe:	2609      	movs	r6, #9
 8005dc0:	e774      	b.n	8005cac <f_open+0xec>
 8005dc2:	bf00      	nop
 8005dc4:	20000150 	.word	0x20000150

08005dc8 <f_write>:
 8005dc8:	e92d 4ff0 	stmdb	sp!, {r4, r5, r6, r7, r8, r9, sl, fp, lr}
 8005dcc:	4699      	mov	r9, r3
 8005dce:	b085      	sub	sp, #20
 8005dd0:	2300      	movs	r3, #0
 8005dd2:	4688      	mov	r8, r1
 8005dd4:	f8c9 3000 	str.w	r3, [r9]
 8005dd8:	a903      	add	r1, sp, #12
 8005dda:	4604      	mov	r4, r0
 8005ddc:	4616      	mov	r6, r2
 8005dde:	f7fe fe36 	bl	8004a4e <validate>
 8005de2:	4605      	mov	r5, r0
 8005de4:	bb50      	cbnz	r0, 8005e3c <f_write+0x74>
 8005de6:	7d65      	ldrb	r5, [r4, #21]
 8005de8:	bb45      	cbnz	r5, 8005e3c <f_write+0x74>
 8005dea:	7d23      	ldrb	r3, [r4, #20]
 8005dec:	079a      	lsls	r2, r3, #30
 8005dee:	f140 80b0 	bpl.w	8005f52 <f_write+0x18a>
 8005df2:	69a3      	ldr	r3, [r4, #24]
 8005df4:	42f3      	cmn	r3, r6
 8005df6:	bf28      	it	cs
 8005df8:	43de      	mvncs	r6, r3
 8005dfa:	f104 0a30 	add.w	sl, r4, #48	; 0x30
 8005dfe:	b1ce      	cbz	r6, 8005e34 <f_write+0x6c>
 8005e00:	69a1      	ldr	r1, [r4, #24]
 8005e02:	f3c1 0308 	ubfx	r3, r1, #0, #9
 8005e06:	2b00      	cmp	r3, #0
 8005e08:	f040 8091 	bne.w	8005f2e <f_write+0x166>
 8005e0c:	9b03      	ldr	r3, [sp, #12]
 8005e0e:	895f      	ldrh	r7, [r3, #10]
 8005e10:	3f01      	subs	r7, #1
 8005e12:	ea17 2751 	ands.w	r7, r7, r1, lsr #9
 8005e16:	d124      	bne.n	8005e62 <f_write+0x9a>
 8005e18:	b931      	cbnz	r1, 8005e28 <f_write+0x60>
 8005e1a:	68a0      	ldr	r0, [r4, #8]
 8005e1c:	b9a0      	cbnz	r0, 8005e48 <f_write+0x80>
 8005e1e:	4601      	mov	r1, r0
 8005e20:	4620      	mov	r0, r4
 8005e22:	f7ff f957 	bl	80050d4 <create_chain>
 8005e26:	e004      	b.n	8005e32 <f_write+0x6a>
 8005e28:	6ae3      	ldr	r3, [r4, #44]	; 0x2c
 8005e2a:	b15b      	cbz	r3, 8005e44 <f_write+0x7c>
 8005e2c:	4620      	mov	r0, r4
 8005e2e:	f7fe fdd6 	bl	80049de <clmt_clust>
 8005e32:	b948      	cbnz	r0, 8005e48 <f_write+0x80>
 8005e34:	7d23      	ldrb	r3, [r4, #20]
 8005e36:	f043 0340 	orr.w	r3, r3, #64	; 0x40
 8005e3a:	7523      	strb	r3, [r4, #20]
 8005e3c:	4628      	mov	r0, r5
 8005e3e:	b005      	add	sp, #20
 8005e40:	e8bd 8ff0 	ldmia.w	sp!, {r4, r5, r6, r7, r8, r9, sl, fp, pc}
 8005e44:	69e1      	ldr	r1, [r4, #28]
 8005e46:	e7eb      	b.n	8005e20 <f_write+0x58>
 8005e48:	2801      	cmp	r0, #1
 8005e4a:	d102      	bne.n	8005e52 <f_write+0x8a>
 8005e4c:	2502      	movs	r5, #2
 8005e4e:	7565      	strb	r5, [r4, #21]
 8005e50:	e7f4      	b.n	8005e3c <f_write+0x74>
 8005e52:	1c43      	adds	r3, r0, #1
 8005e54:	d101      	bne.n	8005e5a <f_write+0x92>
 8005e56:	2501      	movs	r5, #1
 8005e58:	e7f9      	b.n	8005e4e <f_write+0x86>
 8005e5a:	68a3      	ldr	r3, [r4, #8]
 8005e5c:	61e0      	str	r0, [r4, #28]
 8005e5e:	b903      	cbnz	r3, 8005e62 <f_write+0x9a>
 8005e60:	60a0      	str	r0, [r4, #8]
 8005e62:	f994 3014 	ldrsb.w	r3, [r4, #20]
 8005e66:	2b00      	cmp	r3, #0
 8005e68:	da0c      	bge.n	8005e84 <f_write+0xbc>
 8005e6a:	9803      	ldr	r0, [sp, #12]
 8005e6c:	6a22      	ldr	r2, [r4, #32]
 8005e6e:	7840      	ldrb	r0, [r0, #1]
 8005e70:	2301      	movs	r3, #1
 8005e72:	4651      	mov	r1, sl
 8005e74:	f7fe fcdc 	bl	8004830 <disk_write>
 8005e78:	2800      	cmp	r0, #0
 8005e7a:	d1ec      	bne.n	8005e56 <f_write+0x8e>
 8005e7c:	7d23      	ldrb	r3, [r4, #20]
 8005e7e:	f003 037f 	and.w	r3, r3, #127	; 0x7f
 8005e82:	7523      	strb	r3, [r4, #20]
 8005e84:	f8dd b00c 	ldr.w	fp, [sp, #12]
 8005e88:	69e1      	ldr	r1, [r4, #28]
 8005e8a:	4658      	mov	r0, fp
 8005e8c:	f7fe fd9c 	bl	80049c8 <clust2sect>
 8005e90:	2800      	cmp	r0, #0
 8005e92:	d0db      	beq.n	8005e4c <f_write+0x84>
 8005e94:	f5b6 7f00 	cmp.w	r6, #512	; 0x200
 8005e98:	eb07 0200 	add.w	r2, r7, r0
 8005e9c:	d335      	bcc.n	8005f0a <f_write+0x142>
 8005e9e:	f8bb 100a 	ldrh.w	r1, [fp, #10]
 8005ea2:	eb07 2056 	add.w	r0, r7, r6, lsr #9
 8005ea6:	4288      	cmp	r0, r1
 8005ea8:	ea4f 2356 	mov.w	r3, r6, lsr #9
 8005eac:	f89b 0001 	ldrb.w	r0, [fp, #1]
 8005eb0:	bf88      	it	hi
 8005eb2:	1bcb      	subhi	r3, r1, r7
 8005eb4:	4641      	mov	r1, r8
 8005eb6:	e9cd 2300 	strd	r2, r3, [sp]
 8005eba:	f7fe fcb9 	bl	8004830 <disk_write>
 8005ebe:	2800      	cmp	r0, #0
 8005ec0:	d1c9      	bne.n	8005e56 <f_write+0x8e>
 8005ec2:	6a21      	ldr	r1, [r4, #32]
 8005ec4:	9a00      	ldr	r2, [sp, #0]
 8005ec6:	9b01      	ldr	r3, [sp, #4]
 8005ec8:	1a89      	subs	r1, r1, r2
 8005eca:	4299      	cmp	r1, r3
 8005ecc:	d20c      	bcs.n	8005ee8 <f_write+0x120>
 8005ece:	f44f 7200 	mov.w	r2, #512	; 0x200
 8005ed2:	eb08 2141 	add.w	r1, r8, r1, lsl #9
 8005ed6:	4650      	mov	r0, sl
 8005ed8:	9300      	str	r3, [sp, #0]
 8005eda:	f7fe fdd2 	bl	8004a82 <mem_cpy.part.0>
 8005ede:	7d22      	ldrb	r2, [r4, #20]
 8005ee0:	9b00      	ldr	r3, [sp, #0]
 8005ee2:	f002 027f 	and.w	r2, r2, #127	; 0x7f
 8005ee6:	7522      	strb	r2, [r4, #20]
 8005ee8:	025f      	lsls	r7, r3, #9
 8005eea:	69a3      	ldr	r3, [r4, #24]
 8005eec:	68e2      	ldr	r2, [r4, #12]
 8005eee:	443b      	add	r3, r7
 8005ef0:	61a3      	str	r3, [r4, #24]
 8005ef2:	429a      	cmp	r2, r3
 8005ef4:	bf2c      	ite	cs
 8005ef6:	60e2      	strcs	r2, [r4, #12]
 8005ef8:	60e3      	strcc	r3, [r4, #12]
 8005efa:	f8d9 3000 	ldr.w	r3, [r9]
 8005efe:	443b      	add	r3, r7
 8005f00:	44b8      	add	r8, r7
 8005f02:	f8c9 3000 	str.w	r3, [r9]
 8005f06:	1bf6      	subs	r6, r6, r7
 8005f08:	e779      	b.n	8005dfe <f_write+0x36>
 8005f0a:	6a23      	ldr	r3, [r4, #32]
 8005f0c:	4293      	cmp	r3, r2
 8005f0e:	d00d      	beq.n	8005f2c <f_write+0x164>
 8005f10:	68e1      	ldr	r1, [r4, #12]
 8005f12:	69a3      	ldr	r3, [r4, #24]
 8005f14:	4299      	cmp	r1, r3
 8005f16:	d909      	bls.n	8005f2c <f_write+0x164>
 8005f18:	f89b 0001 	ldrb.w	r0, [fp, #1]
 8005f1c:	9200      	str	r2, [sp, #0]
 8005f1e:	2301      	movs	r3, #1
 8005f20:	4651      	mov	r1, sl
 8005f22:	f7fe fc77 	bl	8004814 <disk_read>
 8005f26:	9a00      	ldr	r2, [sp, #0]
 8005f28:	2800      	cmp	r0, #0
 8005f2a:	d194      	bne.n	8005e56 <f_write+0x8e>
 8005f2c:	6222      	str	r2, [r4, #32]
 8005f2e:	69a0      	ldr	r0, [r4, #24]
 8005f30:	f3c0 0008 	ubfx	r0, r0, #0, #9
 8005f34:	f5c0 7700 	rsb	r7, r0, #512	; 0x200
 8005f38:	42b7      	cmp	r7, r6
 8005f3a:	bf28      	it	cs
 8005f3c:	4637      	movcs	r7, r6
 8005f3e:	463a      	mov	r2, r7
 8005f40:	4641      	mov	r1, r8
 8005f42:	4450      	add	r0, sl
 8005f44:	f7fe fd9d 	bl	8004a82 <mem_cpy.part.0>
 8005f48:	7d23      	ldrb	r3, [r4, #20]
 8005f4a:	f063 037f 	orn	r3, r3, #127	; 0x7f
 8005f4e:	7523      	strb	r3, [r4, #20]
 8005f50:	e7cb      	b.n	8005eea <f_write+0x122>
 8005f52:	2507      	movs	r5, #7
 8005f54:	e772      	b.n	8005e3c <f_write+0x74>

08005f56 <f_sync>:
 8005f56:	b5f7      	push	{r0, r1, r2, r4, r5, r6, r7, lr}
 8005f58:	a901      	add	r1, sp, #4
 8005f5a:	4605      	mov	r5, r0
 8005f5c:	f7fe fd77 	bl	8004a4e <validate>
 8005f60:	4604      	mov	r4, r0
 8005f62:	2800      	cmp	r0, #0
 8005f64:	d13b      	bne.n	8005fde <f_sync+0x88>
 8005f66:	7d2b      	ldrb	r3, [r5, #20]
 8005f68:	f013 0440 	ands.w	r4, r3, #64	; 0x40
 8005f6c:	d037      	beq.n	8005fde <f_sync+0x88>
 8005f6e:	061b      	lsls	r3, r3, #24
 8005f70:	d50c      	bpl.n	8005f8c <f_sync+0x36>
 8005f72:	9801      	ldr	r0, [sp, #4]
 8005f74:	6a2a      	ldr	r2, [r5, #32]
 8005f76:	7840      	ldrb	r0, [r0, #1]
 8005f78:	2301      	movs	r3, #1
 8005f7a:	f105 0130 	add.w	r1, r5, #48	; 0x30
 8005f7e:	f7fe fc57 	bl	8004830 <disk_write>
 8005f82:	bb78      	cbnz	r0, 8005fe4 <f_sync+0x8e>
 8005f84:	7d2b      	ldrb	r3, [r5, #20]
 8005f86:	f003 037f 	and.w	r3, r3, #127	; 0x7f
 8005f8a:	752b      	strb	r3, [r5, #20]
 8005f8c:	f7fe faf8 	bl	8004580 <get_fattime>
 8005f90:	6a69      	ldr	r1, [r5, #36]	; 0x24
 8005f92:	4607      	mov	r7, r0
 8005f94:	9801      	ldr	r0, [sp, #4]
 8005f96:	f7fe fdc3 	bl	8004b20 <move_window>
 8005f9a:	4604      	mov	r4, r0
 8005f9c:	b9f8      	cbnz	r0, 8005fde <f_sync+0x88>
 8005f9e:	6aae      	ldr	r6, [r5, #40]	; 0x28
 8005fa0:	7af3      	ldrb	r3, [r6, #11]
 8005fa2:	f043 0320 	orr.w	r3, r3, #32
 8005fa6:	72f3      	strb	r3, [r6, #11]
 8005fa8:	68aa      	ldr	r2, [r5, #8]
 8005faa:	6828      	ldr	r0, [r5, #0]
 8005fac:	4631      	mov	r1, r6
 8005fae:	f7fe fd7f 	bl	8004ab0 <st_clust.isra.0>
 8005fb2:	68e9      	ldr	r1, [r5, #12]
 8005fb4:	f106 001c 	add.w	r0, r6, #28
 8005fb8:	f7fe fc5e 	bl	8004878 <st_dword>
 8005fbc:	4639      	mov	r1, r7
 8005fbe:	f106 0016 	add.w	r0, r6, #22
 8005fc2:	f7fe fc59 	bl	8004878 <st_dword>
 8005fc6:	9801      	ldr	r0, [sp, #4]
 8005fc8:	74b4      	strb	r4, [r6, #18]
 8005fca:	2301      	movs	r3, #1
 8005fcc:	74f4      	strb	r4, [r6, #19]
 8005fce:	70c3      	strb	r3, [r0, #3]
 8005fd0:	f7ff f910 	bl	80051f4 <sync_fs>
 8005fd4:	7d2b      	ldrb	r3, [r5, #20]
 8005fd6:	f023 0340 	bic.w	r3, r3, #64	; 0x40
 8005fda:	4604      	mov	r4, r0
 8005fdc:	752b      	strb	r3, [r5, #20]
 8005fde:	4620      	mov	r0, r4
 8005fe0:	b003      	add	sp, #12
 8005fe2:	bdf0      	pop	{r4, r5, r6, r7, pc}
 8005fe4:	2401      	movs	r4, #1
 8005fe6:	e7fa      	b.n	8005fde <f_sync+0x88>

08005fe8 <f_close>:
 8005fe8:	b513      	push	{r0, r1, r4, lr}
 8005fea:	4604      	mov	r4, r0
 8005fec:	f7ff ffb3 	bl	8005f56 <f_sync>
 8005ff0:	b948      	cbnz	r0, 8006006 <f_close+0x1e>
 8005ff2:	a901      	add	r1, sp, #4
 8005ff4:	4620      	mov	r0, r4
 8005ff6:	f7fe fd2a 	bl	8004a4e <validate>
 8005ffa:	b920      	cbnz	r0, 8006006 <f_close+0x1e>
 8005ffc:	6920      	ldr	r0, [r4, #16]
 8005ffe:	f7fe fcc5 	bl	800498c <dec_lock>
 8006002:	b900      	cbnz	r0, 8006006 <f_close+0x1e>
 8006004:	6020      	str	r0, [r4, #0]
 8006006:	b002      	add	sp, #8
 8006008:	bd10      	pop	{r4, pc}

0800600a <f_lseek>:
 800600a:	e92d 4ff0 	stmdb	sp!, {r4, r5, r6, r7, r8, r9, sl, fp, lr}
 800600e:	b085      	sub	sp, #20
 8006010:	460d      	mov	r5, r1
 8006012:	a903      	add	r1, sp, #12
 8006014:	4604      	mov	r4, r0
 8006016:	f7fe fd1a 	bl	8004a4e <validate>
 800601a:	4606      	mov	r6, r0
 800601c:	b9e8      	cbnz	r0, 800605a <f_lseek+0x50>
 800601e:	7d66      	ldrb	r6, [r4, #21]
 8006020:	b9de      	cbnz	r6, 800605a <f_lseek+0x50>
 8006022:	6ae3      	ldr	r3, [r4, #44]	; 0x2c
 8006024:	2b00      	cmp	r3, #0
 8006026:	d07b      	beq.n	8006120 <f_lseek+0x116>
 8006028:	1c6a      	adds	r2, r5, #1
 800602a:	d139      	bne.n	80060a0 <f_lseek+0x96>
 800602c:	461d      	mov	r5, r3
 800602e:	f8d4 8008 	ldr.w	r8, [r4, #8]
 8006032:	f855 bb04 	ldr.w	fp, [r5], #4
 8006036:	2702      	movs	r7, #2
 8006038:	f1b8 0f00 	cmp.w	r8, #0
 800603c:	d028      	beq.n	8006090 <f_lseek+0x86>
 800603e:	4640      	mov	r0, r8
 8006040:	f04f 0a00 	mov.w	sl, #0
 8006044:	4601      	mov	r1, r0
 8006046:	4681      	mov	r9, r0
 8006048:	6820      	ldr	r0, [r4, #0]
 800604a:	f7fe ffa8 	bl	8004f9e <get_fat.isra.0>
 800604e:	2801      	cmp	r0, #1
 8006050:	f10a 0a01 	add.w	sl, sl, #1
 8006054:	d807      	bhi.n	8006066 <f_lseek+0x5c>
 8006056:	2602      	movs	r6, #2
 8006058:	7566      	strb	r6, [r4, #21]
 800605a:	4630      	mov	r0, r6
 800605c:	b005      	add	sp, #20
 800605e:	e8bd 8ff0 	ldmia.w	sp!, {r4, r5, r6, r7, r8, r9, sl, fp, pc}
 8006062:	4680      	mov	r8, r0
 8006064:	e7eb      	b.n	800603e <f_lseek+0x34>
 8006066:	1c43      	adds	r3, r0, #1
 8006068:	d101      	bne.n	800606e <f_lseek+0x64>
 800606a:	2601      	movs	r6, #1
 800606c:	e7f4      	b.n	8006058 <f_lseek+0x4e>
 800606e:	f109 0901 	add.w	r9, r9, #1
 8006072:	4581      	cmp	r9, r0
 8006074:	d0e6      	beq.n	8006044 <f_lseek+0x3a>
 8006076:	3702      	adds	r7, #2
 8006078:	45bb      	cmp	fp, r7
 800607a:	bf21      	itttt	cs
 800607c:	462b      	movcs	r3, r5
 800607e:	f843 ab08 	strcs.w	sl, [r3], #8
 8006082:	f8c5 8004 	strcs.w	r8, [r5, #4]
 8006086:	461d      	movcs	r5, r3
 8006088:	9b03      	ldr	r3, [sp, #12]
 800608a:	699b      	ldr	r3, [r3, #24]
 800608c:	4283      	cmp	r3, r0
 800608e:	d8e8      	bhi.n	8006062 <f_lseek+0x58>
 8006090:	6ae3      	ldr	r3, [r4, #44]	; 0x2c
 8006092:	455f      	cmp	r7, fp
 8006094:	601f      	str	r7, [r3, #0]
 8006096:	f200 80c3 	bhi.w	8006220 <f_lseek+0x216>
 800609a:	2300      	movs	r3, #0
 800609c:	602b      	str	r3, [r5, #0]
 800609e:	e7dc      	b.n	800605a <f_lseek+0x50>
 80060a0:	68e7      	ldr	r7, [r4, #12]
 80060a2:	42af      	cmp	r7, r5
 80060a4:	bf28      	it	cs
 80060a6:	462f      	movcs	r7, r5
 80060a8:	61a7      	str	r7, [r4, #24]
 80060aa:	2f00      	cmp	r7, #0
 80060ac:	d0d5      	beq.n	800605a <f_lseek+0x50>
 80060ae:	1e7d      	subs	r5, r7, #1
 80060b0:	4629      	mov	r1, r5
 80060b2:	4620      	mov	r0, r4
 80060b4:	f7fe fc93 	bl	80049de <clmt_clust>
 80060b8:	f8dd 800c 	ldr.w	r8, [sp, #12]
 80060bc:	61e0      	str	r0, [r4, #28]
 80060be:	4601      	mov	r1, r0
 80060c0:	4640      	mov	r0, r8
 80060c2:	f7fe fc81 	bl	80049c8 <clust2sect>
 80060c6:	2800      	cmp	r0, #0
 80060c8:	d0c5      	beq.n	8006056 <f_lseek+0x4c>
 80060ca:	f3c7 0708 	ubfx	r7, r7, #0, #9
 80060ce:	2f00      	cmp	r7, #0
 80060d0:	d0c3      	beq.n	800605a <f_lseek+0x50>
 80060d2:	f8b8 100a 	ldrh.w	r1, [r8, #10]
 80060d6:	6a22      	ldr	r2, [r4, #32]
 80060d8:	3901      	subs	r1, #1
 80060da:	ea01 2155 	and.w	r1, r1, r5, lsr #9
 80060de:	180d      	adds	r5, r1, r0
 80060e0:	42aa      	cmp	r2, r5
 80060e2:	d0ba      	beq.n	800605a <f_lseek+0x50>
 80060e4:	f994 3014 	ldrsb.w	r3, [r4, #20]
 80060e8:	2b00      	cmp	r3, #0
 80060ea:	f104 0130 	add.w	r1, r4, #48	; 0x30
 80060ee:	da0c      	bge.n	800610a <f_lseek+0x100>
 80060f0:	f898 0001 	ldrb.w	r0, [r8, #1]
 80060f4:	9101      	str	r1, [sp, #4]
 80060f6:	2301      	movs	r3, #1
 80060f8:	f7fe fb9a 	bl	8004830 <disk_write>
 80060fc:	2800      	cmp	r0, #0
 80060fe:	d1b4      	bne.n	800606a <f_lseek+0x60>
 8006100:	7d23      	ldrb	r3, [r4, #20]
 8006102:	9901      	ldr	r1, [sp, #4]
 8006104:	f003 037f 	and.w	r3, r3, #127	; 0x7f
 8006108:	7523      	strb	r3, [r4, #20]
 800610a:	9803      	ldr	r0, [sp, #12]
 800610c:	2301      	movs	r3, #1
 800610e:	7840      	ldrb	r0, [r0, #1]
 8006110:	462a      	mov	r2, r5
 8006112:	f7fe fb7f 	bl	8004814 <disk_read>
 8006116:	4606      	mov	r6, r0
 8006118:	2800      	cmp	r0, #0
 800611a:	d1a6      	bne.n	800606a <f_lseek+0x60>
 800611c:	6225      	str	r5, [r4, #32]
 800611e:	e79c      	b.n	800605a <f_lseek+0x50>
 8006120:	68e3      	ldr	r3, [r4, #12]
 8006122:	42ab      	cmp	r3, r5
 8006124:	d204      	bcs.n	8006130 <f_lseek+0x126>
 8006126:	7d22      	ldrb	r2, [r4, #20]
 8006128:	f012 0f02 	tst.w	r2, #2
 800612c:	bf08      	it	eq
 800612e:	461d      	moveq	r5, r3
 8006130:	2200      	movs	r2, #0
 8006132:	69a3      	ldr	r3, [r4, #24]
 8006134:	61a2      	str	r2, [r4, #24]
 8006136:	b9ed      	cbnz	r5, 8006174 <f_lseek+0x16a>
 8006138:	2500      	movs	r5, #0
 800613a:	68e2      	ldr	r2, [r4, #12]
 800613c:	69a3      	ldr	r3, [r4, #24]
 800613e:	4293      	cmp	r3, r2
 8006140:	bf82      	ittt	hi
 8006142:	7d22      	ldrbhi	r2, [r4, #20]
 8006144:	60e3      	strhi	r3, [r4, #12]
 8006146:	f042 0240 	orrhi.w	r2, r2, #64	; 0x40
 800614a:	f3c3 0308 	ubfx	r3, r3, #0, #9
 800614e:	bf88      	it	hi
 8006150:	7522      	strbhi	r2, [r4, #20]
 8006152:	2b00      	cmp	r3, #0
 8006154:	d081      	beq.n	800605a <f_lseek+0x50>
 8006156:	6a22      	ldr	r2, [r4, #32]
 8006158:	42aa      	cmp	r2, r5
 800615a:	f43f af7e 	beq.w	800605a <f_lseek+0x50>
 800615e:	f994 3014 	ldrsb.w	r3, [r4, #20]
 8006162:	2b00      	cmp	r3, #0
 8006164:	f104 0130 	add.w	r1, r4, #48	; 0x30
 8006168:	dacf      	bge.n	800610a <f_lseek+0x100>
 800616a:	9803      	ldr	r0, [sp, #12]
 800616c:	9101      	str	r1, [sp, #4]
 800616e:	7840      	ldrb	r0, [r0, #1]
 8006170:	2301      	movs	r3, #1
 8006172:	e7c1      	b.n	80060f8 <f_lseek+0xee>
 8006174:	9a03      	ldr	r2, [sp, #12]
 8006176:	8957      	ldrh	r7, [r2, #10]
 8006178:	027f      	lsls	r7, r7, #9
 800617a:	b30b      	cbz	r3, 80061c0 <f_lseek+0x1b6>
 800617c:	3b01      	subs	r3, #1
 800617e:	1e6a      	subs	r2, r5, #1
 8006180:	fbb3 f1f7 	udiv	r1, r3, r7
 8006184:	fbb2 f2f7 	udiv	r2, r2, r7
 8006188:	428a      	cmp	r2, r1
 800618a:	d319      	bcc.n	80061c0 <f_lseek+0x1b6>
 800618c:	427a      	negs	r2, r7
 800618e:	4013      	ands	r3, r2
 8006190:	69e1      	ldr	r1, [r4, #28]
 8006192:	61a3      	str	r3, [r4, #24]
 8006194:	1aed      	subs	r5, r5, r3
 8006196:	2900      	cmp	r1, #0
 8006198:	d0ce      	beq.n	8006138 <f_lseek+0x12e>
 800619a:	42bd      	cmp	r5, r7
 800619c:	69a3      	ldr	r3, [r4, #24]
 800619e:	d81e      	bhi.n	80061de <f_lseek+0x1d4>
 80061a0:	69a3      	ldr	r3, [r4, #24]
 80061a2:	442b      	add	r3, r5
 80061a4:	61a3      	str	r3, [r4, #24]
 80061a6:	f3c5 0308 	ubfx	r3, r5, #0, #9
 80061aa:	2b00      	cmp	r3, #0
 80061ac:	d0c4      	beq.n	8006138 <f_lseek+0x12e>
 80061ae:	9803      	ldr	r0, [sp, #12]
 80061b0:	f7fe fc0a 	bl	80049c8 <clust2sect>
 80061b4:	2800      	cmp	r0, #0
 80061b6:	f43f af4e 	beq.w	8006056 <f_lseek+0x4c>
 80061ba:	eb00 2555 	add.w	r5, r0, r5, lsr #9
 80061be:	e7bc      	b.n	800613a <f_lseek+0x130>
 80061c0:	68a1      	ldr	r1, [r4, #8]
 80061c2:	b951      	cbnz	r1, 80061da <f_lseek+0x1d0>
 80061c4:	4620      	mov	r0, r4
 80061c6:	f7fe ff85 	bl	80050d4 <create_chain>
 80061ca:	2801      	cmp	r0, #1
 80061cc:	4601      	mov	r1, r0
 80061ce:	f43f af42 	beq.w	8006056 <f_lseek+0x4c>
 80061d2:	1c48      	adds	r0, r1, #1
 80061d4:	f43f af49 	beq.w	800606a <f_lseek+0x60>
 80061d8:	60a1      	str	r1, [r4, #8]
 80061da:	61e1      	str	r1, [r4, #28]
 80061dc:	e7db      	b.n	8006196 <f_lseek+0x18c>
 80061de:	443b      	add	r3, r7
 80061e0:	61a3      	str	r3, [r4, #24]
 80061e2:	7d23      	ldrb	r3, [r4, #20]
 80061e4:	079a      	lsls	r2, r3, #30
 80061e6:	eba5 0807 	sub.w	r8, r5, r7
 80061ea:	d506      	bpl.n	80061fa <f_lseek+0x1f0>
 80061ec:	4620      	mov	r0, r4
 80061ee:	f7fe ff71 	bl	80050d4 <create_chain>
 80061f2:	4605      	mov	r5, r0
 80061f4:	b928      	cbnz	r0, 8006202 <f_lseek+0x1f8>
 80061f6:	4601      	mov	r1, r0
 80061f8:	e7d2      	b.n	80061a0 <f_lseek+0x196>
 80061fa:	6820      	ldr	r0, [r4, #0]
 80061fc:	f7fe fecf 	bl	8004f9e <get_fat.isra.0>
 8006200:	4605      	mov	r5, r0
 8006202:	1c6b      	adds	r3, r5, #1
 8006204:	f43f af31 	beq.w	800606a <f_lseek+0x60>
 8006208:	2d01      	cmp	r5, #1
 800620a:	f67f af24 	bls.w	8006056 <f_lseek+0x4c>
 800620e:	9b03      	ldr	r3, [sp, #12]
 8006210:	699b      	ldr	r3, [r3, #24]
 8006212:	42ab      	cmp	r3, r5
 8006214:	f67f af1f 	bls.w	8006056 <f_lseek+0x4c>
 8006218:	61e5      	str	r5, [r4, #28]
 800621a:	4629      	mov	r1, r5
 800621c:	4645      	mov	r5, r8
 800621e:	e7bc      	b.n	800619a <f_lseek+0x190>
 8006220:	2611      	movs	r6, #17
 8006222:	e71a      	b.n	800605a <f_lseek+0x50>

08006224 <f_unlink>:
 8006224:	b5f0      	push	{r4, r5, r6, r7, lr}
 8006226:	f5ad 7d1f 	sub.w	sp, sp, #636	; 0x27c
 800622a:	2202      	movs	r2, #2
 800622c:	9001      	str	r0, [sp, #4]
 800622e:	a903      	add	r1, sp, #12
 8006230:	a801      	add	r0, sp, #4
 8006232:	f7fe fccd 	bl	8004bd0 <find_volume>
 8006236:	9b03      	ldr	r3, [sp, #12]
 8006238:	9304      	str	r3, [sp, #16]
 800623a:	4604      	mov	r4, r0
 800623c:	b9b0      	cbnz	r0, 800626c <f_unlink+0x48>
 800623e:	aa1e      	add	r2, sp, #120	; 0x78
 8006240:	9901      	ldr	r1, [sp, #4]
 8006242:	60da      	str	r2, [r3, #12]
 8006244:	a804      	add	r0, sp, #16
 8006246:	f7ff fb39 	bl	80058bc <follow_path>
 800624a:	4604      	mov	r4, r0
 800624c:	b970      	cbnz	r0, 800626c <f_unlink+0x48>
 800624e:	2102      	movs	r1, #2
 8006250:	a804      	add	r0, sp, #16
 8006252:	f7fe fb1f 	bl	8004894 <chk_lock>
 8006256:	4604      	mov	r4, r0
 8006258:	b940      	cbnz	r0, 800626c <f_unlink+0x48>
 800625a:	f99d 303f 	ldrsb.w	r3, [sp, #63]	; 0x3f
 800625e:	2b00      	cmp	r3, #0
 8006260:	db37      	blt.n	80062d2 <f_unlink+0xae>
 8006262:	f89d 7016 	ldrb.w	r7, [sp, #22]
 8006266:	07fa      	lsls	r2, r7, #31
 8006268:	d504      	bpl.n	8006274 <f_unlink+0x50>
 800626a:	2407      	movs	r4, #7
 800626c:	4620      	mov	r0, r4
 800626e:	f50d 7d1f 	add.w	sp, sp, #636	; 0x27c
 8006272:	bdf0      	pop	{r4, r5, r6, r7, pc}
 8006274:	9e03      	ldr	r6, [sp, #12]
 8006276:	990c      	ldr	r1, [sp, #48]	; 0x30
 8006278:	7830      	ldrb	r0, [r6, #0]
 800627a:	f7fe fc0b 	bl	8004a94 <ld_clust.isra.0>
 800627e:	06fb      	lsls	r3, r7, #27
 8006280:	4605      	mov	r5, r0
 8006282:	d40b      	bmi.n	800629c <f_unlink+0x78>
 8006284:	a804      	add	r0, sp, #16
 8006286:	f7ff f875 	bl	8005374 <dir_remove>
 800628a:	4604      	mov	r4, r0
 800628c:	2800      	cmp	r0, #0
 800628e:	d1ed      	bne.n	800626c <f_unlink+0x48>
 8006290:	b9b5      	cbnz	r5, 80062c0 <f_unlink+0x9c>
 8006292:	9803      	ldr	r0, [sp, #12]
 8006294:	f7fe ffae 	bl	80051f4 <sync_fs>
 8006298:	4604      	mov	r4, r0
 800629a:	e7e7      	b.n	800626c <f_unlink+0x48>
 800629c:	9013      	str	r0, [sp, #76]	; 0x4c
 800629e:	4621      	mov	r1, r4
 80062a0:	a811      	add	r0, sp, #68	; 0x44
 80062a2:	9611      	str	r6, [sp, #68]	; 0x44
 80062a4:	f7fe fed5 	bl	8005052 <dir_sdi>
 80062a8:	4604      	mov	r4, r0
 80062aa:	2800      	cmp	r0, #0
 80062ac:	d1de      	bne.n	800626c <f_unlink+0x48>
 80062ae:	a811      	add	r0, sp, #68	; 0x44
 80062b0:	f7ff fa7e 	bl	80057b0 <dir_read.constprop.0>
 80062b4:	4604      	mov	r4, r0
 80062b6:	2800      	cmp	r0, #0
 80062b8:	d0d7      	beq.n	800626a <f_unlink+0x46>
 80062ba:	2804      	cmp	r0, #4
 80062bc:	d1d6      	bne.n	800626c <f_unlink+0x48>
 80062be:	e7e1      	b.n	8006284 <f_unlink+0x60>
 80062c0:	4602      	mov	r2, r0
 80062c2:	4629      	mov	r1, r5
 80062c4:	a804      	add	r0, sp, #16
 80062c6:	f7fe ff5d 	bl	8005184 <remove_chain>
 80062ca:	4604      	mov	r4, r0
 80062cc:	2800      	cmp	r0, #0
 80062ce:	d1cd      	bne.n	800626c <f_unlink+0x48>
 80062d0:	e7df      	b.n	8006292 <f_unlink+0x6e>
 80062d2:	2406      	movs	r4, #6
 80062d4:	e7ca      	b.n	800626c <f_unlink+0x48>

080062d6 <f_mkdir>:
 80062d6:	e92d 4ff0 	stmdb	sp!, {r4, r5, r6, r7, r8, r9, sl, fp, lr}
 80062da:	f5ad 7d11 	sub.w	sp, sp, #580	; 0x244
 80062de:	2202      	movs	r2, #2
 80062e0:	9001      	str	r0, [sp, #4]
 80062e2:	a902      	add	r1, sp, #8
 80062e4:	a801      	add	r0, sp, #4
 80062e6:	f7fe fc73 	bl	8004bd0 <find_volume>
 80062ea:	9b02      	ldr	r3, [sp, #8]
 80062ec:	9303      	str	r3, [sp, #12]
 80062ee:	4604      	mov	r4, r0
 80062f0:	4605      	mov	r5, r0
 80062f2:	2800      	cmp	r0, #0
 80062f4:	f040 809b 	bne.w	800642e <f_mkdir+0x158>
 80062f8:	aa10      	add	r2, sp, #64	; 0x40
 80062fa:	9901      	ldr	r1, [sp, #4]
 80062fc:	60da      	str	r2, [r3, #12]
 80062fe:	a803      	add	r0, sp, #12
 8006300:	f7ff fadc 	bl	80058bc <follow_path>
 8006304:	4604      	mov	r4, r0
 8006306:	2800      	cmp	r0, #0
 8006308:	f000 8096 	beq.w	8006438 <f_mkdir+0x162>
 800630c:	2804      	cmp	r0, #4
 800630e:	f040 808e 	bne.w	800642e <f_mkdir+0x158>
 8006312:	4629      	mov	r1, r5
 8006314:	a803      	add	r0, sp, #12
 8006316:	f7fe fedd 	bl	80050d4 <create_chain>
 800631a:	9a02      	ldr	r2, [sp, #8]
 800631c:	8953      	ldrh	r3, [r2, #10]
 800631e:	025b      	lsls	r3, r3, #9
 8006320:	9306      	str	r3, [sp, #24]
 8006322:	4605      	mov	r5, r0
 8006324:	2800      	cmp	r0, #0
 8006326:	d056      	beq.n	80063d6 <f_mkdir+0x100>
 8006328:	2801      	cmp	r0, #1
 800632a:	d056      	beq.n	80063da <f_mkdir+0x104>
 800632c:	1c43      	adds	r3, r0, #1
 800632e:	d056      	beq.n	80063de <f_mkdir+0x108>
 8006330:	4610      	mov	r0, r2
 8006332:	f7fe fbef 	bl	8004b14 <sync_window>
 8006336:	4604      	mov	r4, r0
 8006338:	f7fe f922 	bl	8004580 <get_fattime>
 800633c:	4681      	mov	r9, r0
 800633e:	2c00      	cmp	r4, #0
 8006340:	d143      	bne.n	80063ca <f_mkdir+0xf4>
 8006342:	9f02      	ldr	r7, [sp, #8]
 8006344:	4629      	mov	r1, r5
 8006346:	4638      	mov	r0, r7
 8006348:	f7fe fb3e 	bl	80049c8 <clust2sect>
 800634c:	f107 0834 	add.w	r8, r7, #52	; 0x34
 8006350:	4621      	mov	r1, r4
 8006352:	f44f 7200 	mov.w	r2, #512	; 0x200
 8006356:	4606      	mov	r6, r0
 8006358:	4640      	mov	r0, r8
 800635a:	f7fe fa95 	bl	8004888 <mem_set>
 800635e:	220b      	movs	r2, #11
 8006360:	2120      	movs	r1, #32
 8006362:	4640      	mov	r0, r8
 8006364:	f7fe fa90 	bl	8004888 <mem_set>
 8006368:	f04f 0a2e 	mov.w	sl, #46	; 0x2e
 800636c:	2310      	movs	r3, #16
 800636e:	f887 303f 	strb.w	r3, [r7, #63]	; 0x3f
 8006372:	4649      	mov	r1, r9
 8006374:	f107 004a 	add.w	r0, r7, #74	; 0x4a
 8006378:	f887 a034 	strb.w	sl, [r7, #52]	; 0x34
 800637c:	f7fe fa7c 	bl	8004878 <st_dword>
 8006380:	f107 0454 	add.w	r4, r7, #84	; 0x54
 8006384:	4641      	mov	r1, r8
 8006386:	9802      	ldr	r0, [sp, #8]
 8006388:	462a      	mov	r2, r5
 800638a:	f7fe fb91 	bl	8004ab0 <st_clust.isra.0>
 800638e:	2220      	movs	r2, #32
 8006390:	4620      	mov	r0, r4
 8006392:	f7fe fb76 	bl	8004a82 <mem_cpy.part.0>
 8006396:	9802      	ldr	r0, [sp, #8]
 8006398:	f887 a055 	strb.w	sl, [r7, #85]	; 0x55
 800639c:	7801      	ldrb	r1, [r0, #0]
 800639e:	9a05      	ldr	r2, [sp, #20]
 80063a0:	2903      	cmp	r1, #3
 80063a2:	d103      	bne.n	80063ac <f_mkdir+0xd6>
 80063a4:	6a81      	ldr	r1, [r0, #40]	; 0x28
 80063a6:	4291      	cmp	r1, r2
 80063a8:	bf08      	it	eq
 80063aa:	2200      	moveq	r2, #0
 80063ac:	4621      	mov	r1, r4
 80063ae:	f7fe fb7f 	bl	8004ab0 <st_clust.isra.0>
 80063b2:	9b02      	ldr	r3, [sp, #8]
 80063b4:	895f      	ldrh	r7, [r3, #10]
 80063b6:	f04f 0a01 	mov.w	sl, #1
 80063ba:	4437      	add	r7, r6
 80063bc:	42be      	cmp	r6, r7
 80063be:	d110      	bne.n	80063e2 <f_mkdir+0x10c>
 80063c0:	a803      	add	r0, sp, #12
 80063c2:	f7ff f8b1 	bl	8005528 <dir_register>
 80063c6:	4604      	mov	r4, r0
 80063c8:	b1f0      	cbz	r0, 8006408 <f_mkdir+0x132>
 80063ca:	2200      	movs	r2, #0
 80063cc:	4629      	mov	r1, r5
 80063ce:	a803      	add	r0, sp, #12
 80063d0:	f7fe fed8 	bl	8005184 <remove_chain>
 80063d4:	e02b      	b.n	800642e <f_mkdir+0x158>
 80063d6:	2407      	movs	r4, #7
 80063d8:	e7ae      	b.n	8006338 <f_mkdir+0x62>
 80063da:	2402      	movs	r4, #2
 80063dc:	e7ac      	b.n	8006338 <f_mkdir+0x62>
 80063de:	2401      	movs	r4, #1
 80063e0:	e7aa      	b.n	8006338 <f_mkdir+0x62>
 80063e2:	9802      	ldr	r0, [sp, #8]
 80063e4:	6306      	str	r6, [r0, #48]	; 0x30
 80063e6:	f880 a003 	strb.w	sl, [r0, #3]
 80063ea:	f7fe fb6d 	bl	8004ac8 <sync_window.part.0>
 80063ee:	f106 0b01 	add.w	fp, r6, #1
 80063f2:	4604      	mov	r4, r0
 80063f4:	2800      	cmp	r0, #0
 80063f6:	d1e8      	bne.n	80063ca <f_mkdir+0xf4>
 80063f8:	4601      	mov	r1, r0
 80063fa:	f44f 7200 	mov.w	r2, #512	; 0x200
 80063fe:	4640      	mov	r0, r8
 8006400:	f7fe fa42 	bl	8004888 <mem_set>
 8006404:	465e      	mov	r6, fp
 8006406:	e7d9      	b.n	80063bc <f_mkdir+0xe6>
 8006408:	9c0b      	ldr	r4, [sp, #44]	; 0x2c
 800640a:	4649      	mov	r1, r9
 800640c:	f104 0016 	add.w	r0, r4, #22
 8006410:	f7fe fa32 	bl	8004878 <st_dword>
 8006414:	4621      	mov	r1, r4
 8006416:	9802      	ldr	r0, [sp, #8]
 8006418:	462a      	mov	r2, r5
 800641a:	f7fe fb49 	bl	8004ab0 <st_clust.isra.0>
 800641e:	9802      	ldr	r0, [sp, #8]
 8006420:	2310      	movs	r3, #16
 8006422:	72e3      	strb	r3, [r4, #11]
 8006424:	2301      	movs	r3, #1
 8006426:	70c3      	strb	r3, [r0, #3]
 8006428:	f7fe fee4 	bl	80051f4 <sync_fs>
 800642c:	4604      	mov	r4, r0
 800642e:	4620      	mov	r0, r4
 8006430:	f50d 7d11 	add.w	sp, sp, #580	; 0x244
 8006434:	e8bd 8ff0 	ldmia.w	sp!, {r4, r5, r6, r7, r8, r9, sl, fp, pc}
 8006438:	2408      	movs	r4, #8
 800643a:	e7f8      	b.n	800642e <f_mkdir+0x158>

0800643c <f_utime>:
 800643c:	b510      	push	{r4, lr}
 800643e:	f5ad 7d10 	sub.w	sp, sp, #576	; 0x240
 8006442:	460c      	mov	r4, r1
 8006444:	9001      	str	r0, [sp, #4]
 8006446:	2202      	movs	r2, #2
 8006448:	a902      	add	r1, sp, #8
 800644a:	a801      	add	r0, sp, #4
 800644c:	f7fe fbc0 	bl	8004bd0 <find_volume>
 8006450:	9b02      	ldr	r3, [sp, #8]
 8006452:	9303      	str	r3, [sp, #12]
 8006454:	b9c0      	cbnz	r0, 8006488 <f_utime+0x4c>
 8006456:	aa10      	add	r2, sp, #64	; 0x40
 8006458:	9901      	ldr	r1, [sp, #4]
 800645a:	60da      	str	r2, [r3, #12]
 800645c:	a803      	add	r0, sp, #12
 800645e:	f7ff fa2d 	bl	80058bc <follow_path>
 8006462:	b988      	cbnz	r0, 8006488 <f_utime+0x4c>
 8006464:	f89d 303b 	ldrb.w	r3, [sp, #59]	; 0x3b
 8006468:	f013 0fa0 	tst.w	r3, #160	; 0xa0
 800646c:	d10f      	bne.n	800648e <f_utime+0x52>
 800646e:	88e3      	ldrh	r3, [r4, #6]
 8006470:	88a1      	ldrh	r1, [r4, #4]
 8006472:	980b      	ldr	r0, [sp, #44]	; 0x2c
 8006474:	ea43 4101 	orr.w	r1, r3, r1, lsl #16
 8006478:	3016      	adds	r0, #22
 800647a:	f7fe f9fd 	bl	8004878 <st_dword>
 800647e:	9802      	ldr	r0, [sp, #8]
 8006480:	2301      	movs	r3, #1
 8006482:	70c3      	strb	r3, [r0, #3]
 8006484:	f7fe feb6 	bl	80051f4 <sync_fs>
 8006488:	f50d 7d10 	add.w	sp, sp, #576	; 0x240
 800648c:	bd10      	pop	{r4, pc}
 800648e:	2006      	movs	r0, #6
 8006490:	e7fa      	b.n	8006488 <f_utime+0x4c>
	...

08006494 <FATFS_LinkDriverEx>:
 8006494:	b530      	push	{r4, r5, lr}
 8006496:	4b0e      	ldr	r3, [pc, #56]	; (80064d0 <FATFS_LinkDriverEx+0x3c>)
 8006498:	7a5c      	ldrb	r4, [r3, #9]
 800649a:	4605      	mov	r5, r0
 800649c:	f004 00ff 	and.w	r0, r4, #255	; 0xff
 80064a0:	b9a4      	cbnz	r4, 80064cc <FATFS_LinkDriverEx+0x38>
 80064a2:	7a5c      	ldrb	r4, [r3, #9]
 80064a4:	5518      	strb	r0, [r3, r4]
 80064a6:	7a5c      	ldrb	r4, [r3, #9]
 80064a8:	eb03 0484 	add.w	r4, r3, r4, lsl #2
 80064ac:	6065      	str	r5, [r4, #4]
 80064ae:	7a5c      	ldrb	r4, [r3, #9]
 80064b0:	441c      	add	r4, r3
 80064b2:	7222      	strb	r2, [r4, #8]
 80064b4:	7a5a      	ldrb	r2, [r3, #9]
 80064b6:	1c54      	adds	r4, r2, #1
 80064b8:	b2e4      	uxtb	r4, r4
 80064ba:	725c      	strb	r4, [r3, #9]
 80064bc:	233a      	movs	r3, #58	; 0x3a
 80064be:	3230      	adds	r2, #48	; 0x30
 80064c0:	704b      	strb	r3, [r1, #1]
 80064c2:	232f      	movs	r3, #47	; 0x2f
 80064c4:	700a      	strb	r2, [r1, #0]
 80064c6:	708b      	strb	r3, [r1, #2]
 80064c8:	70c8      	strb	r0, [r1, #3]
 80064ca:	bd30      	pop	{r4, r5, pc}
 80064cc:	2001      	movs	r0, #1
 80064ce:	e7fc      	b.n	80064ca <FATFS_LinkDriverEx+0x36>
 80064d0:	20000174 	.word	0x20000174

080064d4 <FATFS_LinkDriver>:
 80064d4:	2200      	movs	r2, #0
 80064d6:	f7ff bfdd 	b.w	8006494 <FATFS_LinkDriverEx>
	...

080064dc <ff_convert>:
 80064dc:	287f      	cmp	r0, #127	; 0x7f
 80064de:	b5f0      	push	{r4, r5, r6, r7, lr}
 80064e0:	d919      	bls.n	8006516 <ff_convert+0x3a>
 80064e2:	4a0f      	ldr	r2, [pc, #60]	; (8006520 <ff_convert+0x44>)
 80064e4:	4b0f      	ldr	r3, [pc, #60]	; (8006524 <ff_convert+0x48>)
 80064e6:	f245 5520 	movw	r5, #21792	; 0x5520
 80064ea:	2900      	cmp	r1, #0
 80064ec:	bf14      	ite	ne
 80064ee:	4619      	movne	r1, r3
 80064f0:	4611      	moveq	r1, r2
 80064f2:	2400      	movs	r4, #0
 80064f4:	2210      	movs	r2, #16
 80064f6:	1b2b      	subs	r3, r5, r4
 80064f8:	eb03 73d3 	add.w	r3, r3, r3, lsr #31
 80064fc:	eb04 0363 	add.w	r3, r4, r3, asr #1
 8006500:	009e      	lsls	r6, r3, #2
 8006502:	f831 7023 	ldrh.w	r7, [r1, r3, lsl #2]
 8006506:	4287      	cmp	r7, r0
 8006508:	d006      	beq.n	8006518 <ff_convert+0x3c>
 800650a:	bf34      	ite	cc
 800650c:	461c      	movcc	r4, r3
 800650e:	461d      	movcs	r5, r3
 8006510:	3a01      	subs	r2, #1
 8006512:	d1f0      	bne.n	80064f6 <ff_convert+0x1a>
 8006514:	4610      	mov	r0, r2
 8006516:	bdf0      	pop	{r4, r5, r6, r7, pc}
 8006518:	4431      	add	r1, r6
 800651a:	8848      	ldrh	r0, [r1, #2]
 800651c:	e7fb      	b.n	8006516 <ff_convert+0x3a>
 800651e:	bf00      	nop
 8006520:	0801d0e0 	.word	0x0801d0e0
 8006524:	08007c5c 	.word	0x08007c5c

08006528 <ff_wtoupper>:
 8006528:	b570      	push	{r4, r5, r6, lr}
 800652a:	4b1e      	ldr	r3, [pc, #120]	; (80065a4 <ff_wtoupper+0x7c>)
 800652c:	4a1e      	ldr	r2, [pc, #120]	; (80065a8 <ff_wtoupper+0x80>)
 800652e:	f5b0 5f80 	cmp.w	r0, #4096	; 0x1000
 8006532:	bf28      	it	cs
 8006534:	4613      	movcs	r3, r2
 8006536:	1d19      	adds	r1, r3, #4
 8006538:	f831 3c04 	ldrh.w	r3, [r1, #-4]
 800653c:	460a      	mov	r2, r1
 800653e:	b1ab      	cbz	r3, 800656c <ff_wtoupper+0x44>
 8006540:	4298      	cmp	r0, r3
 8006542:	d313      	bcc.n	800656c <ff_wtoupper+0x44>
 8006544:	f831 4c02 	ldrh.w	r4, [r1, #-2]
 8006548:	0a25      	lsrs	r5, r4, #8
 800654a:	b2e6      	uxtb	r6, r4
 800654c:	fa53 f484 	uxtab	r4, r3, r4
 8006550:	42a0      	cmp	r0, r4
 8006552:	da21      	bge.n	8006598 <ff_wtoupper+0x70>
 8006554:	2d08      	cmp	r5, #8
 8006556:	d809      	bhi.n	800656c <ff_wtoupper+0x44>
 8006558:	e8df f005 	tbb	[pc, r5]
 800655c:	110f0905 	.word	0x110f0905
 8006560:	19171513 	.word	0x19171513
 8006564:	1b          	.byte	0x1b
 8006565:	00          	.byte	0x00
 8006566:	1ac0      	subs	r0, r0, r3
 8006568:	f831 0010 	ldrh.w	r0, [r1, r0, lsl #1]
 800656c:	bd70      	pop	{r4, r5, r6, pc}
 800656e:	1ac3      	subs	r3, r0, r3
 8006570:	f003 0301 	and.w	r3, r3, #1
 8006574:	1ac0      	subs	r0, r0, r3
 8006576:	b280      	uxth	r0, r0
 8006578:	e7f8      	b.n	800656c <ff_wtoupper+0x44>
 800657a:	3810      	subs	r0, #16
 800657c:	e7fb      	b.n	8006576 <ff_wtoupper+0x4e>
 800657e:	3820      	subs	r0, #32
 8006580:	e7f9      	b.n	8006576 <ff_wtoupper+0x4e>
 8006582:	3830      	subs	r0, #48	; 0x30
 8006584:	e7f7      	b.n	8006576 <ff_wtoupper+0x4e>
 8006586:	381a      	subs	r0, #26
 8006588:	e7f5      	b.n	8006576 <ff_wtoupper+0x4e>
 800658a:	3008      	adds	r0, #8
 800658c:	e7f3      	b.n	8006576 <ff_wtoupper+0x4e>
 800658e:	3850      	subs	r0, #80	; 0x50
 8006590:	e7f1      	b.n	8006576 <ff_wtoupper+0x4e>
 8006592:	f5a0 50e3 	sub.w	r0, r0, #7264	; 0x1c60
 8006596:	e7ee      	b.n	8006576 <ff_wtoupper+0x4e>
 8006598:	3104      	adds	r1, #4
 800659a:	2d00      	cmp	r5, #0
 800659c:	d1cc      	bne.n	8006538 <ff_wtoupper+0x10>
 800659e:	eb02 0346 	add.w	r3, r2, r6, lsl #1
 80065a2:	e7c8      	b.n	8006536 <ff_wtoupper+0xe>
 80065a4:	080079ae 	.word	0x080079ae
 80065a8:	08007ba0 	.word	0x08007ba0

080065ac <__errno>:
 80065ac:	4b01      	ldr	r3, [pc, #4]	; (80065b4 <__errno+0x8>)
 80065ae:	6818      	ldr	r0, [r3, #0]
 80065b0:	4770      	bx	lr
 80065b2:	bf00      	nop
 80065b4:	20000098 	.word	0x20000098

080065b8 <__libc_init_array>:
 80065b8:	b570      	push	{r4, r5, r6, lr}
 80065ba:	4d0d      	ldr	r5, [pc, #52]	; (80065f0 <__libc_init_array+0x38>)
 80065bc:	4c0d      	ldr	r4, [pc, #52]	; (80065f4 <__libc_init_array+0x3c>)
 80065be:	1b64      	subs	r4, r4, r5
 80065c0:	10a4      	asrs	r4, r4, #2
 80065c2:	2600      	movs	r6, #0
 80065c4:	42a6      	cmp	r6, r4
 80065c6:	d109      	bne.n	80065dc <__libc_init_array+0x24>
 80065c8:	4d0b      	ldr	r5, [pc, #44]	; (80065f8 <__libc_init_array+0x40>)
 80065ca:	4c0c      	ldr	r4, [pc, #48]	; (80065fc <__libc_init_array+0x44>)
 80065cc:	f001 f958 	bl	8007880 <_init>
 80065d0:	1b64      	subs	r4, r4, r5
 80065d2:	10a4      	asrs	r4, r4, #2
 80065d4:	2600      	movs	r6, #0
 80065d6:	42a6      	cmp	r6, r4
 80065d8:	d105      	bne.n	80065e6 <__libc_init_array+0x2e>
 80065da:	bd70      	pop	{r4, r5, r6, pc}
 80065dc:	f855 3b04 	ldr.w	r3, [r5], #4
 80065e0:	4798      	blx	r3
 80065e2:	3601      	adds	r6, #1
 80065e4:	e7ee      	b.n	80065c4 <__libc_init_array+0xc>
 80065e6:	f855 3b04 	ldr.w	r3, [r5], #4
 80065ea:	4798      	blx	r3
 80065ec:	3601      	adds	r6, #1
 80065ee:	e7f2      	b.n	80065d6 <__libc_init_array+0x1e>
 80065f0:	08032604 	.word	0x08032604
 80065f4:	08032604 	.word	0x08032604
 80065f8:	08032604 	.word	0x08032604
 80065fc:	08032608 	.word	0x08032608

08006600 <malloc>:
 8006600:	4b02      	ldr	r3, [pc, #8]	; (800660c <malloc+0xc>)
 8006602:	4601      	mov	r1, r0
 8006604:	6818      	ldr	r0, [r3, #0]
 8006606:	f000 b871 	b.w	80066ec <_malloc_r>
 800660a:	bf00      	nop
 800660c:	20000098 	.word	0x20000098

08006610 <free>:
 8006610:	4b02      	ldr	r3, [pc, #8]	; (800661c <free+0xc>)
 8006612:	4601      	mov	r1, r0
 8006614:	6818      	ldr	r0, [r3, #0]
 8006616:	f000 b819 	b.w	800664c <_free_r>
 800661a:	bf00      	nop
 800661c:	20000098 	.word	0x20000098

08006620 <memcpy>:
 8006620:	440a      	add	r2, r1
 8006622:	4291      	cmp	r1, r2
 8006624:	f100 33ff 	add.w	r3, r0, #4294967295
 8006628:	d100      	bne.n	800662c <memcpy+0xc>
 800662a:	4770      	bx	lr
 800662c:	b510      	push	{r4, lr}
 800662e:	f811 4b01 	ldrb.w	r4, [r1], #1
 8006632:	f803 4f01 	strb.w	r4, [r3, #1]!
 8006636:	4291      	cmp	r1, r2
 8006638:	d1f9      	bne.n	800662e <memcpy+0xe>
 800663a:	bd10      	pop	{r4, pc}

0800663c <memset>:
 800663c:	4402      	add	r2, r0
 800663e:	4603      	mov	r3, r0
 8006640:	4293      	cmp	r3, r2
 8006642:	d100      	bne.n	8006646 <memset+0xa>
 8006644:	4770      	bx	lr
 8006646:	f803 1b01 	strb.w	r1, [r3], #1
 800664a:	e7f9      	b.n	8006640 <memset+0x4>

0800664c <_free_r>:
 800664c:	b537      	push	{r0, r1, r2, r4, r5, lr}
 800664e:	2900      	cmp	r1, #0
 8006650:	d048      	beq.n	80066e4 <_free_r+0x98>
 8006652:	f851 3c04 	ldr.w	r3, [r1, #-4]
 8006656:	9001      	str	r0, [sp, #4]
 8006658:	2b00      	cmp	r3, #0
 800665a:	f1a1 0404 	sub.w	r4, r1, #4
 800665e:	bfb8      	it	lt
 8006660:	18e4      	addlt	r4, r4, r3
 8006662:	f000 f9dd 	bl	8006a20 <__malloc_lock>
 8006666:	4a20      	ldr	r2, [pc, #128]	; (80066e8 <_free_r+0x9c>)
 8006668:	9801      	ldr	r0, [sp, #4]
 800666a:	6813      	ldr	r3, [r2, #0]
 800666c:	4615      	mov	r5, r2
 800666e:	b933      	cbnz	r3, 800667e <_free_r+0x32>
 8006670:	6063      	str	r3, [r4, #4]
 8006672:	6014      	str	r4, [r2, #0]
 8006674:	b003      	add	sp, #12
 8006676:	e8bd 4030 	ldmia.w	sp!, {r4, r5, lr}
 800667a:	f000 b9d7 	b.w	8006a2c <__malloc_unlock>
 800667e:	42a3      	cmp	r3, r4
 8006680:	d90b      	bls.n	800669a <_free_r+0x4e>
 8006682:	6821      	ldr	r1, [r4, #0]
 8006684:	1862      	adds	r2, r4, r1
 8006686:	4293      	cmp	r3, r2
 8006688:	bf04      	itt	eq
 800668a:	681a      	ldreq	r2, [r3, #0]
 800668c:	685b      	ldreq	r3, [r3, #4]
 800668e:	6063      	str	r3, [r4, #4]
 8006690:	bf04      	itt	eq
 8006692:	1852      	addeq	r2, r2, r1
 8006694:	6022      	streq	r2, [r4, #0]
 8006696:	602c      	str	r4, [r5, #0]
 8006698:	e7ec      	b.n	8006674 <_free_r+0x28>
 800669a:	461a      	mov	r2, r3
 800669c:	685b      	ldr	r3, [r3, #4]
 800669e:	b10b      	cbz	r3, 80066a4 <_free_r+0x58>
 80066a0:	42a3      	cmp	r3, r4
 80066a2:	d9fa      	bls.n	800669a <_free_r+0x4e>
 80066a4:	6811      	ldr	r1, [r2, #0]
 80066a6:	1855      	adds	r5, r2, r1
 80066a8:	42a5      	cmp	r5, r4
 80066aa:	d10b      	bne.n	80066c4 <_free_r+0x78>
 80066ac:	6824      	ldr	r4, [r4, #0]
 80066ae:	4421      	add	r1, r4
 80066b0:	1854      	adds	r4, r2, r1
 80066b2:	42a3      	cmp	r3, r4
 80066b4:	6011      	str	r1, [r2, #0]
 80066b6:	d1dd      	bne.n	8006674 <_free_r+0x28>
 80066b8:	681c      	ldr	r4, [r3, #0]
 80066ba:	685b      	ldr	r3, [r3, #4]
 80066bc:	6053      	str	r3, [r2, #4]
 80066be:	4421      	add	r1, r4
 80066c0:	6011      	str	r1, [r2, #0]
 80066c2:	e7d7      	b.n	8006674 <_free_r+0x28>
 80066c4:	d902      	bls.n	80066cc <_free_r+0x80>
 80066c6:	230c      	movs	r3, #12
 80066c8:	6003      	str	r3, [r0, #0]
 80066ca:	e7d3      	b.n	8006674 <_free_r+0x28>
 80066cc:	6825      	ldr	r5, [r4, #0]
 80066ce:	1961      	adds	r1, r4, r5
 80066d0:	428b      	cmp	r3, r1
 80066d2:	bf04      	itt	eq
 80066d4:	6819      	ldreq	r1, [r3, #0]
 80066d6:	685b      	ldreq	r3, [r3, #4]
 80066d8:	6063      	str	r3, [r4, #4]
 80066da:	bf04      	itt	eq
 80066dc:	1949      	addeq	r1, r1, r5
 80066de:	6021      	streq	r1, [r4, #0]
 80066e0:	6054      	str	r4, [r2, #4]
 80066e2:	e7c7      	b.n	8006674 <_free_r+0x28>
 80066e4:	b003      	add	sp, #12
 80066e6:	bd30      	pop	{r4, r5, pc}
 80066e8:	20000180 	.word	0x20000180

080066ec <_malloc_r>:
 80066ec:	b5f8      	push	{r3, r4, r5, r6, r7, lr}
 80066ee:	1ccd      	adds	r5, r1, #3
 80066f0:	f025 0503 	bic.w	r5, r5, #3
 80066f4:	3508      	adds	r5, #8
 80066f6:	2d0c      	cmp	r5, #12
 80066f8:	bf38      	it	cc
 80066fa:	250c      	movcc	r5, #12
 80066fc:	2d00      	cmp	r5, #0
 80066fe:	4606      	mov	r6, r0
 8006700:	db01      	blt.n	8006706 <_malloc_r+0x1a>
 8006702:	42a9      	cmp	r1, r5
 8006704:	d903      	bls.n	800670e <_malloc_r+0x22>
 8006706:	230c      	movs	r3, #12
 8006708:	6033      	str	r3, [r6, #0]
 800670a:	2000      	movs	r0, #0
 800670c:	bdf8      	pop	{r3, r4, r5, r6, r7, pc}
 800670e:	f000 f987 	bl	8006a20 <__malloc_lock>
 8006712:	4921      	ldr	r1, [pc, #132]	; (8006798 <_malloc_r+0xac>)
 8006714:	680a      	ldr	r2, [r1, #0]
 8006716:	4614      	mov	r4, r2
 8006718:	b99c      	cbnz	r4, 8006742 <_malloc_r+0x56>
 800671a:	4f20      	ldr	r7, [pc, #128]	; (800679c <_malloc_r+0xb0>)
 800671c:	683b      	ldr	r3, [r7, #0]
 800671e:	b923      	cbnz	r3, 800672a <_malloc_r+0x3e>
 8006720:	4621      	mov	r1, r4
 8006722:	4630      	mov	r0, r6
 8006724:	f000 f854 	bl	80067d0 <_sbrk_r>
 8006728:	6038      	str	r0, [r7, #0]
 800672a:	4629      	mov	r1, r5
 800672c:	4630      	mov	r0, r6
 800672e:	f000 f84f 	bl	80067d0 <_sbrk_r>
 8006732:	1c43      	adds	r3, r0, #1
 8006734:	d123      	bne.n	800677e <_malloc_r+0x92>
 8006736:	230c      	movs	r3, #12
 8006738:	6033      	str	r3, [r6, #0]
 800673a:	4630      	mov	r0, r6
 800673c:	f000 f976 	bl	8006a2c <__malloc_unlock>
 8006740:	e7e3      	b.n	800670a <_malloc_r+0x1e>
 8006742:	6823      	ldr	r3, [r4, #0]
 8006744:	1b5b      	subs	r3, r3, r5
 8006746:	d417      	bmi.n	8006778 <_malloc_r+0x8c>
 8006748:	2b0b      	cmp	r3, #11
 800674a:	d903      	bls.n	8006754 <_malloc_r+0x68>
 800674c:	6023      	str	r3, [r4, #0]
 800674e:	441c      	add	r4, r3
 8006750:	6025      	str	r5, [r4, #0]
 8006752:	e004      	b.n	800675e <_malloc_r+0x72>
 8006754:	6863      	ldr	r3, [r4, #4]
 8006756:	42a2      	cmp	r2, r4
 8006758:	bf0c      	ite	eq
 800675a:	600b      	streq	r3, [r1, #0]
 800675c:	6053      	strne	r3, [r2, #4]
 800675e:	4630      	mov	r0, r6
 8006760:	f000 f964 	bl	8006a2c <__malloc_unlock>
 8006764:	f104 000b 	add.w	r0, r4, #11
 8006768:	1d23      	adds	r3, r4, #4
 800676a:	f020 0007 	bic.w	r0, r0, #7
 800676e:	1ac2      	subs	r2, r0, r3
 8006770:	d0cc      	beq.n	800670c <_malloc_r+0x20>
 8006772:	1a1b      	subs	r3, r3, r0
 8006774:	50a3      	str	r3, [r4, r2]
 8006776:	e7c9      	b.n	800670c <_malloc_r+0x20>
 8006778:	4622      	mov	r2, r4
 800677a:	6864      	ldr	r4, [r4, #4]
 800677c:	e7cc      	b.n	8006718 <_malloc_r+0x2c>
 800677e:	1cc4      	adds	r4, r0, #3
 8006780:	f024 0403 	bic.w	r4, r4, #3
 8006784:	42a0      	cmp	r0, r4
 8006786:	d0e3      	beq.n	8006750 <_malloc_r+0x64>
 8006788:	1a21      	subs	r1, r4, r0
 800678a:	4630      	mov	r0, r6
 800678c:	f000 f820 	bl	80067d0 <_sbrk_r>
 8006790:	3001      	adds	r0, #1
 8006792:	d1dd      	bne.n	8006750 <_malloc_r+0x64>
 8006794:	e7cf      	b.n	8006736 <_malloc_r+0x4a>
 8006796:	bf00      	nop
 8006798:	20000180 	.word	0x20000180
 800679c:	20000184 	.word	0x20000184

080067a0 <iprintf>:
 80067a0:	b40f      	push	{r0, r1, r2, r3}
 80067a2:	4b0a      	ldr	r3, [pc, #40]	; (80067cc <iprintf+0x2c>)
 80067a4:	b513      	push	{r0, r1, r4, lr}
 80067a6:	681c      	ldr	r4, [r3, #0]
 80067a8:	b124      	cbz	r4, 80067b4 <iprintf+0x14>
 80067aa:	69a3      	ldr	r3, [r4, #24]
 80067ac:	b913      	cbnz	r3, 80067b4 <iprintf+0x14>
 80067ae:	4620      	mov	r0, r4
 80067b0:	f000 f896 	bl	80068e0 <__sinit>
 80067b4:	ab05      	add	r3, sp, #20
 80067b6:	9a04      	ldr	r2, [sp, #16]
 80067b8:	68a1      	ldr	r1, [r4, #8]
 80067ba:	9301      	str	r3, [sp, #4]
 80067bc:	4620      	mov	r0, r4
 80067be:	f000 fac1 	bl	8006d44 <_vfiprintf_r>
 80067c2:	b002      	add	sp, #8
 80067c4:	e8bd 4010 	ldmia.w	sp!, {r4, lr}
 80067c8:	b004      	add	sp, #16
 80067ca:	4770      	bx	lr
 80067cc:	20000098 	.word	0x20000098

080067d0 <_sbrk_r>:
 80067d0:	b538      	push	{r3, r4, r5, lr}
 80067d2:	4d06      	ldr	r5, [pc, #24]	; (80067ec <_sbrk_r+0x1c>)
 80067d4:	2300      	movs	r3, #0
 80067d6:	4604      	mov	r4, r0
 80067d8:	4608      	mov	r0, r1
 80067da:	602b      	str	r3, [r5, #0]
 80067dc:	f7fb f82a 	bl	8001834 <_sbrk>
 80067e0:	1c43      	adds	r3, r0, #1
 80067e2:	d102      	bne.n	80067ea <_sbrk_r+0x1a>
 80067e4:	682b      	ldr	r3, [r5, #0]
 80067e6:	b103      	cbz	r3, 80067ea <_sbrk_r+0x1a>
 80067e8:	6023      	str	r3, [r4, #0]
 80067ea:	bd38      	pop	{r3, r4, r5, pc}
 80067ec:	20016100 	.word	0x20016100

080067f0 <siprintf>:
 80067f0:	b40e      	push	{r1, r2, r3}
 80067f2:	b500      	push	{lr}
 80067f4:	b09c      	sub	sp, #112	; 0x70
 80067f6:	ab1d      	add	r3, sp, #116	; 0x74
 80067f8:	9002      	str	r0, [sp, #8]
 80067fa:	9006      	str	r0, [sp, #24]
 80067fc:	f06f 4100 	mvn.w	r1, #2147483648	; 0x80000000
 8006800:	4809      	ldr	r0, [pc, #36]	; (8006828 <siprintf+0x38>)
 8006802:	9107      	str	r1, [sp, #28]
 8006804:	9104      	str	r1, [sp, #16]
 8006806:	4909      	ldr	r1, [pc, #36]	; (800682c <siprintf+0x3c>)
 8006808:	f853 2b04 	ldr.w	r2, [r3], #4
 800680c:	9105      	str	r1, [sp, #20]
 800680e:	6800      	ldr	r0, [r0, #0]
 8006810:	9301      	str	r3, [sp, #4]
 8006812:	a902      	add	r1, sp, #8
 8006814:	f000 f96c 	bl	8006af0 <_svfiprintf_r>
 8006818:	9b02      	ldr	r3, [sp, #8]
 800681a:	2200      	movs	r2, #0
 800681c:	701a      	strb	r2, [r3, #0]
 800681e:	b01c      	add	sp, #112	; 0x70
 8006820:	f85d eb04 	ldr.w	lr, [sp], #4
 8006824:	b003      	add	sp, #12
 8006826:	4770      	bx	lr
 8006828:	20000098 	.word	0x20000098
 800682c:	ffff0208 	.word	0xffff0208

08006830 <std>:
 8006830:	2300      	movs	r3, #0
 8006832:	b510      	push	{r4, lr}
 8006834:	4604      	mov	r4, r0
 8006836:	e9c0 3300 	strd	r3, r3, [r0]
 800683a:	e9c0 3304 	strd	r3, r3, [r0, #16]
 800683e:	6083      	str	r3, [r0, #8]
 8006840:	8181      	strh	r1, [r0, #12]
 8006842:	6643      	str	r3, [r0, #100]	; 0x64
 8006844:	81c2      	strh	r2, [r0, #14]
 8006846:	6183      	str	r3, [r0, #24]
 8006848:	4619      	mov	r1, r3
 800684a:	2208      	movs	r2, #8
 800684c:	305c      	adds	r0, #92	; 0x5c
 800684e:	f7ff fef5 	bl	800663c <memset>
 8006852:	4b05      	ldr	r3, [pc, #20]	; (8006868 <std+0x38>)
 8006854:	6263      	str	r3, [r4, #36]	; 0x24
 8006856:	4b05      	ldr	r3, [pc, #20]	; (800686c <std+0x3c>)
 8006858:	62a3      	str	r3, [r4, #40]	; 0x28
 800685a:	4b05      	ldr	r3, [pc, #20]	; (8006870 <std+0x40>)
 800685c:	62e3      	str	r3, [r4, #44]	; 0x2c
 800685e:	4b05      	ldr	r3, [pc, #20]	; (8006874 <std+0x44>)
 8006860:	6224      	str	r4, [r4, #32]
 8006862:	6323      	str	r3, [r4, #48]	; 0x30
 8006864:	bd10      	pop	{r4, pc}
 8006866:	bf00      	nop
 8006868:	080072cd 	.word	0x080072cd
 800686c:	080072ef 	.word	0x080072ef
 8006870:	08007327 	.word	0x08007327
 8006874:	0800734b 	.word	0x0800734b

08006878 <_cleanup_r>:
 8006878:	4901      	ldr	r1, [pc, #4]	; (8006880 <_cleanup_r+0x8>)
 800687a:	f000 b8af 	b.w	80069dc <_fwalk_reent>
 800687e:	bf00      	nop
 8006880:	08007625 	.word	0x08007625

08006884 <__sfmoreglue>:
 8006884:	b570      	push	{r4, r5, r6, lr}
 8006886:	1e4a      	subs	r2, r1, #1
 8006888:	2568      	movs	r5, #104	; 0x68
 800688a:	4355      	muls	r5, r2
 800688c:	460e      	mov	r6, r1
 800688e:	f105 0174 	add.w	r1, r5, #116	; 0x74
 8006892:	f7ff ff2b 	bl	80066ec <_malloc_r>
 8006896:	4604      	mov	r4, r0
 8006898:	b140      	cbz	r0, 80068ac <__sfmoreglue+0x28>
 800689a:	2100      	movs	r1, #0
 800689c:	e9c0 1600 	strd	r1, r6, [r0]
 80068a0:	300c      	adds	r0, #12
 80068a2:	60a0      	str	r0, [r4, #8]
 80068a4:	f105 0268 	add.w	r2, r5, #104	; 0x68
 80068a8:	f7ff fec8 	bl	800663c <memset>
 80068ac:	4620      	mov	r0, r4
 80068ae:	bd70      	pop	{r4, r5, r6, pc}

080068b0 <__sfp_lock_acquire>:
 80068b0:	4801      	ldr	r0, [pc, #4]	; (80068b8 <__sfp_lock_acquire+0x8>)
 80068b2:	f000 b8b3 	b.w	8006a1c <__retarget_lock_acquire_recursive>
 80068b6:	bf00      	nop
 80068b8:	200160fc 	.word	0x200160fc

080068bc <__sfp_lock_release>:
 80068bc:	4801      	ldr	r0, [pc, #4]	; (80068c4 <__sfp_lock_release+0x8>)
 80068be:	f000 b8ae 	b.w	8006a1e <__retarget_lock_release_recursive>
 80068c2:	bf00      	nop
 80068c4:	200160fc 	.word	0x200160fc

080068c8 <__sinit_lock_acquire>:
 80068c8:	4801      	ldr	r0, [pc, #4]	; (80068d0 <__sinit_lock_acquire+0x8>)
 80068ca:	f000 b8a7 	b.w	8006a1c <__retarget_lock_acquire_recursive>
 80068ce:	bf00      	nop
 80068d0:	200160f7 	.word	0x200160f7

080068d4 <__sinit_lock_release>:
 80068d4:	4801      	ldr	r0, [pc, #4]	; (80068dc <__sinit_lock_release+0x8>)
 80068d6:	f000 b8a2 	b.w	8006a1e <__retarget_lock_release_recursive>
 80068da:	bf00      	nop
 80068dc:	200160f7 	.word	0x200160f7

080068e0 <__sinit>:
 80068e0:	b510      	push	{r4, lr}
 80068e2:	4604      	mov	r4, r0
 80068e4:	f7ff fff0 	bl	80068c8 <__sinit_lock_acquire>
 80068e8:	69a3      	ldr	r3, [r4, #24]
 80068ea:	b11b      	cbz	r3, 80068f4 <__sinit+0x14>
 80068ec:	e8bd 4010 	ldmia.w	sp!, {r4, lr}
 80068f0:	f7ff bff0 	b.w	80068d4 <__sinit_lock_release>
 80068f4:	e9c4 3312 	strd	r3, r3, [r4, #72]	; 0x48
 80068f8:	6523      	str	r3, [r4, #80]	; 0x50
 80068fa:	4b13      	ldr	r3, [pc, #76]	; (8006948 <__sinit+0x68>)
 80068fc:	4a13      	ldr	r2, [pc, #76]	; (800694c <__sinit+0x6c>)
 80068fe:	681b      	ldr	r3, [r3, #0]
 8006900:	62a2      	str	r2, [r4, #40]	; 0x28
 8006902:	42a3      	cmp	r3, r4
 8006904:	bf04      	itt	eq
 8006906:	2301      	moveq	r3, #1
 8006908:	61a3      	streq	r3, [r4, #24]
 800690a:	4620      	mov	r0, r4
 800690c:	f000 f820 	bl	8006950 <__sfp>
 8006910:	6060      	str	r0, [r4, #4]
 8006912:	4620      	mov	r0, r4
 8006914:	f000 f81c 	bl	8006950 <__sfp>
 8006918:	60a0      	str	r0, [r4, #8]
 800691a:	4620      	mov	r0, r4
 800691c:	f000 f818 	bl	8006950 <__sfp>
 8006920:	2200      	movs	r2, #0
 8006922:	60e0      	str	r0, [r4, #12]
 8006924:	2104      	movs	r1, #4
 8006926:	6860      	ldr	r0, [r4, #4]
 8006928:	f7ff ff82 	bl	8006830 <std>
 800692c:	68a0      	ldr	r0, [r4, #8]
 800692e:	2201      	movs	r2, #1
 8006930:	2109      	movs	r1, #9
 8006932:	f7ff ff7d 	bl	8006830 <std>
 8006936:	68e0      	ldr	r0, [r4, #12]
 8006938:	2202      	movs	r2, #2
 800693a:	2112      	movs	r1, #18
 800693c:	f7ff ff78 	bl	8006830 <std>
 8006940:	2301      	movs	r3, #1
 8006942:	61a3      	str	r3, [r4, #24]
 8006944:	e7d2      	b.n	80068ec <__sinit+0xc>
 8006946:	bf00      	nop
 8006948:	08032564 	.word	0x08032564
 800694c:	08006879 	.word	0x08006879

08006950 <__sfp>:
 8006950:	b5f8      	push	{r3, r4, r5, r6, r7, lr}
 8006952:	4607      	mov	r7, r0
 8006954:	f7ff ffac 	bl	80068b0 <__sfp_lock_acquire>
 8006958:	4b1e      	ldr	r3, [pc, #120]	; (80069d4 <__sfp+0x84>)
 800695a:	681e      	ldr	r6, [r3, #0]
 800695c:	69b3      	ldr	r3, [r6, #24]
 800695e:	b913      	cbnz	r3, 8006966 <__sfp+0x16>
 8006960:	4630      	mov	r0, r6
 8006962:	f7ff ffbd 	bl	80068e0 <__sinit>
 8006966:	3648      	adds	r6, #72	; 0x48
 8006968:	e9d6 3401 	ldrd	r3, r4, [r6, #4]
 800696c:	3b01      	subs	r3, #1
 800696e:	d503      	bpl.n	8006978 <__sfp+0x28>
 8006970:	6833      	ldr	r3, [r6, #0]
 8006972:	b30b      	cbz	r3, 80069b8 <__sfp+0x68>
 8006974:	6836      	ldr	r6, [r6, #0]
 8006976:	e7f7      	b.n	8006968 <__sfp+0x18>
 8006978:	f9b4 500c 	ldrsh.w	r5, [r4, #12]
 800697c:	b9d5      	cbnz	r5, 80069b4 <__sfp+0x64>
 800697e:	4b16      	ldr	r3, [pc, #88]	; (80069d8 <__sfp+0x88>)
 8006980:	60e3      	str	r3, [r4, #12]
 8006982:	f104 0058 	add.w	r0, r4, #88	; 0x58
 8006986:	6665      	str	r5, [r4, #100]	; 0x64
 8006988:	f000 f847 	bl	8006a1a <__retarget_lock_init_recursive>
 800698c:	f7ff ff96 	bl	80068bc <__sfp_lock_release>
 8006990:	e9c4 5501 	strd	r5, r5, [r4, #4]
 8006994:	e9c4 5504 	strd	r5, r5, [r4, #16]
 8006998:	6025      	str	r5, [r4, #0]
 800699a:	61a5      	str	r5, [r4, #24]
 800699c:	2208      	movs	r2, #8
 800699e:	4629      	mov	r1, r5
 80069a0:	f104 005c 	add.w	r0, r4, #92	; 0x5c
 80069a4:	f7ff fe4a 	bl	800663c <memset>
 80069a8:	e9c4 550d 	strd	r5, r5, [r4, #52]	; 0x34
 80069ac:	e9c4 5512 	strd	r5, r5, [r4, #72]	; 0x48
 80069b0:	4620      	mov	r0, r4
 80069b2:	bdf8      	pop	{r3, r4, r5, r6, r7, pc}
 80069b4:	3468      	adds	r4, #104	; 0x68
 80069b6:	e7d9      	b.n	800696c <__sfp+0x1c>
 80069b8:	2104      	movs	r1, #4
 80069ba:	4638      	mov	r0, r7
 80069bc:	f7ff ff62 	bl	8006884 <__sfmoreglue>
 80069c0:	4604      	mov	r4, r0
 80069c2:	6030      	str	r0, [r6, #0]
 80069c4:	2800      	cmp	r0, #0
 80069c6:	d1d5      	bne.n	8006974 <__sfp+0x24>
 80069c8:	f7ff ff78 	bl	80068bc <__sfp_lock_release>
 80069cc:	230c      	movs	r3, #12
 80069ce:	603b      	str	r3, [r7, #0]
 80069d0:	e7ee      	b.n	80069b0 <__sfp+0x60>
 80069d2:	bf00      	nop
 80069d4:	08032564 	.word	0x08032564
 80069d8:	ffff0001 	.word	0xffff0001

080069dc <_fwalk_reent>:
 80069dc:	e92d 43f8 	stmdb	sp!, {r3, r4, r5, r6, r7, r8, r9, lr}
 80069e0:	4606      	mov	r6, r0
 80069e2:	4688      	mov	r8, r1
 80069e4:	f100 0448 	add.w	r4, r0, #72	; 0x48
 80069e8:	2700      	movs	r7, #0
 80069ea:	e9d4 9501 	ldrd	r9, r5, [r4, #4]
 80069ee:	f1b9 0901 	subs.w	r9, r9, #1
 80069f2:	d505      	bpl.n	8006a00 <_fwalk_reent+0x24>
 80069f4:	6824      	ldr	r4, [r4, #0]
 80069f6:	2c00      	cmp	r4, #0
 80069f8:	d1f7      	bne.n	80069ea <_fwalk_reent+0xe>
 80069fa:	4638      	mov	r0, r7
 80069fc:	e8bd 83f8 	ldmia.w	sp!, {r3, r4, r5, r6, r7, r8, r9, pc}
 8006a00:	89ab      	ldrh	r3, [r5, #12]
 8006a02:	2b01      	cmp	r3, #1
 8006a04:	d907      	bls.n	8006a16 <_fwalk_reent+0x3a>
 8006a06:	f9b5 300e 	ldrsh.w	r3, [r5, #14]
 8006a0a:	3301      	adds	r3, #1
 8006a0c:	d003      	beq.n	8006a16 <_fwalk_reent+0x3a>
 8006a0e:	4629      	mov	r1, r5
 8006a10:	4630      	mov	r0, r6
 8006a12:	47c0      	blx	r8
 8006a14:	4307      	orrs	r7, r0
 8006a16:	3568      	adds	r5, #104	; 0x68
 8006a18:	e7e9      	b.n	80069ee <_fwalk_reent+0x12>

08006a1a <__retarget_lock_init_recursive>:
 8006a1a:	4770      	bx	lr

08006a1c <__retarget_lock_acquire_recursive>:
 8006a1c:	4770      	bx	lr

08006a1e <__retarget_lock_release_recursive>:
 8006a1e:	4770      	bx	lr

08006a20 <__malloc_lock>:
 8006a20:	4801      	ldr	r0, [pc, #4]	; (8006a28 <__malloc_lock+0x8>)
 8006a22:	f7ff bffb 	b.w	8006a1c <__retarget_lock_acquire_recursive>
 8006a26:	bf00      	nop
 8006a28:	200160f8 	.word	0x200160f8

08006a2c <__malloc_unlock>:
 8006a2c:	4801      	ldr	r0, [pc, #4]	; (8006a34 <__malloc_unlock+0x8>)
 8006a2e:	f7ff bff6 	b.w	8006a1e <__retarget_lock_release_recursive>
 8006a32:	bf00      	nop
 8006a34:	200160f8 	.word	0x200160f8

08006a38 <__ssputs_r>:
 8006a38:	e92d 47f0 	stmdb	sp!, {r4, r5, r6, r7, r8, r9, sl, lr}
 8006a3c:	688e      	ldr	r6, [r1, #8]
 8006a3e:	429e      	cmp	r6, r3
 8006a40:	4682      	mov	sl, r0
 8006a42:	460c      	mov	r4, r1
 8006a44:	4690      	mov	r8, r2
 8006a46:	461f      	mov	r7, r3
 8006a48:	d838      	bhi.n	8006abc <__ssputs_r+0x84>
 8006a4a:	898a      	ldrh	r2, [r1, #12]
 8006a4c:	f412 6f90 	tst.w	r2, #1152	; 0x480
 8006a50:	d032      	beq.n	8006ab8 <__ssputs_r+0x80>
 8006a52:	6825      	ldr	r5, [r4, #0]
 8006a54:	6909      	ldr	r1, [r1, #16]
 8006a56:	eba5 0901 	sub.w	r9, r5, r1
 8006a5a:	6965      	ldr	r5, [r4, #20]
 8006a5c:	eb05 0545 	add.w	r5, r5, r5, lsl #1
 8006a60:	eb05 75d5 	add.w	r5, r5, r5, lsr #31
 8006a64:	3301      	adds	r3, #1
 8006a66:	444b      	add	r3, r9
 8006a68:	106d      	asrs	r5, r5, #1
 8006a6a:	429d      	cmp	r5, r3
 8006a6c:	bf38      	it	cc
 8006a6e:	461d      	movcc	r5, r3
 8006a70:	0553      	lsls	r3, r2, #21
 8006a72:	d531      	bpl.n	8006ad8 <__ssputs_r+0xa0>
 8006a74:	4629      	mov	r1, r5
 8006a76:	f7ff fe39 	bl	80066ec <_malloc_r>
 8006a7a:	4606      	mov	r6, r0
 8006a7c:	b950      	cbnz	r0, 8006a94 <__ssputs_r+0x5c>
 8006a7e:	230c      	movs	r3, #12
 8006a80:	f8ca 3000 	str.w	r3, [sl]
 8006a84:	89a3      	ldrh	r3, [r4, #12]
 8006a86:	f043 0340 	orr.w	r3, r3, #64	; 0x40
 8006a8a:	81a3      	strh	r3, [r4, #12]
 8006a8c:	f04f 30ff 	mov.w	r0, #4294967295
 8006a90:	e8bd 87f0 	ldmia.w	sp!, {r4, r5, r6, r7, r8, r9, sl, pc}
 8006a94:	6921      	ldr	r1, [r4, #16]
 8006a96:	464a      	mov	r2, r9
 8006a98:	f7ff fdc2 	bl	8006620 <memcpy>
 8006a9c:	89a3      	ldrh	r3, [r4, #12]
 8006a9e:	f423 6390 	bic.w	r3, r3, #1152	; 0x480
 8006aa2:	f043 0380 	orr.w	r3, r3, #128	; 0x80
 8006aa6:	81a3      	strh	r3, [r4, #12]
 8006aa8:	6126      	str	r6, [r4, #16]
 8006aaa:	6165      	str	r5, [r4, #20]
 8006aac:	444e      	add	r6, r9
 8006aae:	eba5 0509 	sub.w	r5, r5, r9
 8006ab2:	6026      	str	r6, [r4, #0]
 8006ab4:	60a5      	str	r5, [r4, #8]
 8006ab6:	463e      	mov	r6, r7
 8006ab8:	42be      	cmp	r6, r7
 8006aba:	d900      	bls.n	8006abe <__ssputs_r+0x86>
 8006abc:	463e      	mov	r6, r7
 8006abe:	4632      	mov	r2, r6
 8006ac0:	6820      	ldr	r0, [r4, #0]
 8006ac2:	4641      	mov	r1, r8
 8006ac4:	f000 fe60 	bl	8007788 <memmove>
 8006ac8:	68a3      	ldr	r3, [r4, #8]
 8006aca:	6822      	ldr	r2, [r4, #0]
 8006acc:	1b9b      	subs	r3, r3, r6
 8006ace:	4432      	add	r2, r6
 8006ad0:	60a3      	str	r3, [r4, #8]
 8006ad2:	6022      	str	r2, [r4, #0]
 8006ad4:	2000      	movs	r0, #0
 8006ad6:	e7db      	b.n	8006a90 <__ssputs_r+0x58>
 8006ad8:	462a      	mov	r2, r5
 8006ada:	f000 fe6f 	bl	80077bc <_realloc_r>
 8006ade:	4606      	mov	r6, r0
 8006ae0:	2800      	cmp	r0, #0
 8006ae2:	d1e1      	bne.n	8006aa8 <__ssputs_r+0x70>
 8006ae4:	6921      	ldr	r1, [r4, #16]
 8006ae6:	4650      	mov	r0, sl
 8006ae8:	f7ff fdb0 	bl	800664c <_free_r>
 8006aec:	e7c7      	b.n	8006a7e <__ssputs_r+0x46>
	...

08006af0 <_svfiprintf_r>:
 8006af0:	e92d 4ff0 	stmdb	sp!, {r4, r5, r6, r7, r8, r9, sl, fp, lr}
 8006af4:	4698      	mov	r8, r3
 8006af6:	898b      	ldrh	r3, [r1, #12]
 8006af8:	061b      	lsls	r3, r3, #24
 8006afa:	b09d      	sub	sp, #116	; 0x74
 8006afc:	4607      	mov	r7, r0
 8006afe:	460d      	mov	r5, r1
 8006b00:	4614      	mov	r4, r2
 8006b02:	d50e      	bpl.n	8006b22 <_svfiprintf_r+0x32>
 8006b04:	690b      	ldr	r3, [r1, #16]
 8006b06:	b963      	cbnz	r3, 8006b22 <_svfiprintf_r+0x32>
 8006b08:	2140      	movs	r1, #64	; 0x40
 8006b0a:	f7ff fdef 	bl	80066ec <_malloc_r>
 8006b0e:	6028      	str	r0, [r5, #0]
 8006b10:	6128      	str	r0, [r5, #16]
 8006b12:	b920      	cbnz	r0, 8006b1e <_svfiprintf_r+0x2e>
 8006b14:	230c      	movs	r3, #12
 8006b16:	603b      	str	r3, [r7, #0]
 8006b18:	f04f 30ff 	mov.w	r0, #4294967295
 8006b1c:	e0d1      	b.n	8006cc2 <_svfiprintf_r+0x1d2>
 8006b1e:	2340      	movs	r3, #64	; 0x40
 8006b20:	616b      	str	r3, [r5, #20]
 8006b22:	2300      	movs	r3, #0
 8006b24:	9309      	str	r3, [sp, #36]	; 0x24
 8006b26:	2320      	movs	r3, #32
 8006b28:	f88d 3029 	strb.w	r3, [sp, #41]	; 0x29
 8006b2c:	f8cd 800c 	str.w	r8, [sp, #12]
 8006b30:	2330      	movs	r3, #48	; 0x30
 8006b32:	f8df 81a8 	ldr.w	r8, [pc, #424]	; 8006cdc <_svfiprintf_r+0x1ec>
 8006b36:	f88d 302a 	strb.w	r3, [sp, #42]	; 0x2a
 8006b3a:	f04f 0901 	mov.w	r9, #1
 8006b3e:	4623      	mov	r3, r4
 8006b40:	469a      	mov	sl, r3
 8006b42:	f813 2b01 	ldrb.w	r2, [r3], #1
 8006b46:	b10a      	cbz	r2, 8006b4c <_svfiprintf_r+0x5c>
 8006b48:	2a25      	cmp	r2, #37	; 0x25
 8006b4a:	d1f9      	bne.n	8006b40 <_svfiprintf_r+0x50>
 8006b4c:	ebba 0b04 	subs.w	fp, sl, r4
 8006b50:	d00b      	beq.n	8006b6a <_svfiprintf_r+0x7a>
 8006b52:	465b      	mov	r3, fp
 8006b54:	4622      	mov	r2, r4
 8006b56:	4629      	mov	r1, r5
 8006b58:	4638      	mov	r0, r7
 8006b5a:	f7ff ff6d 	bl	8006a38 <__ssputs_r>
 8006b5e:	3001      	adds	r0, #1
 8006b60:	f000 80aa 	beq.w	8006cb8 <_svfiprintf_r+0x1c8>
 8006b64:	9a09      	ldr	r2, [sp, #36]	; 0x24
 8006b66:	445a      	add	r2, fp
 8006b68:	9209      	str	r2, [sp, #36]	; 0x24
 8006b6a:	f89a 3000 	ldrb.w	r3, [sl]
 8006b6e:	2b00      	cmp	r3, #0
 8006b70:	f000 80a2 	beq.w	8006cb8 <_svfiprintf_r+0x1c8>
 8006b74:	2300      	movs	r3, #0
 8006b76:	f04f 32ff 	mov.w	r2, #4294967295
 8006b7a:	e9cd 2305 	strd	r2, r3, [sp, #20]
 8006b7e:	f10a 0a01 	add.w	sl, sl, #1
 8006b82:	9304      	str	r3, [sp, #16]
 8006b84:	9307      	str	r3, [sp, #28]
 8006b86:	f88d 3053 	strb.w	r3, [sp, #83]	; 0x53
 8006b8a:	931a      	str	r3, [sp, #104]	; 0x68
 8006b8c:	4654      	mov	r4, sl
 8006b8e:	2205      	movs	r2, #5
 8006b90:	f814 1b01 	ldrb.w	r1, [r4], #1
 8006b94:	4851      	ldr	r0, [pc, #324]	; (8006cdc <_svfiprintf_r+0x1ec>)
 8006b96:	f7f9 fb23 	bl	80001e0 <memchr>
 8006b9a:	9a04      	ldr	r2, [sp, #16]
 8006b9c:	b9d8      	cbnz	r0, 8006bd6 <_svfiprintf_r+0xe6>
 8006b9e:	06d0      	lsls	r0, r2, #27
 8006ba0:	bf44      	itt	mi
 8006ba2:	2320      	movmi	r3, #32
 8006ba4:	f88d 3053 	strbmi.w	r3, [sp, #83]	; 0x53
 8006ba8:	0711      	lsls	r1, r2, #28
 8006baa:	bf44      	itt	mi
 8006bac:	232b      	movmi	r3, #43	; 0x2b
 8006bae:	f88d 3053 	strbmi.w	r3, [sp, #83]	; 0x53
 8006bb2:	f89a 3000 	ldrb.w	r3, [sl]
 8006bb6:	2b2a      	cmp	r3, #42	; 0x2a
 8006bb8:	d015      	beq.n	8006be6 <_svfiprintf_r+0xf6>
 8006bba:	9a07      	ldr	r2, [sp, #28]
 8006bbc:	4654      	mov	r4, sl
 8006bbe:	2000      	movs	r0, #0
 8006bc0:	f04f 0c0a 	mov.w	ip, #10
 8006bc4:	4621      	mov	r1, r4
 8006bc6:	f811 3b01 	ldrb.w	r3, [r1], #1
 8006bca:	3b30      	subs	r3, #48	; 0x30
 8006bcc:	2b09      	cmp	r3, #9
 8006bce:	d94e      	bls.n	8006c6e <_svfiprintf_r+0x17e>
 8006bd0:	b1b0      	cbz	r0, 8006c00 <_svfiprintf_r+0x110>
 8006bd2:	9207      	str	r2, [sp, #28]
 8006bd4:	e014      	b.n	8006c00 <_svfiprintf_r+0x110>
 8006bd6:	eba0 0308 	sub.w	r3, r0, r8
 8006bda:	fa09 f303 	lsl.w	r3, r9, r3
 8006bde:	4313      	orrs	r3, r2
 8006be0:	9304      	str	r3, [sp, #16]
 8006be2:	46a2      	mov	sl, r4
 8006be4:	e7d2      	b.n	8006b8c <_svfiprintf_r+0x9c>
 8006be6:	9b03      	ldr	r3, [sp, #12]
 8006be8:	1d19      	adds	r1, r3, #4
 8006bea:	681b      	ldr	r3, [r3, #0]
 8006bec:	9103      	str	r1, [sp, #12]
 8006bee:	2b00      	cmp	r3, #0
 8006bf0:	bfbb      	ittet	lt
 8006bf2:	425b      	neglt	r3, r3
 8006bf4:	f042 0202 	orrlt.w	r2, r2, #2
 8006bf8:	9307      	strge	r3, [sp, #28]
 8006bfa:	9307      	strlt	r3, [sp, #28]
 8006bfc:	bfb8      	it	lt
 8006bfe:	9204      	strlt	r2, [sp, #16]
 8006c00:	7823      	ldrb	r3, [r4, #0]
 8006c02:	2b2e      	cmp	r3, #46	; 0x2e
 8006c04:	d10c      	bne.n	8006c20 <_svfiprintf_r+0x130>
 8006c06:	7863      	ldrb	r3, [r4, #1]
 8006c08:	2b2a      	cmp	r3, #42	; 0x2a
 8006c0a:	d135      	bne.n	8006c78 <_svfiprintf_r+0x188>
 8006c0c:	9b03      	ldr	r3, [sp, #12]
 8006c0e:	1d1a      	adds	r2, r3, #4
 8006c10:	681b      	ldr	r3, [r3, #0]
 8006c12:	9203      	str	r2, [sp, #12]
 8006c14:	2b00      	cmp	r3, #0
 8006c16:	bfb8      	it	lt
 8006c18:	f04f 33ff 	movlt.w	r3, #4294967295
 8006c1c:	3402      	adds	r4, #2
 8006c1e:	9305      	str	r3, [sp, #20]
 8006c20:	f8df a0c8 	ldr.w	sl, [pc, #200]	; 8006cec <_svfiprintf_r+0x1fc>
 8006c24:	7821      	ldrb	r1, [r4, #0]
 8006c26:	2203      	movs	r2, #3
 8006c28:	4650      	mov	r0, sl
 8006c2a:	f7f9 fad9 	bl	80001e0 <memchr>
 8006c2e:	b140      	cbz	r0, 8006c42 <_svfiprintf_r+0x152>
 8006c30:	2340      	movs	r3, #64	; 0x40
 8006c32:	eba0 000a 	sub.w	r0, r0, sl
 8006c36:	fa03 f000 	lsl.w	r0, r3, r0
 8006c3a:	9b04      	ldr	r3, [sp, #16]
 8006c3c:	4303      	orrs	r3, r0
 8006c3e:	3401      	adds	r4, #1
 8006c40:	9304      	str	r3, [sp, #16]
 8006c42:	f814 1b01 	ldrb.w	r1, [r4], #1
 8006c46:	4826      	ldr	r0, [pc, #152]	; (8006ce0 <_svfiprintf_r+0x1f0>)
 8006c48:	f88d 1028 	strb.w	r1, [sp, #40]	; 0x28
 8006c4c:	2206      	movs	r2, #6
 8006c4e:	f7f9 fac7 	bl	80001e0 <memchr>
 8006c52:	2800      	cmp	r0, #0
 8006c54:	d038      	beq.n	8006cc8 <_svfiprintf_r+0x1d8>
 8006c56:	4b23      	ldr	r3, [pc, #140]	; (8006ce4 <_svfiprintf_r+0x1f4>)
 8006c58:	bb1b      	cbnz	r3, 8006ca2 <_svfiprintf_r+0x1b2>
 8006c5a:	9b03      	ldr	r3, [sp, #12]
 8006c5c:	3307      	adds	r3, #7
 8006c5e:	f023 0307 	bic.w	r3, r3, #7
 8006c62:	3308      	adds	r3, #8
 8006c64:	9303      	str	r3, [sp, #12]
 8006c66:	9b09      	ldr	r3, [sp, #36]	; 0x24
 8006c68:	4433      	add	r3, r6
 8006c6a:	9309      	str	r3, [sp, #36]	; 0x24
 8006c6c:	e767      	b.n	8006b3e <_svfiprintf_r+0x4e>
 8006c6e:	fb0c 3202 	mla	r2, ip, r2, r3
 8006c72:	460c      	mov	r4, r1
 8006c74:	2001      	movs	r0, #1
 8006c76:	e7a5      	b.n	8006bc4 <_svfiprintf_r+0xd4>
 8006c78:	2300      	movs	r3, #0
 8006c7a:	3401      	adds	r4, #1
 8006c7c:	9305      	str	r3, [sp, #20]
 8006c7e:	4619      	mov	r1, r3
 8006c80:	f04f 0c0a 	mov.w	ip, #10
 8006c84:	4620      	mov	r0, r4
 8006c86:	f810 2b01 	ldrb.w	r2, [r0], #1
 8006c8a:	3a30      	subs	r2, #48	; 0x30
 8006c8c:	2a09      	cmp	r2, #9
 8006c8e:	d903      	bls.n	8006c98 <_svfiprintf_r+0x1a8>
 8006c90:	2b00      	cmp	r3, #0
 8006c92:	d0c5      	beq.n	8006c20 <_svfiprintf_r+0x130>
 8006c94:	9105      	str	r1, [sp, #20]
 8006c96:	e7c3      	b.n	8006c20 <_svfiprintf_r+0x130>
 8006c98:	fb0c 2101 	mla	r1, ip, r1, r2
 8006c9c:	4604      	mov	r4, r0
 8006c9e:	2301      	movs	r3, #1
 8006ca0:	e7f0      	b.n	8006c84 <_svfiprintf_r+0x194>
 8006ca2:	ab03      	add	r3, sp, #12
 8006ca4:	9300      	str	r3, [sp, #0]
 8006ca6:	462a      	mov	r2, r5
 8006ca8:	4b0f      	ldr	r3, [pc, #60]	; (8006ce8 <_svfiprintf_r+0x1f8>)
 8006caa:	a904      	add	r1, sp, #16
 8006cac:	4638      	mov	r0, r7
 8006cae:	f3af 8000 	nop.w
 8006cb2:	1c42      	adds	r2, r0, #1
 8006cb4:	4606      	mov	r6, r0
 8006cb6:	d1d6      	bne.n	8006c66 <_svfiprintf_r+0x176>
 8006cb8:	89ab      	ldrh	r3, [r5, #12]
 8006cba:	065b      	lsls	r3, r3, #25
 8006cbc:	f53f af2c 	bmi.w	8006b18 <_svfiprintf_r+0x28>
 8006cc0:	9809      	ldr	r0, [sp, #36]	; 0x24
 8006cc2:	b01d      	add	sp, #116	; 0x74
 8006cc4:	e8bd 8ff0 	ldmia.w	sp!, {r4, r5, r6, r7, r8, r9, sl, fp, pc}
 8006cc8:	ab03      	add	r3, sp, #12
 8006cca:	9300      	str	r3, [sp, #0]
 8006ccc:	462a      	mov	r2, r5
 8006cce:	4b06      	ldr	r3, [pc, #24]	; (8006ce8 <_svfiprintf_r+0x1f8>)
 8006cd0:	a904      	add	r1, sp, #16
 8006cd2:	4638      	mov	r0, r7
 8006cd4:	f000 f9d4 	bl	8007080 <_printf_i>
 8006cd8:	e7eb      	b.n	8006cb2 <_svfiprintf_r+0x1c2>
 8006cda:	bf00      	nop
 8006cdc:	080325c8 	.word	0x080325c8
 8006ce0:	080325d2 	.word	0x080325d2
 8006ce4:	00000000 	.word	0x00000000
 8006ce8:	08006a39 	.word	0x08006a39
 8006cec:	080325ce 	.word	0x080325ce

08006cf0 <__sfputc_r>:
 8006cf0:	6893      	ldr	r3, [r2, #8]
 8006cf2:	3b01      	subs	r3, #1
 8006cf4:	2b00      	cmp	r3, #0
 8006cf6:	b410      	push	{r4}
 8006cf8:	6093      	str	r3, [r2, #8]
 8006cfa:	da08      	bge.n	8006d0e <__sfputc_r+0x1e>
 8006cfc:	6994      	ldr	r4, [r2, #24]
 8006cfe:	42a3      	cmp	r3, r4
 8006d00:	db01      	blt.n	8006d06 <__sfputc_r+0x16>
 8006d02:	290a      	cmp	r1, #10
 8006d04:	d103      	bne.n	8006d0e <__sfputc_r+0x1e>
 8006d06:	f85d 4b04 	ldr.w	r4, [sp], #4
 8006d0a:	f000 bb23 	b.w	8007354 <__swbuf_r>
 8006d0e:	6813      	ldr	r3, [r2, #0]
 8006d10:	1c58      	adds	r0, r3, #1
 8006d12:	6010      	str	r0, [r2, #0]
 8006d14:	7019      	strb	r1, [r3, #0]
 8006d16:	4608      	mov	r0, r1
 8006d18:	f85d 4b04 	ldr.w	r4, [sp], #4
 8006d1c:	4770      	bx	lr

08006d1e <__sfputs_r>:
 8006d1e:	b5f8      	push	{r3, r4, r5, r6, r7, lr}
 8006d20:	4606      	mov	r6, r0
 8006d22:	460f      	mov	r7, r1
 8006d24:	4614      	mov	r4, r2
 8006d26:	18d5      	adds	r5, r2, r3
 8006d28:	42ac      	cmp	r4, r5
 8006d2a:	d101      	bne.n	8006d30 <__sfputs_r+0x12>
 8006d2c:	2000      	movs	r0, #0
 8006d2e:	e007      	b.n	8006d40 <__sfputs_r+0x22>
 8006d30:	f814 1b01 	ldrb.w	r1, [r4], #1
 8006d34:	463a      	mov	r2, r7
 8006d36:	4630      	mov	r0, r6
 8006d38:	f7ff ffda 	bl	8006cf0 <__sfputc_r>
 8006d3c:	1c43      	adds	r3, r0, #1
 8006d3e:	d1f3      	bne.n	8006d28 <__sfputs_r+0xa>
 8006d40:	bdf8      	pop	{r3, r4, r5, r6, r7, pc}
	...

08006d44 <_vfiprintf_r>:
 8006d44:	e92d 4ff0 	stmdb	sp!, {r4, r5, r6, r7, r8, r9, sl, fp, lr}
 8006d48:	460d      	mov	r5, r1
 8006d4a:	b09d      	sub	sp, #116	; 0x74
 8006d4c:	4614      	mov	r4, r2
 8006d4e:	4698      	mov	r8, r3
 8006d50:	4606      	mov	r6, r0
 8006d52:	b118      	cbz	r0, 8006d5c <_vfiprintf_r+0x18>
 8006d54:	6983      	ldr	r3, [r0, #24]
 8006d56:	b90b      	cbnz	r3, 8006d5c <_vfiprintf_r+0x18>
 8006d58:	f7ff fdc2 	bl	80068e0 <__sinit>
 8006d5c:	4b89      	ldr	r3, [pc, #548]	; (8006f84 <_vfiprintf_r+0x240>)
 8006d5e:	429d      	cmp	r5, r3
 8006d60:	d11b      	bne.n	8006d9a <_vfiprintf_r+0x56>
 8006d62:	6875      	ldr	r5, [r6, #4]
 8006d64:	6e6b      	ldr	r3, [r5, #100]	; 0x64
 8006d66:	07d9      	lsls	r1, r3, #31
 8006d68:	d405      	bmi.n	8006d76 <_vfiprintf_r+0x32>
 8006d6a:	89ab      	ldrh	r3, [r5, #12]
 8006d6c:	059a      	lsls	r2, r3, #22
 8006d6e:	d402      	bmi.n	8006d76 <_vfiprintf_r+0x32>
 8006d70:	6da8      	ldr	r0, [r5, #88]	; 0x58
 8006d72:	f7ff fe53 	bl	8006a1c <__retarget_lock_acquire_recursive>
 8006d76:	89ab      	ldrh	r3, [r5, #12]
 8006d78:	071b      	lsls	r3, r3, #28
 8006d7a:	d501      	bpl.n	8006d80 <_vfiprintf_r+0x3c>
 8006d7c:	692b      	ldr	r3, [r5, #16]
 8006d7e:	b9eb      	cbnz	r3, 8006dbc <_vfiprintf_r+0x78>
 8006d80:	4629      	mov	r1, r5
 8006d82:	4630      	mov	r0, r6
 8006d84:	f000 fb4a 	bl	800741c <__swsetup_r>
 8006d88:	b1c0      	cbz	r0, 8006dbc <_vfiprintf_r+0x78>
 8006d8a:	6e6b      	ldr	r3, [r5, #100]	; 0x64
 8006d8c:	07dc      	lsls	r4, r3, #31
 8006d8e:	d50e      	bpl.n	8006dae <_vfiprintf_r+0x6a>
 8006d90:	f04f 30ff 	mov.w	r0, #4294967295
 8006d94:	b01d      	add	sp, #116	; 0x74
 8006d96:	e8bd 8ff0 	ldmia.w	sp!, {r4, r5, r6, r7, r8, r9, sl, fp, pc}
 8006d9a:	4b7b      	ldr	r3, [pc, #492]	; (8006f88 <_vfiprintf_r+0x244>)
 8006d9c:	429d      	cmp	r5, r3
 8006d9e:	d101      	bne.n	8006da4 <_vfiprintf_r+0x60>
 8006da0:	68b5      	ldr	r5, [r6, #8]
 8006da2:	e7df      	b.n	8006d64 <_vfiprintf_r+0x20>
 8006da4:	4b79      	ldr	r3, [pc, #484]	; (8006f8c <_vfiprintf_r+0x248>)
 8006da6:	429d      	cmp	r5, r3
 8006da8:	bf08      	it	eq
 8006daa:	68f5      	ldreq	r5, [r6, #12]
 8006dac:	e7da      	b.n	8006d64 <_vfiprintf_r+0x20>
 8006dae:	89ab      	ldrh	r3, [r5, #12]
 8006db0:	0598      	lsls	r0, r3, #22
 8006db2:	d4ed      	bmi.n	8006d90 <_vfiprintf_r+0x4c>
 8006db4:	6da8      	ldr	r0, [r5, #88]	; 0x58
 8006db6:	f7ff fe32 	bl	8006a1e <__retarget_lock_release_recursive>
 8006dba:	e7e9      	b.n	8006d90 <_vfiprintf_r+0x4c>
 8006dbc:	2300      	movs	r3, #0
 8006dbe:	9309      	str	r3, [sp, #36]	; 0x24
 8006dc0:	2320      	movs	r3, #32
 8006dc2:	f88d 3029 	strb.w	r3, [sp, #41]	; 0x29
 8006dc6:	f8cd 800c 	str.w	r8, [sp, #12]
 8006dca:	2330      	movs	r3, #48	; 0x30
 8006dcc:	f8df 81c0 	ldr.w	r8, [pc, #448]	; 8006f90 <_vfiprintf_r+0x24c>
 8006dd0:	f88d 302a 	strb.w	r3, [sp, #42]	; 0x2a
 8006dd4:	f04f 0901 	mov.w	r9, #1
 8006dd8:	4623      	mov	r3, r4
 8006dda:	469a      	mov	sl, r3
 8006ddc:	f813 2b01 	ldrb.w	r2, [r3], #1
 8006de0:	b10a      	cbz	r2, 8006de6 <_vfiprintf_r+0xa2>
 8006de2:	2a25      	cmp	r2, #37	; 0x25
 8006de4:	d1f9      	bne.n	8006dda <_vfiprintf_r+0x96>
 8006de6:	ebba 0b04 	subs.w	fp, sl, r4
 8006dea:	d00b      	beq.n	8006e04 <_vfiprintf_r+0xc0>
 8006dec:	465b      	mov	r3, fp
 8006dee:	4622      	mov	r2, r4
 8006df0:	4629      	mov	r1, r5
 8006df2:	4630      	mov	r0, r6
 8006df4:	f7ff ff93 	bl	8006d1e <__sfputs_r>
 8006df8:	3001      	adds	r0, #1
 8006dfa:	f000 80aa 	beq.w	8006f52 <_vfiprintf_r+0x20e>
 8006dfe:	9a09      	ldr	r2, [sp, #36]	; 0x24
 8006e00:	445a      	add	r2, fp
 8006e02:	9209      	str	r2, [sp, #36]	; 0x24
 8006e04:	f89a 3000 	ldrb.w	r3, [sl]
 8006e08:	2b00      	cmp	r3, #0
 8006e0a:	f000 80a2 	beq.w	8006f52 <_vfiprintf_r+0x20e>
 8006e0e:	2300      	movs	r3, #0
 8006e10:	f04f 32ff 	mov.w	r2, #4294967295
 8006e14:	e9cd 2305 	strd	r2, r3, [sp, #20]
 8006e18:	f10a 0a01 	add.w	sl, sl, #1
 8006e1c:	9304      	str	r3, [sp, #16]
 8006e1e:	9307      	str	r3, [sp, #28]
 8006e20:	f88d 3053 	strb.w	r3, [sp, #83]	; 0x53
 8006e24:	931a      	str	r3, [sp, #104]	; 0x68
 8006e26:	4654      	mov	r4, sl
 8006e28:	2205      	movs	r2, #5
 8006e2a:	f814 1b01 	ldrb.w	r1, [r4], #1
 8006e2e:	4858      	ldr	r0, [pc, #352]	; (8006f90 <_vfiprintf_r+0x24c>)
 8006e30:	f7f9 f9d6 	bl	80001e0 <memchr>
 8006e34:	9a04      	ldr	r2, [sp, #16]
 8006e36:	b9d8      	cbnz	r0, 8006e70 <_vfiprintf_r+0x12c>
 8006e38:	06d1      	lsls	r1, r2, #27
 8006e3a:	bf44      	itt	mi
 8006e3c:	2320      	movmi	r3, #32
 8006e3e:	f88d 3053 	strbmi.w	r3, [sp, #83]	; 0x53
 8006e42:	0713      	lsls	r3, r2, #28
 8006e44:	bf44      	itt	mi
 8006e46:	232b      	movmi	r3, #43	; 0x2b
 8006e48:	f88d 3053 	strbmi.w	r3, [sp, #83]	; 0x53
 8006e4c:	f89a 3000 	ldrb.w	r3, [sl]
 8006e50:	2b2a      	cmp	r3, #42	; 0x2a
 8006e52:	d015      	beq.n	8006e80 <_vfiprintf_r+0x13c>
 8006e54:	9a07      	ldr	r2, [sp, #28]
 8006e56:	4654      	mov	r4, sl
 8006e58:	2000      	movs	r0, #0
 8006e5a:	f04f 0c0a 	mov.w	ip, #10
 8006e5e:	4621      	mov	r1, r4
 8006e60:	f811 3b01 	ldrb.w	r3, [r1], #1
 8006e64:	3b30      	subs	r3, #48	; 0x30
 8006e66:	2b09      	cmp	r3, #9
 8006e68:	d94e      	bls.n	8006f08 <_vfiprintf_r+0x1c4>
 8006e6a:	b1b0      	cbz	r0, 8006e9a <_vfiprintf_r+0x156>
 8006e6c:	9207      	str	r2, [sp, #28]
 8006e6e:	e014      	b.n	8006e9a <_vfiprintf_r+0x156>
 8006e70:	eba0 0308 	sub.w	r3, r0, r8
 8006e74:	fa09 f303 	lsl.w	r3, r9, r3
 8006e78:	4313      	orrs	r3, r2
 8006e7a:	9304      	str	r3, [sp, #16]
 8006e7c:	46a2      	mov	sl, r4
 8006e7e:	e7d2      	b.n	8006e26 <_vfiprintf_r+0xe2>
 8006e80:	9b03      	ldr	r3, [sp, #12]
 8006e82:	1d19      	adds	r1, r3, #4
 8006e84:	681b      	ldr	r3, [r3, #0]
 8006e86:	9103      	str	r1, [sp, #12]
 8006e88:	2b00      	cmp	r3, #0
 8006e8a:	bfbb      	ittet	lt
 8006e8c:	425b      	neglt	r3, r3
 8006e8e:	f042 0202 	orrlt.w	r2, r2, #2
 8006e92:	9307      	strge	r3, [sp, #28]
 8006e94:	9307      	strlt	r3, [sp, #28]
 8006e96:	bfb8      	it	lt
 8006e98:	9204      	strlt	r2, [sp, #16]
 8006e9a:	7823      	ldrb	r3, [r4, #0]
 8006e9c:	2b2e      	cmp	r3, #46	; 0x2e
 8006e9e:	d10c      	bne.n	8006eba <_vfiprintf_r+0x176>
 8006ea0:	7863      	ldrb	r3, [r4, #1]
 8006ea2:	2b2a      	cmp	r3, #42	; 0x2a
 8006ea4:	d135      	bne.n	8006f12 <_vfiprintf_r+0x1ce>
 8006ea6:	9b03      	ldr	r3, [sp, #12]
 8006ea8:	1d1a      	adds	r2, r3, #4
 8006eaa:	681b      	ldr	r3, [r3, #0]
 8006eac:	9203      	str	r2, [sp, #12]
 8006eae:	2b00      	cmp	r3, #0
 8006eb0:	bfb8      	it	lt
 8006eb2:	f04f 33ff 	movlt.w	r3, #4294967295
 8006eb6:	3402      	adds	r4, #2
 8006eb8:	9305      	str	r3, [sp, #20]
 8006eba:	f8df a0e4 	ldr.w	sl, [pc, #228]	; 8006fa0 <_vfiprintf_r+0x25c>
 8006ebe:	7821      	ldrb	r1, [r4, #0]
 8006ec0:	2203      	movs	r2, #3
 8006ec2:	4650      	mov	r0, sl
 8006ec4:	f7f9 f98c 	bl	80001e0 <memchr>
 8006ec8:	b140      	cbz	r0, 8006edc <_vfiprintf_r+0x198>
 8006eca:	2340      	movs	r3, #64	; 0x40
 8006ecc:	eba0 000a 	sub.w	r0, r0, sl
 8006ed0:	fa03 f000 	lsl.w	r0, r3, r0
 8006ed4:	9b04      	ldr	r3, [sp, #16]
 8006ed6:	4303      	orrs	r3, r0
 8006ed8:	3401      	adds	r4, #1
 8006eda:	9304      	str	r3, [sp, #16]
 8006edc:	f814 1b01 	ldrb.w	r1, [r4], #1
 8006ee0:	482c      	ldr	r0, [pc, #176]	; (8006f94 <_vfiprintf_r+0x250>)
 8006ee2:	f88d 1028 	strb.w	r1, [sp, #40]	; 0x28
 8006ee6:	2206      	movs	r2, #6
 8006ee8:	f7f9 f97a 	bl	80001e0 <memchr>
 8006eec:	2800      	cmp	r0, #0
 8006eee:	d03f      	beq.n	8006f70 <_vfiprintf_r+0x22c>
 8006ef0:	4b29      	ldr	r3, [pc, #164]	; (8006f98 <_vfiprintf_r+0x254>)
 8006ef2:	bb1b      	cbnz	r3, 8006f3c <_vfiprintf_r+0x1f8>
 8006ef4:	9b03      	ldr	r3, [sp, #12]
 8006ef6:	3307      	adds	r3, #7
 8006ef8:	f023 0307 	bic.w	r3, r3, #7
 8006efc:	3308      	adds	r3, #8
 8006efe:	9303      	str	r3, [sp, #12]
 8006f00:	9b09      	ldr	r3, [sp, #36]	; 0x24
 8006f02:	443b      	add	r3, r7
 8006f04:	9309      	str	r3, [sp, #36]	; 0x24
 8006f06:	e767      	b.n	8006dd8 <_vfiprintf_r+0x94>
 8006f08:	fb0c 3202 	mla	r2, ip, r2, r3
 8006f0c:	460c      	mov	r4, r1
 8006f0e:	2001      	movs	r0, #1
 8006f10:	e7a5      	b.n	8006e5e <_vfiprintf_r+0x11a>
 8006f12:	2300      	movs	r3, #0
 8006f14:	3401      	adds	r4, #1
 8006f16:	9305      	str	r3, [sp, #20]
 8006f18:	4619      	mov	r1, r3
 8006f1a:	f04f 0c0a 	mov.w	ip, #10
 8006f1e:	4620      	mov	r0, r4
 8006f20:	f810 2b01 	ldrb.w	r2, [r0], #1
 8006f24:	3a30      	subs	r2, #48	; 0x30
 8006f26:	2a09      	cmp	r2, #9
 8006f28:	d903      	bls.n	8006f32 <_vfiprintf_r+0x1ee>
 8006f2a:	2b00      	cmp	r3, #0
 8006f2c:	d0c5      	beq.n	8006eba <_vfiprintf_r+0x176>
 8006f2e:	9105      	str	r1, [sp, #20]
 8006f30:	e7c3      	b.n	8006eba <_vfiprintf_r+0x176>
 8006f32:	fb0c 2101 	mla	r1, ip, r1, r2
 8006f36:	4604      	mov	r4, r0
 8006f38:	2301      	movs	r3, #1
 8006f3a:	e7f0      	b.n	8006f1e <_vfiprintf_r+0x1da>
 8006f3c:	ab03      	add	r3, sp, #12
 8006f3e:	9300      	str	r3, [sp, #0]
 8006f40:	462a      	mov	r2, r5
 8006f42:	4b16      	ldr	r3, [pc, #88]	; (8006f9c <_vfiprintf_r+0x258>)
 8006f44:	a904      	add	r1, sp, #16
 8006f46:	4630      	mov	r0, r6
 8006f48:	f3af 8000 	nop.w
 8006f4c:	4607      	mov	r7, r0
 8006f4e:	1c78      	adds	r0, r7, #1
 8006f50:	d1d6      	bne.n	8006f00 <_vfiprintf_r+0x1bc>
 8006f52:	6e6b      	ldr	r3, [r5, #100]	; 0x64
 8006f54:	07d9      	lsls	r1, r3, #31
 8006f56:	d405      	bmi.n	8006f64 <_vfiprintf_r+0x220>
 8006f58:	89ab      	ldrh	r3, [r5, #12]
 8006f5a:	059a      	lsls	r2, r3, #22
 8006f5c:	d402      	bmi.n	8006f64 <_vfiprintf_r+0x220>
 8006f5e:	6da8      	ldr	r0, [r5, #88]	; 0x58
 8006f60:	f7ff fd5d 	bl	8006a1e <__retarget_lock_release_recursive>
 8006f64:	89ab      	ldrh	r3, [r5, #12]
 8006f66:	065b      	lsls	r3, r3, #25
 8006f68:	f53f af12 	bmi.w	8006d90 <_vfiprintf_r+0x4c>
 8006f6c:	9809      	ldr	r0, [sp, #36]	; 0x24
 8006f6e:	e711      	b.n	8006d94 <_vfiprintf_r+0x50>
 8006f70:	ab03      	add	r3, sp, #12
 8006f72:	9300      	str	r3, [sp, #0]
 8006f74:	462a      	mov	r2, r5
 8006f76:	4b09      	ldr	r3, [pc, #36]	; (8006f9c <_vfiprintf_r+0x258>)
 8006f78:	a904      	add	r1, sp, #16
 8006f7a:	4630      	mov	r0, r6
 8006f7c:	f000 f880 	bl	8007080 <_printf_i>
 8006f80:	e7e4      	b.n	8006f4c <_vfiprintf_r+0x208>
 8006f82:	bf00      	nop
 8006f84:	08032588 	.word	0x08032588
 8006f88:	080325a8 	.word	0x080325a8
 8006f8c:	08032568 	.word	0x08032568
 8006f90:	080325c8 	.word	0x080325c8
 8006f94:	080325d2 	.word	0x080325d2
 8006f98:	00000000 	.word	0x00000000
 8006f9c:	08006d1f 	.word	0x08006d1f
 8006fa0:	080325ce 	.word	0x080325ce

08006fa4 <_printf_common>:
 8006fa4:	e92d 47f0 	stmdb	sp!, {r4, r5, r6, r7, r8, r9, sl, lr}
 8006fa8:	4616      	mov	r6, r2
 8006faa:	4699      	mov	r9, r3
 8006fac:	688a      	ldr	r2, [r1, #8]
 8006fae:	690b      	ldr	r3, [r1, #16]
 8006fb0:	f8dd 8020 	ldr.w	r8, [sp, #32]
 8006fb4:	4293      	cmp	r3, r2
 8006fb6:	bfb8      	it	lt
 8006fb8:	4613      	movlt	r3, r2
 8006fba:	6033      	str	r3, [r6, #0]
 8006fbc:	f891 2043 	ldrb.w	r2, [r1, #67]	; 0x43
 8006fc0:	4607      	mov	r7, r0
 8006fc2:	460c      	mov	r4, r1
 8006fc4:	b10a      	cbz	r2, 8006fca <_printf_common+0x26>
 8006fc6:	3301      	adds	r3, #1
 8006fc8:	6033      	str	r3, [r6, #0]
 8006fca:	6823      	ldr	r3, [r4, #0]
 8006fcc:	0699      	lsls	r1, r3, #26
 8006fce:	bf42      	ittt	mi
 8006fd0:	6833      	ldrmi	r3, [r6, #0]
 8006fd2:	3302      	addmi	r3, #2
 8006fd4:	6033      	strmi	r3, [r6, #0]
 8006fd6:	6825      	ldr	r5, [r4, #0]
 8006fd8:	f015 0506 	ands.w	r5, r5, #6
 8006fdc:	d106      	bne.n	8006fec <_printf_common+0x48>
 8006fde:	f104 0a19 	add.w	sl, r4, #25
 8006fe2:	68e3      	ldr	r3, [r4, #12]
 8006fe4:	6832      	ldr	r2, [r6, #0]
 8006fe6:	1a9b      	subs	r3, r3, r2
 8006fe8:	42ab      	cmp	r3, r5
 8006fea:	dc26      	bgt.n	800703a <_printf_common+0x96>
 8006fec:	f894 2043 	ldrb.w	r2, [r4, #67]	; 0x43
 8006ff0:	1e13      	subs	r3, r2, #0
 8006ff2:	6822      	ldr	r2, [r4, #0]
 8006ff4:	bf18      	it	ne
 8006ff6:	2301      	movne	r3, #1
 8006ff8:	0692      	lsls	r2, r2, #26
 8006ffa:	d42b      	bmi.n	8007054 <_printf_common+0xb0>
 8006ffc:	f104 0243 	add.w	r2, r4, #67	; 0x43
 8007000:	4649      	mov	r1, r9
 8007002:	4638      	mov	r0, r7
 8007004:	47c0      	blx	r8
 8007006:	3001      	adds	r0, #1
 8007008:	d01e      	beq.n	8007048 <_printf_common+0xa4>
 800700a:	6823      	ldr	r3, [r4, #0]
 800700c:	68e5      	ldr	r5, [r4, #12]
 800700e:	6832      	ldr	r2, [r6, #0]
 8007010:	f003 0306 	and.w	r3, r3, #6
 8007014:	2b04      	cmp	r3, #4
 8007016:	bf08      	it	eq
 8007018:	1aad      	subeq	r5, r5, r2
 800701a:	68a3      	ldr	r3, [r4, #8]
 800701c:	6922      	ldr	r2, [r4, #16]
 800701e:	bf0c      	ite	eq
 8007020:	ea25 75e5 	biceq.w	r5, r5, r5, asr #31
 8007024:	2500      	movne	r5, #0
 8007026:	4293      	cmp	r3, r2
 8007028:	bfc4      	itt	gt
 800702a:	1a9b      	subgt	r3, r3, r2
 800702c:	18ed      	addgt	r5, r5, r3
 800702e:	2600      	movs	r6, #0
 8007030:	341a      	adds	r4, #26
 8007032:	42b5      	cmp	r5, r6
 8007034:	d11a      	bne.n	800706c <_printf_common+0xc8>
 8007036:	2000      	movs	r0, #0
 8007038:	e008      	b.n	800704c <_printf_common+0xa8>
 800703a:	2301      	movs	r3, #1
 800703c:	4652      	mov	r2, sl
 800703e:	4649      	mov	r1, r9
 8007040:	4638      	mov	r0, r7
 8007042:	47c0      	blx	r8
 8007044:	3001      	adds	r0, #1
 8007046:	d103      	bne.n	8007050 <_printf_common+0xac>
 8007048:	f04f 30ff 	mov.w	r0, #4294967295
 800704c:	e8bd 87f0 	ldmia.w	sp!, {r4, r5, r6, r7, r8, r9, sl, pc}
 8007050:	3501      	adds	r5, #1
 8007052:	e7c6      	b.n	8006fe2 <_printf_common+0x3e>
 8007054:	18e1      	adds	r1, r4, r3
 8007056:	1c5a      	adds	r2, r3, #1
 8007058:	2030      	movs	r0, #48	; 0x30
 800705a:	f881 0043 	strb.w	r0, [r1, #67]	; 0x43
 800705e:	4422      	add	r2, r4
 8007060:	f894 1045 	ldrb.w	r1, [r4, #69]	; 0x45
 8007064:	f882 1043 	strb.w	r1, [r2, #67]	; 0x43
 8007068:	3302      	adds	r3, #2
 800706a:	e7c7      	b.n	8006ffc <_printf_common+0x58>
 800706c:	2301      	movs	r3, #1
 800706e:	4622      	mov	r2, r4
 8007070:	4649      	mov	r1, r9
 8007072:	4638      	mov	r0, r7
 8007074:	47c0      	blx	r8
 8007076:	3001      	adds	r0, #1
 8007078:	d0e6      	beq.n	8007048 <_printf_common+0xa4>
 800707a:	3601      	adds	r6, #1
 800707c:	e7d9      	b.n	8007032 <_printf_common+0x8e>
	...

08007080 <_printf_i>:
 8007080:	e92d 47ff 	stmdb	sp!, {r0, r1, r2, r3, r4, r5, r6, r7, r8, r9, sl, lr}
 8007084:	460c      	mov	r4, r1
 8007086:	4691      	mov	r9, r2
 8007088:	7e27      	ldrb	r7, [r4, #24]
 800708a:	990c      	ldr	r1, [sp, #48]	; 0x30
 800708c:	2f78      	cmp	r7, #120	; 0x78
 800708e:	4680      	mov	r8, r0
 8007090:	469a      	mov	sl, r3
 8007092:	f104 0243 	add.w	r2, r4, #67	; 0x43
 8007096:	d807      	bhi.n	80070a8 <_printf_i+0x28>
 8007098:	2f62      	cmp	r7, #98	; 0x62
 800709a:	d80a      	bhi.n	80070b2 <_printf_i+0x32>
 800709c:	2f00      	cmp	r7, #0
 800709e:	f000 80d8 	beq.w	8007252 <_printf_i+0x1d2>
 80070a2:	2f58      	cmp	r7, #88	; 0x58
 80070a4:	f000 80a3 	beq.w	80071ee <_printf_i+0x16e>
 80070a8:	f104 0642 	add.w	r6, r4, #66	; 0x42
 80070ac:	f884 7042 	strb.w	r7, [r4, #66]	; 0x42
 80070b0:	e03a      	b.n	8007128 <_printf_i+0xa8>
 80070b2:	f1a7 0363 	sub.w	r3, r7, #99	; 0x63
 80070b6:	2b15      	cmp	r3, #21
 80070b8:	d8f6      	bhi.n	80070a8 <_printf_i+0x28>
 80070ba:	a001      	add	r0, pc, #4	; (adr r0, 80070c0 <_printf_i+0x40>)
 80070bc:	f850 f023 	ldr.w	pc, [r0, r3, lsl #2]
 80070c0:	08007119 	.word	0x08007119
 80070c4:	0800712d 	.word	0x0800712d
 80070c8:	080070a9 	.word	0x080070a9
 80070cc:	080070a9 	.word	0x080070a9
 80070d0:	080070a9 	.word	0x080070a9
 80070d4:	080070a9 	.word	0x080070a9
 80070d8:	0800712d 	.word	0x0800712d
 80070dc:	080070a9 	.word	0x080070a9
 80070e0:	080070a9 	.word	0x080070a9
 80070e4:	080070a9 	.word	0x080070a9
 80070e8:	080070a9 	.word	0x080070a9
 80070ec:	08007239 	.word	0x08007239
 80070f0:	0800715d 	.word	0x0800715d
 80070f4:	0800721b 	.word	0x0800721b
 80070f8:	080070a9 	.word	0x080070a9
 80070fc:	080070a9 	.word	0x080070a9
 8007100:	0800725b 	.word	0x0800725b
 8007104:	080070a9 	.word	0x080070a9
 8007108:	0800715d 	.word	0x0800715d
 800710c:	080070a9 	.word	0x080070a9
 8007110:	080070a9 	.word	0x080070a9
 8007114:	08007223 	.word	0x08007223
 8007118:	680b      	ldr	r3, [r1, #0]
 800711a:	1d1a      	adds	r2, r3, #4
 800711c:	681b      	ldr	r3, [r3, #0]
 800711e:	600a      	str	r2, [r1, #0]
 8007120:	f104 0642 	add.w	r6, r4, #66	; 0x42
 8007124:	f884 3042 	strb.w	r3, [r4, #66]	; 0x42
 8007128:	2301      	movs	r3, #1
 800712a:	e0a3      	b.n	8007274 <_printf_i+0x1f4>
 800712c:	6825      	ldr	r5, [r4, #0]
 800712e:	6808      	ldr	r0, [r1, #0]
 8007130:	062e      	lsls	r6, r5, #24
 8007132:	f100 0304 	add.w	r3, r0, #4
 8007136:	d50a      	bpl.n	800714e <_printf_i+0xce>
 8007138:	6805      	ldr	r5, [r0, #0]
 800713a:	600b      	str	r3, [r1, #0]
 800713c:	2d00      	cmp	r5, #0
 800713e:	da03      	bge.n	8007148 <_printf_i+0xc8>
 8007140:	232d      	movs	r3, #45	; 0x2d
 8007142:	426d      	negs	r5, r5
 8007144:	f884 3043 	strb.w	r3, [r4, #67]	; 0x43
 8007148:	485e      	ldr	r0, [pc, #376]	; (80072c4 <_printf_i+0x244>)
 800714a:	230a      	movs	r3, #10
 800714c:	e019      	b.n	8007182 <_printf_i+0x102>
 800714e:	f015 0f40 	tst.w	r5, #64	; 0x40
 8007152:	6805      	ldr	r5, [r0, #0]
 8007154:	600b      	str	r3, [r1, #0]
 8007156:	bf18      	it	ne
 8007158:	b22d      	sxthne	r5, r5
 800715a:	e7ef      	b.n	800713c <_printf_i+0xbc>
 800715c:	680b      	ldr	r3, [r1, #0]
 800715e:	6825      	ldr	r5, [r4, #0]
 8007160:	1d18      	adds	r0, r3, #4
 8007162:	6008      	str	r0, [r1, #0]
 8007164:	0628      	lsls	r0, r5, #24
 8007166:	d501      	bpl.n	800716c <_printf_i+0xec>
 8007168:	681d      	ldr	r5, [r3, #0]
 800716a:	e002      	b.n	8007172 <_printf_i+0xf2>
 800716c:	0669      	lsls	r1, r5, #25
 800716e:	d5fb      	bpl.n	8007168 <_printf_i+0xe8>
 8007170:	881d      	ldrh	r5, [r3, #0]
 8007172:	4854      	ldr	r0, [pc, #336]	; (80072c4 <_printf_i+0x244>)
 8007174:	2f6f      	cmp	r7, #111	; 0x6f
 8007176:	bf0c      	ite	eq
 8007178:	2308      	moveq	r3, #8
 800717a:	230a      	movne	r3, #10
 800717c:	2100      	movs	r1, #0
 800717e:	f884 1043 	strb.w	r1, [r4, #67]	; 0x43
 8007182:	6866      	ldr	r6, [r4, #4]
 8007184:	60a6      	str	r6, [r4, #8]
 8007186:	2e00      	cmp	r6, #0
 8007188:	bfa2      	ittt	ge
 800718a:	6821      	ldrge	r1, [r4, #0]
 800718c:	f021 0104 	bicge.w	r1, r1, #4
 8007190:	6021      	strge	r1, [r4, #0]
 8007192:	b90d      	cbnz	r5, 8007198 <_printf_i+0x118>
 8007194:	2e00      	cmp	r6, #0
 8007196:	d04d      	beq.n	8007234 <_printf_i+0x1b4>
 8007198:	4616      	mov	r6, r2
 800719a:	fbb5 f1f3 	udiv	r1, r5, r3
 800719e:	fb03 5711 	mls	r7, r3, r1, r5
 80071a2:	5dc7      	ldrb	r7, [r0, r7]
 80071a4:	f806 7d01 	strb.w	r7, [r6, #-1]!
 80071a8:	462f      	mov	r7, r5
 80071aa:	42bb      	cmp	r3, r7
 80071ac:	460d      	mov	r5, r1
 80071ae:	d9f4      	bls.n	800719a <_printf_i+0x11a>
 80071b0:	2b08      	cmp	r3, #8
 80071b2:	d10b      	bne.n	80071cc <_printf_i+0x14c>
 80071b4:	6823      	ldr	r3, [r4, #0]
 80071b6:	07df      	lsls	r7, r3, #31
 80071b8:	d508      	bpl.n	80071cc <_printf_i+0x14c>
 80071ba:	6923      	ldr	r3, [r4, #16]
 80071bc:	6861      	ldr	r1, [r4, #4]
 80071be:	4299      	cmp	r1, r3
 80071c0:	bfde      	ittt	le
 80071c2:	2330      	movle	r3, #48	; 0x30
 80071c4:	f806 3c01 	strble.w	r3, [r6, #-1]
 80071c8:	f106 36ff 	addle.w	r6, r6, #4294967295
 80071cc:	1b92      	subs	r2, r2, r6
 80071ce:	6122      	str	r2, [r4, #16]
 80071d0:	f8cd a000 	str.w	sl, [sp]
 80071d4:	464b      	mov	r3, r9
 80071d6:	aa03      	add	r2, sp, #12
 80071d8:	4621      	mov	r1, r4
 80071da:	4640      	mov	r0, r8
 80071dc:	f7ff fee2 	bl	8006fa4 <_printf_common>
 80071e0:	3001      	adds	r0, #1
 80071e2:	d14c      	bne.n	800727e <_printf_i+0x1fe>
 80071e4:	f04f 30ff 	mov.w	r0, #4294967295
 80071e8:	b004      	add	sp, #16
 80071ea:	e8bd 87f0 	ldmia.w	sp!, {r4, r5, r6, r7, r8, r9, sl, pc}
 80071ee:	4835      	ldr	r0, [pc, #212]	; (80072c4 <_printf_i+0x244>)
 80071f0:	f884 7045 	strb.w	r7, [r4, #69]	; 0x45
 80071f4:	6823      	ldr	r3, [r4, #0]
 80071f6:	680e      	ldr	r6, [r1, #0]
 80071f8:	061f      	lsls	r7, r3, #24
 80071fa:	f856 5b04 	ldr.w	r5, [r6], #4
 80071fe:	600e      	str	r6, [r1, #0]
 8007200:	d514      	bpl.n	800722c <_printf_i+0x1ac>
 8007202:	07d9      	lsls	r1, r3, #31
 8007204:	bf44      	itt	mi
 8007206:	f043 0320 	orrmi.w	r3, r3, #32
 800720a:	6023      	strmi	r3, [r4, #0]
 800720c:	b91d      	cbnz	r5, 8007216 <_printf_i+0x196>
 800720e:	6823      	ldr	r3, [r4, #0]
 8007210:	f023 0320 	bic.w	r3, r3, #32
 8007214:	6023      	str	r3, [r4, #0]
 8007216:	2310      	movs	r3, #16
 8007218:	e7b0      	b.n	800717c <_printf_i+0xfc>
 800721a:	6823      	ldr	r3, [r4, #0]
 800721c:	f043 0320 	orr.w	r3, r3, #32
 8007220:	6023      	str	r3, [r4, #0]
 8007222:	2378      	movs	r3, #120	; 0x78
 8007224:	4828      	ldr	r0, [pc, #160]	; (80072c8 <_printf_i+0x248>)
 8007226:	f884 3045 	strb.w	r3, [r4, #69]	; 0x45
 800722a:	e7e3      	b.n	80071f4 <_printf_i+0x174>
 800722c:	065e      	lsls	r6, r3, #25
 800722e:	bf48      	it	mi
 8007230:	b2ad      	uxthmi	r5, r5
 8007232:	e7e6      	b.n	8007202 <_printf_i+0x182>
 8007234:	4616      	mov	r6, r2
 8007236:	e7bb      	b.n	80071b0 <_printf_i+0x130>
 8007238:	680b      	ldr	r3, [r1, #0]
 800723a:	6826      	ldr	r6, [r4, #0]
 800723c:	6960      	ldr	r0, [r4, #20]
 800723e:	1d1d      	adds	r5, r3, #4
 8007240:	600d      	str	r5, [r1, #0]
 8007242:	0635      	lsls	r5, r6, #24
 8007244:	681b      	ldr	r3, [r3, #0]
 8007246:	d501      	bpl.n	800724c <_printf_i+0x1cc>
 8007248:	6018      	str	r0, [r3, #0]
 800724a:	e002      	b.n	8007252 <_printf_i+0x1d2>
 800724c:	0671      	lsls	r1, r6, #25
 800724e:	d5fb      	bpl.n	8007248 <_printf_i+0x1c8>
 8007250:	8018      	strh	r0, [r3, #0]
 8007252:	2300      	movs	r3, #0
 8007254:	6123      	str	r3, [r4, #16]
 8007256:	4616      	mov	r6, r2
 8007258:	e7ba      	b.n	80071d0 <_printf_i+0x150>
 800725a:	680b      	ldr	r3, [r1, #0]
 800725c:	1d1a      	adds	r2, r3, #4
 800725e:	600a      	str	r2, [r1, #0]
 8007260:	681e      	ldr	r6, [r3, #0]
 8007262:	6862      	ldr	r2, [r4, #4]
 8007264:	2100      	movs	r1, #0
 8007266:	4630      	mov	r0, r6
 8007268:	f7f8 ffba 	bl	80001e0 <memchr>
 800726c:	b108      	cbz	r0, 8007272 <_printf_i+0x1f2>
 800726e:	1b80      	subs	r0, r0, r6
 8007270:	6060      	str	r0, [r4, #4]
 8007272:	6863      	ldr	r3, [r4, #4]
 8007274:	6123      	str	r3, [r4, #16]
 8007276:	2300      	movs	r3, #0
 8007278:	f884 3043 	strb.w	r3, [r4, #67]	; 0x43
 800727c:	e7a8      	b.n	80071d0 <_printf_i+0x150>
 800727e:	6923      	ldr	r3, [r4, #16]
 8007280:	4632      	mov	r2, r6
 8007282:	4649      	mov	r1, r9
 8007284:	4640      	mov	r0, r8
 8007286:	47d0      	blx	sl
 8007288:	3001      	adds	r0, #1
 800728a:	d0ab      	beq.n	80071e4 <_printf_i+0x164>
 800728c:	6823      	ldr	r3, [r4, #0]
 800728e:	079b      	lsls	r3, r3, #30
 8007290:	d413      	bmi.n	80072ba <_printf_i+0x23a>
 8007292:	68e0      	ldr	r0, [r4, #12]
 8007294:	9b03      	ldr	r3, [sp, #12]
 8007296:	4298      	cmp	r0, r3
 8007298:	bfb8      	it	lt
 800729a:	4618      	movlt	r0, r3
 800729c:	e7a4      	b.n	80071e8 <_printf_i+0x168>
 800729e:	2301      	movs	r3, #1
 80072a0:	4632      	mov	r2, r6
 80072a2:	4649      	mov	r1, r9
 80072a4:	4640      	mov	r0, r8
 80072a6:	47d0      	blx	sl
 80072a8:	3001      	adds	r0, #1
 80072aa:	d09b      	beq.n	80071e4 <_printf_i+0x164>
 80072ac:	3501      	adds	r5, #1
 80072ae:	68e3      	ldr	r3, [r4, #12]
 80072b0:	9903      	ldr	r1, [sp, #12]
 80072b2:	1a5b      	subs	r3, r3, r1
 80072b4:	42ab      	cmp	r3, r5
 80072b6:	dcf2      	bgt.n	800729e <_printf_i+0x21e>
 80072b8:	e7eb      	b.n	8007292 <_printf_i+0x212>
 80072ba:	2500      	movs	r5, #0
 80072bc:	f104 0619 	add.w	r6, r4, #25
 80072c0:	e7f5      	b.n	80072ae <_printf_i+0x22e>
 80072c2:	bf00      	nop
 80072c4:	080325d9 	.word	0x080325d9
 80072c8:	080325ea 	.word	0x080325ea

080072cc <__sread>:
 80072cc:	b510      	push	{r4, lr}
 80072ce:	460c      	mov	r4, r1
 80072d0:	f9b1 100e 	ldrsh.w	r1, [r1, #14]
 80072d4:	f000 fa98 	bl	8007808 <_read_r>
 80072d8:	2800      	cmp	r0, #0
 80072da:	bfab      	itete	ge
 80072dc:	6d63      	ldrge	r3, [r4, #84]	; 0x54
 80072de:	89a3      	ldrhlt	r3, [r4, #12]
 80072e0:	181b      	addge	r3, r3, r0
 80072e2:	f423 5380 	biclt.w	r3, r3, #4096	; 0x1000
 80072e6:	bfac      	ite	ge
 80072e8:	6563      	strge	r3, [r4, #84]	; 0x54
 80072ea:	81a3      	strhlt	r3, [r4, #12]
 80072ec:	bd10      	pop	{r4, pc}

080072ee <__swrite>:
 80072ee:	e92d 41f0 	stmdb	sp!, {r4, r5, r6, r7, r8, lr}
 80072f2:	461f      	mov	r7, r3
 80072f4:	898b      	ldrh	r3, [r1, #12]
 80072f6:	05db      	lsls	r3, r3, #23
 80072f8:	4605      	mov	r5, r0
 80072fa:	460c      	mov	r4, r1
 80072fc:	4616      	mov	r6, r2
 80072fe:	d505      	bpl.n	800730c <__swrite+0x1e>
 8007300:	f9b1 100e 	ldrsh.w	r1, [r1, #14]
 8007304:	2302      	movs	r3, #2
 8007306:	2200      	movs	r2, #0
 8007308:	f000 f9c8 	bl	800769c <_lseek_r>
 800730c:	89a3      	ldrh	r3, [r4, #12]
 800730e:	f9b4 100e 	ldrsh.w	r1, [r4, #14]
 8007312:	f423 5380 	bic.w	r3, r3, #4096	; 0x1000
 8007316:	81a3      	strh	r3, [r4, #12]
 8007318:	4632      	mov	r2, r6
 800731a:	463b      	mov	r3, r7
 800731c:	4628      	mov	r0, r5
 800731e:	e8bd 41f0 	ldmia.w	sp!, {r4, r5, r6, r7, r8, lr}
 8007322:	f000 b869 	b.w	80073f8 <_write_r>

08007326 <__sseek>:
 8007326:	b510      	push	{r4, lr}
 8007328:	460c      	mov	r4, r1
 800732a:	f9b1 100e 	ldrsh.w	r1, [r1, #14]
 800732e:	f000 f9b5 	bl	800769c <_lseek_r>
 8007332:	1c43      	adds	r3, r0, #1
 8007334:	89a3      	ldrh	r3, [r4, #12]
 8007336:	bf15      	itete	ne
 8007338:	6560      	strne	r0, [r4, #84]	; 0x54
 800733a:	f423 5380 	biceq.w	r3, r3, #4096	; 0x1000
 800733e:	f443 5380 	orrne.w	r3, r3, #4096	; 0x1000
 8007342:	81a3      	strheq	r3, [r4, #12]
 8007344:	bf18      	it	ne
 8007346:	81a3      	strhne	r3, [r4, #12]
 8007348:	bd10      	pop	{r4, pc}

0800734a <__sclose>:
 800734a:	f9b1 100e 	ldrsh.w	r1, [r1, #14]
 800734e:	f000 b8d3 	b.w	80074f8 <_close_r>
	...

08007354 <__swbuf_r>:
 8007354:	b5f8      	push	{r3, r4, r5, r6, r7, lr}
 8007356:	460e      	mov	r6, r1
 8007358:	4614      	mov	r4, r2
 800735a:	4605      	mov	r5, r0
 800735c:	b118      	cbz	r0, 8007366 <__swbuf_r+0x12>
 800735e:	6983      	ldr	r3, [r0, #24]
 8007360:	b90b      	cbnz	r3, 8007366 <__swbuf_r+0x12>
 8007362:	f7ff fabd 	bl	80068e0 <__sinit>
 8007366:	4b21      	ldr	r3, [pc, #132]	; (80073ec <__swbuf_r+0x98>)
 8007368:	429c      	cmp	r4, r3
 800736a:	d12b      	bne.n	80073c4 <__swbuf_r+0x70>
 800736c:	686c      	ldr	r4, [r5, #4]
 800736e:	69a3      	ldr	r3, [r4, #24]
 8007370:	60a3      	str	r3, [r4, #8]
 8007372:	89a3      	ldrh	r3, [r4, #12]
 8007374:	071a      	lsls	r2, r3, #28
 8007376:	d52f      	bpl.n	80073d8 <__swbuf_r+0x84>
 8007378:	6923      	ldr	r3, [r4, #16]
 800737a:	b36b      	cbz	r3, 80073d8 <__swbuf_r+0x84>
 800737c:	6923      	ldr	r3, [r4, #16]
 800737e:	6820      	ldr	r0, [r4, #0]
 8007380:	1ac0      	subs	r0, r0, r3
 8007382:	6963      	ldr	r3, [r4, #20]
 8007384:	b2f6      	uxtb	r6, r6
 8007386:	4283      	cmp	r3, r0
 8007388:	4637      	mov	r7, r6
 800738a:	dc04      	bgt.n	8007396 <__swbuf_r+0x42>
 800738c:	4621      	mov	r1, r4
 800738e:	4628      	mov	r0, r5
 8007390:	f000 f948 	bl	8007624 <_fflush_r>
 8007394:	bb30      	cbnz	r0, 80073e4 <__swbuf_r+0x90>
 8007396:	68a3      	ldr	r3, [r4, #8]
 8007398:	3b01      	subs	r3, #1
 800739a:	60a3      	str	r3, [r4, #8]
 800739c:	6823      	ldr	r3, [r4, #0]
 800739e:	1c5a      	adds	r2, r3, #1
 80073a0:	6022      	str	r2, [r4, #0]
 80073a2:	701e      	strb	r6, [r3, #0]
 80073a4:	6963      	ldr	r3, [r4, #20]
 80073a6:	3001      	adds	r0, #1
 80073a8:	4283      	cmp	r3, r0
 80073aa:	d004      	beq.n	80073b6 <__swbuf_r+0x62>
 80073ac:	89a3      	ldrh	r3, [r4, #12]
 80073ae:	07db      	lsls	r3, r3, #31
 80073b0:	d506      	bpl.n	80073c0 <__swbuf_r+0x6c>
 80073b2:	2e0a      	cmp	r6, #10
 80073b4:	d104      	bne.n	80073c0 <__swbuf_r+0x6c>
 80073b6:	4621      	mov	r1, r4
 80073b8:	4628      	mov	r0, r5
 80073ba:	f000 f933 	bl	8007624 <_fflush_r>
 80073be:	b988      	cbnz	r0, 80073e4 <__swbuf_r+0x90>
 80073c0:	4638      	mov	r0, r7
 80073c2:	bdf8      	pop	{r3, r4, r5, r6, r7, pc}
 80073c4:	4b0a      	ldr	r3, [pc, #40]	; (80073f0 <__swbuf_r+0x9c>)
 80073c6:	429c      	cmp	r4, r3
 80073c8:	d101      	bne.n	80073ce <__swbuf_r+0x7a>
 80073ca:	68ac      	ldr	r4, [r5, #8]
 80073cc:	e7cf      	b.n	800736e <__swbuf_r+0x1a>
 80073ce:	4b09      	ldr	r3, [pc, #36]	; (80073f4 <__swbuf_r+0xa0>)
 80073d0:	429c      	cmp	r4, r3
 80073d2:	bf08      	it	eq
 80073d4:	68ec      	ldreq	r4, [r5, #12]
 80073d6:	e7ca      	b.n	800736e <__swbuf_r+0x1a>
 80073d8:	4621      	mov	r1, r4
 80073da:	4628      	mov	r0, r5
 80073dc:	f000 f81e 	bl	800741c <__swsetup_r>
 80073e0:	2800      	cmp	r0, #0
 80073e2:	d0cb      	beq.n	800737c <__swbuf_r+0x28>
 80073e4:	f04f 37ff 	mov.w	r7, #4294967295
 80073e8:	e7ea      	b.n	80073c0 <__swbuf_r+0x6c>
 80073ea:	bf00      	nop
 80073ec:	08032588 	.word	0x08032588
 80073f0:	080325a8 	.word	0x080325a8
 80073f4:	08032568 	.word	0x08032568

080073f8 <_write_r>:
 80073f8:	b538      	push	{r3, r4, r5, lr}
 80073fa:	4d07      	ldr	r5, [pc, #28]	; (8007418 <_write_r+0x20>)
 80073fc:	4604      	mov	r4, r0
 80073fe:	4608      	mov	r0, r1
 8007400:	4611      	mov	r1, r2
 8007402:	2200      	movs	r2, #0
 8007404:	602a      	str	r2, [r5, #0]
 8007406:	461a      	mov	r2, r3
 8007408:	f7fa f9fb 	bl	8001802 <_write>
 800740c:	1c43      	adds	r3, r0, #1
 800740e:	d102      	bne.n	8007416 <_write_r+0x1e>
 8007410:	682b      	ldr	r3, [r5, #0]
 8007412:	b103      	cbz	r3, 8007416 <_write_r+0x1e>
 8007414:	6023      	str	r3, [r4, #0]
 8007416:	bd38      	pop	{r3, r4, r5, pc}
 8007418:	20016100 	.word	0x20016100

0800741c <__swsetup_r>:
 800741c:	4b32      	ldr	r3, [pc, #200]	; (80074e8 <__swsetup_r+0xcc>)
 800741e:	b570      	push	{r4, r5, r6, lr}
 8007420:	681d      	ldr	r5, [r3, #0]
 8007422:	4606      	mov	r6, r0
 8007424:	460c      	mov	r4, r1
 8007426:	b125      	cbz	r5, 8007432 <__swsetup_r+0x16>
 8007428:	69ab      	ldr	r3, [r5, #24]
 800742a:	b913      	cbnz	r3, 8007432 <__swsetup_r+0x16>
 800742c:	4628      	mov	r0, r5
 800742e:	f7ff fa57 	bl	80068e0 <__sinit>
 8007432:	4b2e      	ldr	r3, [pc, #184]	; (80074ec <__swsetup_r+0xd0>)
 8007434:	429c      	cmp	r4, r3
 8007436:	d10f      	bne.n	8007458 <__swsetup_r+0x3c>
 8007438:	686c      	ldr	r4, [r5, #4]
 800743a:	89a3      	ldrh	r3, [r4, #12]
 800743c:	f9b4 200c 	ldrsh.w	r2, [r4, #12]
 8007440:	0719      	lsls	r1, r3, #28
 8007442:	d42c      	bmi.n	800749e <__swsetup_r+0x82>
 8007444:	06dd      	lsls	r5, r3, #27
 8007446:	d411      	bmi.n	800746c <__swsetup_r+0x50>
 8007448:	2309      	movs	r3, #9
 800744a:	6033      	str	r3, [r6, #0]
 800744c:	f042 0340 	orr.w	r3, r2, #64	; 0x40
 8007450:	81a3      	strh	r3, [r4, #12]
 8007452:	f04f 30ff 	mov.w	r0, #4294967295
 8007456:	e03e      	b.n	80074d6 <__swsetup_r+0xba>
 8007458:	4b25      	ldr	r3, [pc, #148]	; (80074f0 <__swsetup_r+0xd4>)
 800745a:	429c      	cmp	r4, r3
 800745c:	d101      	bne.n	8007462 <__swsetup_r+0x46>
 800745e:	68ac      	ldr	r4, [r5, #8]
 8007460:	e7eb      	b.n	800743a <__swsetup_r+0x1e>
 8007462:	4b24      	ldr	r3, [pc, #144]	; (80074f4 <__swsetup_r+0xd8>)
 8007464:	429c      	cmp	r4, r3
 8007466:	bf08      	it	eq
 8007468:	68ec      	ldreq	r4, [r5, #12]
 800746a:	e7e6      	b.n	800743a <__swsetup_r+0x1e>
 800746c:	0758      	lsls	r0, r3, #29
 800746e:	d512      	bpl.n	8007496 <__swsetup_r+0x7a>
 8007470:	6b61      	ldr	r1, [r4, #52]	; 0x34
 8007472:	b141      	cbz	r1, 8007486 <__swsetup_r+0x6a>
 8007474:	f104 0344 	add.w	r3, r4, #68	; 0x44
 8007478:	4299      	cmp	r1, r3
 800747a:	d002      	beq.n	8007482 <__swsetup_r+0x66>
 800747c:	4630      	mov	r0, r6
 800747e:	f7ff f8e5 	bl	800664c <_free_r>
 8007482:	2300      	movs	r3, #0
 8007484:	6363      	str	r3, [r4, #52]	; 0x34
 8007486:	89a3      	ldrh	r3, [r4, #12]
 8007488:	f023 0324 	bic.w	r3, r3, #36	; 0x24
 800748c:	81a3      	strh	r3, [r4, #12]
 800748e:	2300      	movs	r3, #0
 8007490:	6063      	str	r3, [r4, #4]
 8007492:	6923      	ldr	r3, [r4, #16]
 8007494:	6023      	str	r3, [r4, #0]
 8007496:	89a3      	ldrh	r3, [r4, #12]
 8007498:	f043 0308 	orr.w	r3, r3, #8
 800749c:	81a3      	strh	r3, [r4, #12]
 800749e:	6923      	ldr	r3, [r4, #16]
 80074a0:	b94b      	cbnz	r3, 80074b6 <__swsetup_r+0x9a>
 80074a2:	89a3      	ldrh	r3, [r4, #12]
 80074a4:	f403 7320 	and.w	r3, r3, #640	; 0x280
 80074a8:	f5b3 7f00 	cmp.w	r3, #512	; 0x200
 80074ac:	d003      	beq.n	80074b6 <__swsetup_r+0x9a>
 80074ae:	4621      	mov	r1, r4
 80074b0:	4630      	mov	r0, r6
 80074b2:	f000 f929 	bl	8007708 <__smakebuf_r>
 80074b6:	89a0      	ldrh	r0, [r4, #12]
 80074b8:	f9b4 200c 	ldrsh.w	r2, [r4, #12]
 80074bc:	f010 0301 	ands.w	r3, r0, #1
 80074c0:	d00a      	beq.n	80074d8 <__swsetup_r+0xbc>
 80074c2:	2300      	movs	r3, #0
 80074c4:	60a3      	str	r3, [r4, #8]
 80074c6:	6963      	ldr	r3, [r4, #20]
 80074c8:	425b      	negs	r3, r3
 80074ca:	61a3      	str	r3, [r4, #24]
 80074cc:	6923      	ldr	r3, [r4, #16]
 80074ce:	b943      	cbnz	r3, 80074e2 <__swsetup_r+0xc6>
 80074d0:	f010 0080 	ands.w	r0, r0, #128	; 0x80
 80074d4:	d1ba      	bne.n	800744c <__swsetup_r+0x30>
 80074d6:	bd70      	pop	{r4, r5, r6, pc}
 80074d8:	0781      	lsls	r1, r0, #30
 80074da:	bf58      	it	pl
 80074dc:	6963      	ldrpl	r3, [r4, #20]
 80074de:	60a3      	str	r3, [r4, #8]
 80074e0:	e7f4      	b.n	80074cc <__swsetup_r+0xb0>
 80074e2:	2000      	movs	r0, #0
 80074e4:	e7f7      	b.n	80074d6 <__swsetup_r+0xba>
 80074e6:	bf00      	nop
 80074e8:	20000098 	.word	0x20000098
 80074ec:	08032588 	.word	0x08032588
 80074f0:	080325a8 	.word	0x080325a8
 80074f4:	08032568 	.word	0x08032568

080074f8 <_close_r>:
 80074f8:	b538      	push	{r3, r4, r5, lr}
 80074fa:	4d06      	ldr	r5, [pc, #24]	; (8007514 <_close_r+0x1c>)
 80074fc:	2300      	movs	r3, #0
 80074fe:	4604      	mov	r4, r0
 8007500:	4608      	mov	r0, r1
 8007502:	602b      	str	r3, [r5, #0]
 8007504:	f7fa f98a 	bl	800181c <_close>
 8007508:	1c43      	adds	r3, r0, #1
 800750a:	d102      	bne.n	8007512 <_close_r+0x1a>
 800750c:	682b      	ldr	r3, [r5, #0]
 800750e:	b103      	cbz	r3, 8007512 <_close_r+0x1a>
 8007510:	6023      	str	r3, [r4, #0]
 8007512:	bd38      	pop	{r3, r4, r5, pc}
 8007514:	20016100 	.word	0x20016100

08007518 <__sflush_r>:
 8007518:	898a      	ldrh	r2, [r1, #12]
 800751a:	e92d 41f0 	stmdb	sp!, {r4, r5, r6, r7, r8, lr}
 800751e:	4605      	mov	r5, r0
 8007520:	0710      	lsls	r0, r2, #28
 8007522:	460c      	mov	r4, r1
 8007524:	d458      	bmi.n	80075d8 <__sflush_r+0xc0>
 8007526:	684b      	ldr	r3, [r1, #4]
 8007528:	2b00      	cmp	r3, #0
 800752a:	dc05      	bgt.n	8007538 <__sflush_r+0x20>
 800752c:	6c0b      	ldr	r3, [r1, #64]	; 0x40
 800752e:	2b00      	cmp	r3, #0
 8007530:	dc02      	bgt.n	8007538 <__sflush_r+0x20>
 8007532:	2000      	movs	r0, #0
 8007534:	e8bd 81f0 	ldmia.w	sp!, {r4, r5, r6, r7, r8, pc}
 8007538:	6ae6      	ldr	r6, [r4, #44]	; 0x2c
 800753a:	2e00      	cmp	r6, #0
 800753c:	d0f9      	beq.n	8007532 <__sflush_r+0x1a>
 800753e:	2300      	movs	r3, #0
 8007540:	f412 5280 	ands.w	r2, r2, #4096	; 0x1000
 8007544:	682f      	ldr	r7, [r5, #0]
 8007546:	602b      	str	r3, [r5, #0]
 8007548:	d032      	beq.n	80075b0 <__sflush_r+0x98>
 800754a:	6d60      	ldr	r0, [r4, #84]	; 0x54
 800754c:	89a3      	ldrh	r3, [r4, #12]
 800754e:	075a      	lsls	r2, r3, #29
 8007550:	d505      	bpl.n	800755e <__sflush_r+0x46>
 8007552:	6863      	ldr	r3, [r4, #4]
 8007554:	1ac0      	subs	r0, r0, r3
 8007556:	6b63      	ldr	r3, [r4, #52]	; 0x34
 8007558:	b10b      	cbz	r3, 800755e <__sflush_r+0x46>
 800755a:	6c23      	ldr	r3, [r4, #64]	; 0x40
 800755c:	1ac0      	subs	r0, r0, r3
 800755e:	2300      	movs	r3, #0
 8007560:	4602      	mov	r2, r0
 8007562:	6ae6      	ldr	r6, [r4, #44]	; 0x2c
 8007564:	6a21      	ldr	r1, [r4, #32]
 8007566:	4628      	mov	r0, r5
 8007568:	47b0      	blx	r6
 800756a:	1c43      	adds	r3, r0, #1
 800756c:	89a3      	ldrh	r3, [r4, #12]
 800756e:	d106      	bne.n	800757e <__sflush_r+0x66>
 8007570:	6829      	ldr	r1, [r5, #0]
 8007572:	291d      	cmp	r1, #29
 8007574:	d82c      	bhi.n	80075d0 <__sflush_r+0xb8>
 8007576:	4a2a      	ldr	r2, [pc, #168]	; (8007620 <__sflush_r+0x108>)
 8007578:	40ca      	lsrs	r2, r1
 800757a:	07d6      	lsls	r6, r2, #31
 800757c:	d528      	bpl.n	80075d0 <__sflush_r+0xb8>
 800757e:	2200      	movs	r2, #0
 8007580:	6062      	str	r2, [r4, #4]
 8007582:	04d9      	lsls	r1, r3, #19
 8007584:	6922      	ldr	r2, [r4, #16]
 8007586:	6022      	str	r2, [r4, #0]
 8007588:	d504      	bpl.n	8007594 <__sflush_r+0x7c>
 800758a:	1c42      	adds	r2, r0, #1
 800758c:	d101      	bne.n	8007592 <__sflush_r+0x7a>
 800758e:	682b      	ldr	r3, [r5, #0]
 8007590:	b903      	cbnz	r3, 8007594 <__sflush_r+0x7c>
 8007592:	6560      	str	r0, [r4, #84]	; 0x54
 8007594:	6b61      	ldr	r1, [r4, #52]	; 0x34
 8007596:	602f      	str	r7, [r5, #0]
 8007598:	2900      	cmp	r1, #0
 800759a:	d0ca      	beq.n	8007532 <__sflush_r+0x1a>
 800759c:	f104 0344 	add.w	r3, r4, #68	; 0x44
 80075a0:	4299      	cmp	r1, r3
 80075a2:	d002      	beq.n	80075aa <__sflush_r+0x92>
 80075a4:	4628      	mov	r0, r5
 80075a6:	f7ff f851 	bl	800664c <_free_r>
 80075aa:	2000      	movs	r0, #0
 80075ac:	6360      	str	r0, [r4, #52]	; 0x34
 80075ae:	e7c1      	b.n	8007534 <__sflush_r+0x1c>
 80075b0:	6a21      	ldr	r1, [r4, #32]
 80075b2:	2301      	movs	r3, #1
 80075b4:	4628      	mov	r0, r5
 80075b6:	47b0      	blx	r6
 80075b8:	1c41      	adds	r1, r0, #1
 80075ba:	d1c7      	bne.n	800754c <__sflush_r+0x34>
 80075bc:	682b      	ldr	r3, [r5, #0]
 80075be:	2b00      	cmp	r3, #0
 80075c0:	d0c4      	beq.n	800754c <__sflush_r+0x34>
 80075c2:	2b1d      	cmp	r3, #29
 80075c4:	d001      	beq.n	80075ca <__sflush_r+0xb2>
 80075c6:	2b16      	cmp	r3, #22
 80075c8:	d101      	bne.n	80075ce <__sflush_r+0xb6>
 80075ca:	602f      	str	r7, [r5, #0]
 80075cc:	e7b1      	b.n	8007532 <__sflush_r+0x1a>
 80075ce:	89a3      	ldrh	r3, [r4, #12]
 80075d0:	f043 0340 	orr.w	r3, r3, #64	; 0x40
 80075d4:	81a3      	strh	r3, [r4, #12]
 80075d6:	e7ad      	b.n	8007534 <__sflush_r+0x1c>
 80075d8:	690f      	ldr	r7, [r1, #16]
 80075da:	2f00      	cmp	r7, #0
 80075dc:	d0a9      	beq.n	8007532 <__sflush_r+0x1a>
 80075de:	0793      	lsls	r3, r2, #30
 80075e0:	680e      	ldr	r6, [r1, #0]
 80075e2:	bf08      	it	eq
 80075e4:	694b      	ldreq	r3, [r1, #20]
 80075e6:	600f      	str	r7, [r1, #0]
 80075e8:	bf18      	it	ne
 80075ea:	2300      	movne	r3, #0
 80075ec:	eba6 0807 	sub.w	r8, r6, r7
 80075f0:	608b      	str	r3, [r1, #8]
 80075f2:	f1b8 0f00 	cmp.w	r8, #0
 80075f6:	dd9c      	ble.n	8007532 <__sflush_r+0x1a>
 80075f8:	6a21      	ldr	r1, [r4, #32]
 80075fa:	6aa6      	ldr	r6, [r4, #40]	; 0x28
 80075fc:	4643      	mov	r3, r8
 80075fe:	463a      	mov	r2, r7
 8007600:	4628      	mov	r0, r5
 8007602:	47b0      	blx	r6
 8007604:	2800      	cmp	r0, #0
 8007606:	dc06      	bgt.n	8007616 <__sflush_r+0xfe>
 8007608:	89a3      	ldrh	r3, [r4, #12]
 800760a:	f043 0340 	orr.w	r3, r3, #64	; 0x40
 800760e:	81a3      	strh	r3, [r4, #12]
 8007610:	f04f 30ff 	mov.w	r0, #4294967295
 8007614:	e78e      	b.n	8007534 <__sflush_r+0x1c>
 8007616:	4407      	add	r7, r0
 8007618:	eba8 0800 	sub.w	r8, r8, r0
 800761c:	e7e9      	b.n	80075f2 <__sflush_r+0xda>
 800761e:	bf00      	nop
 8007620:	20400001 	.word	0x20400001

08007624 <_fflush_r>:
 8007624:	b538      	push	{r3, r4, r5, lr}
 8007626:	690b      	ldr	r3, [r1, #16]
 8007628:	4605      	mov	r5, r0
 800762a:	460c      	mov	r4, r1
 800762c:	b913      	cbnz	r3, 8007634 <_fflush_r+0x10>
 800762e:	2500      	movs	r5, #0
 8007630:	4628      	mov	r0, r5
 8007632:	bd38      	pop	{r3, r4, r5, pc}
 8007634:	b118      	cbz	r0, 800763e <_fflush_r+0x1a>
 8007636:	6983      	ldr	r3, [r0, #24]
 8007638:	b90b      	cbnz	r3, 800763e <_fflush_r+0x1a>
 800763a:	f7ff f951 	bl	80068e0 <__sinit>
 800763e:	4b14      	ldr	r3, [pc, #80]	; (8007690 <_fflush_r+0x6c>)
 8007640:	429c      	cmp	r4, r3
 8007642:	d11b      	bne.n	800767c <_fflush_r+0x58>
 8007644:	686c      	ldr	r4, [r5, #4]
 8007646:	f9b4 300c 	ldrsh.w	r3, [r4, #12]
 800764a:	2b00      	cmp	r3, #0
 800764c:	d0ef      	beq.n	800762e <_fflush_r+0xa>
 800764e:	6e62      	ldr	r2, [r4, #100]	; 0x64
 8007650:	07d0      	lsls	r0, r2, #31
 8007652:	d404      	bmi.n	800765e <_fflush_r+0x3a>
 8007654:	0599      	lsls	r1, r3, #22
 8007656:	d402      	bmi.n	800765e <_fflush_r+0x3a>
 8007658:	6da0      	ldr	r0, [r4, #88]	; 0x58
 800765a:	f7ff f9df 	bl	8006a1c <__retarget_lock_acquire_recursive>
 800765e:	4628      	mov	r0, r5
 8007660:	4621      	mov	r1, r4
 8007662:	f7ff ff59 	bl	8007518 <__sflush_r>
 8007666:	6e63      	ldr	r3, [r4, #100]	; 0x64
 8007668:	07da      	lsls	r2, r3, #31
 800766a:	4605      	mov	r5, r0
 800766c:	d4e0      	bmi.n	8007630 <_fflush_r+0xc>
 800766e:	89a3      	ldrh	r3, [r4, #12]
 8007670:	059b      	lsls	r3, r3, #22
 8007672:	d4dd      	bmi.n	8007630 <_fflush_r+0xc>
 8007674:	6da0      	ldr	r0, [r4, #88]	; 0x58
 8007676:	f7ff f9d2 	bl	8006a1e <__retarget_lock_release_recursive>
 800767a:	e7d9      	b.n	8007630 <_fflush_r+0xc>
 800767c:	4b05      	ldr	r3, [pc, #20]	; (8007694 <_fflush_r+0x70>)
 800767e:	429c      	cmp	r4, r3
 8007680:	d101      	bne.n	8007686 <_fflush_r+0x62>
 8007682:	68ac      	ldr	r4, [r5, #8]
 8007684:	e7df      	b.n	8007646 <_fflush_r+0x22>
 8007686:	4b04      	ldr	r3, [pc, #16]	; (8007698 <_fflush_r+0x74>)
 8007688:	429c      	cmp	r4, r3
 800768a:	bf08      	it	eq
 800768c:	68ec      	ldreq	r4, [r5, #12]
 800768e:	e7da      	b.n	8007646 <_fflush_r+0x22>
 8007690:	08032588 	.word	0x08032588
 8007694:	080325a8 	.word	0x080325a8
 8007698:	08032568 	.word	0x08032568

0800769c <_lseek_r>:
 800769c:	b538      	push	{r3, r4, r5, lr}
 800769e:	4d07      	ldr	r5, [pc, #28]	; (80076bc <_lseek_r+0x20>)
 80076a0:	4604      	mov	r4, r0
 80076a2:	4608      	mov	r0, r1
 80076a4:	4611      	mov	r1, r2
 80076a6:	2200      	movs	r2, #0
 80076a8:	602a      	str	r2, [r5, #0]
 80076aa:	461a      	mov	r2, r3
 80076ac:	f7fa f8c0 	bl	8001830 <_lseek>
 80076b0:	1c43      	adds	r3, r0, #1
 80076b2:	d102      	bne.n	80076ba <_lseek_r+0x1e>
 80076b4:	682b      	ldr	r3, [r5, #0]
 80076b6:	b103      	cbz	r3, 80076ba <_lseek_r+0x1e>
 80076b8:	6023      	str	r3, [r4, #0]
 80076ba:	bd38      	pop	{r3, r4, r5, pc}
 80076bc:	20016100 	.word	0x20016100

080076c0 <__swhatbuf_r>:
 80076c0:	b570      	push	{r4, r5, r6, lr}
 80076c2:	460e      	mov	r6, r1
 80076c4:	f9b1 100e 	ldrsh.w	r1, [r1, #14]
 80076c8:	2900      	cmp	r1, #0
 80076ca:	b096      	sub	sp, #88	; 0x58
 80076cc:	4614      	mov	r4, r2
 80076ce:	461d      	mov	r5, r3
 80076d0:	da07      	bge.n	80076e2 <__swhatbuf_r+0x22>
 80076d2:	2300      	movs	r3, #0
 80076d4:	602b      	str	r3, [r5, #0]
 80076d6:	89b3      	ldrh	r3, [r6, #12]
 80076d8:	061a      	lsls	r2, r3, #24
 80076da:	d410      	bmi.n	80076fe <__swhatbuf_r+0x3e>
 80076dc:	f44f 6380 	mov.w	r3, #1024	; 0x400
 80076e0:	e00e      	b.n	8007700 <__swhatbuf_r+0x40>
 80076e2:	466a      	mov	r2, sp
 80076e4:	f000 f8a2 	bl	800782c <_fstat_r>
 80076e8:	2800      	cmp	r0, #0
 80076ea:	dbf2      	blt.n	80076d2 <__swhatbuf_r+0x12>
 80076ec:	9a01      	ldr	r2, [sp, #4]
 80076ee:	f402 4270 	and.w	r2, r2, #61440	; 0xf000
 80076f2:	f5a2 5300 	sub.w	r3, r2, #8192	; 0x2000
 80076f6:	425a      	negs	r2, r3
 80076f8:	415a      	adcs	r2, r3
 80076fa:	602a      	str	r2, [r5, #0]
 80076fc:	e7ee      	b.n	80076dc <__swhatbuf_r+0x1c>
 80076fe:	2340      	movs	r3, #64	; 0x40
 8007700:	2000      	movs	r0, #0
 8007702:	6023      	str	r3, [r4, #0]
 8007704:	b016      	add	sp, #88	; 0x58
 8007706:	bd70      	pop	{r4, r5, r6, pc}

08007708 <__smakebuf_r>:
 8007708:	898b      	ldrh	r3, [r1, #12]
 800770a:	b573      	push	{r0, r1, r4, r5, r6, lr}
 800770c:	079d      	lsls	r5, r3, #30
 800770e:	4606      	mov	r6, r0
 8007710:	460c      	mov	r4, r1
 8007712:	d507      	bpl.n	8007724 <__smakebuf_r+0x1c>
 8007714:	f104 0347 	add.w	r3, r4, #71	; 0x47
 8007718:	6023      	str	r3, [r4, #0]
 800771a:	6123      	str	r3, [r4, #16]
 800771c:	2301      	movs	r3, #1
 800771e:	6163      	str	r3, [r4, #20]
 8007720:	b002      	add	sp, #8
 8007722:	bd70      	pop	{r4, r5, r6, pc}
 8007724:	ab01      	add	r3, sp, #4
 8007726:	466a      	mov	r2, sp
 8007728:	f7ff ffca 	bl	80076c0 <__swhatbuf_r>
 800772c:	9900      	ldr	r1, [sp, #0]
 800772e:	4605      	mov	r5, r0
 8007730:	4630      	mov	r0, r6
 8007732:	f7fe ffdb 	bl	80066ec <_malloc_r>
 8007736:	b948      	cbnz	r0, 800774c <__smakebuf_r+0x44>
 8007738:	f9b4 300c 	ldrsh.w	r3, [r4, #12]
 800773c:	059a      	lsls	r2, r3, #22
 800773e:	d4ef      	bmi.n	8007720 <__smakebuf_r+0x18>
 8007740:	f023 0303 	bic.w	r3, r3, #3
 8007744:	f043 0302 	orr.w	r3, r3, #2
 8007748:	81a3      	strh	r3, [r4, #12]
 800774a:	e7e3      	b.n	8007714 <__smakebuf_r+0xc>
 800774c:	4b0d      	ldr	r3, [pc, #52]	; (8007784 <__smakebuf_r+0x7c>)
 800774e:	62b3      	str	r3, [r6, #40]	; 0x28
 8007750:	89a3      	ldrh	r3, [r4, #12]
 8007752:	6020      	str	r0, [r4, #0]
 8007754:	f043 0380 	orr.w	r3, r3, #128	; 0x80
 8007758:	81a3      	strh	r3, [r4, #12]
 800775a:	9b00      	ldr	r3, [sp, #0]
 800775c:	6163      	str	r3, [r4, #20]
 800775e:	9b01      	ldr	r3, [sp, #4]
 8007760:	6120      	str	r0, [r4, #16]
 8007762:	b15b      	cbz	r3, 800777c <__smakebuf_r+0x74>
 8007764:	f9b4 100e 	ldrsh.w	r1, [r4, #14]
 8007768:	4630      	mov	r0, r6
 800776a:	f000 f871 	bl	8007850 <_isatty_r>
 800776e:	b128      	cbz	r0, 800777c <__smakebuf_r+0x74>
 8007770:	89a3      	ldrh	r3, [r4, #12]
 8007772:	f023 0303 	bic.w	r3, r3, #3
 8007776:	f043 0301 	orr.w	r3, r3, #1
 800777a:	81a3      	strh	r3, [r4, #12]
 800777c:	89a0      	ldrh	r0, [r4, #12]
 800777e:	4305      	orrs	r5, r0
 8007780:	81a5      	strh	r5, [r4, #12]
 8007782:	e7cd      	b.n	8007720 <__smakebuf_r+0x18>
 8007784:	08006879 	.word	0x08006879

08007788 <memmove>:
 8007788:	4288      	cmp	r0, r1
 800778a:	b510      	push	{r4, lr}
 800778c:	eb01 0402 	add.w	r4, r1, r2
 8007790:	d902      	bls.n	8007798 <memmove+0x10>
 8007792:	4284      	cmp	r4, r0
 8007794:	4623      	mov	r3, r4
 8007796:	d807      	bhi.n	80077a8 <memmove+0x20>
 8007798:	1e43      	subs	r3, r0, #1
 800779a:	42a1      	cmp	r1, r4
 800779c:	d008      	beq.n	80077b0 <memmove+0x28>
 800779e:	f811 2b01 	ldrb.w	r2, [r1], #1
 80077a2:	f803 2f01 	strb.w	r2, [r3, #1]!
 80077a6:	e7f8      	b.n	800779a <memmove+0x12>
 80077a8:	4402      	add	r2, r0
 80077aa:	4601      	mov	r1, r0
 80077ac:	428a      	cmp	r2, r1
 80077ae:	d100      	bne.n	80077b2 <memmove+0x2a>
 80077b0:	bd10      	pop	{r4, pc}
 80077b2:	f813 4d01 	ldrb.w	r4, [r3, #-1]!
 80077b6:	f802 4d01 	strb.w	r4, [r2, #-1]!
 80077ba:	e7f7      	b.n	80077ac <memmove+0x24>

080077bc <_realloc_r>:
 80077bc:	b5f8      	push	{r3, r4, r5, r6, r7, lr}
 80077be:	4607      	mov	r7, r0
 80077c0:	4614      	mov	r4, r2
 80077c2:	460e      	mov	r6, r1
 80077c4:	b921      	cbnz	r1, 80077d0 <_realloc_r+0x14>
 80077c6:	e8bd 40f8 	ldmia.w	sp!, {r3, r4, r5, r6, r7, lr}
 80077ca:	4611      	mov	r1, r2
 80077cc:	f7fe bf8e 	b.w	80066ec <_malloc_r>
 80077d0:	b922      	cbnz	r2, 80077dc <_realloc_r+0x20>
 80077d2:	f7fe ff3b 	bl	800664c <_free_r>
 80077d6:	4625      	mov	r5, r4
 80077d8:	4628      	mov	r0, r5
 80077da:	bdf8      	pop	{r3, r4, r5, r6, r7, pc}
 80077dc:	f000 f848 	bl	8007870 <_malloc_usable_size_r>
 80077e0:	42a0      	cmp	r0, r4
 80077e2:	d20f      	bcs.n	8007804 <_realloc_r+0x48>
 80077e4:	4621      	mov	r1, r4
 80077e6:	4638      	mov	r0, r7
 80077e8:	f7fe ff80 	bl	80066ec <_malloc_r>
 80077ec:	4605      	mov	r5, r0
 80077ee:	2800      	cmp	r0, #0
 80077f0:	d0f2      	beq.n	80077d8 <_realloc_r+0x1c>
 80077f2:	4631      	mov	r1, r6
 80077f4:	4622      	mov	r2, r4
 80077f6:	f7fe ff13 	bl	8006620 <memcpy>
 80077fa:	4631      	mov	r1, r6
 80077fc:	4638      	mov	r0, r7
 80077fe:	f7fe ff25 	bl	800664c <_free_r>
 8007802:	e7e9      	b.n	80077d8 <_realloc_r+0x1c>
 8007804:	4635      	mov	r5, r6
 8007806:	e7e7      	b.n	80077d8 <_realloc_r+0x1c>

08007808 <_read_r>:
 8007808:	b538      	push	{r3, r4, r5, lr}
 800780a:	4d07      	ldr	r5, [pc, #28]	; (8007828 <_read_r+0x20>)
 800780c:	4604      	mov	r4, r0
 800780e:	4608      	mov	r0, r1
 8007810:	4611      	mov	r1, r2
 8007812:	2200      	movs	r2, #0
 8007814:	602a      	str	r2, [r5, #0]
 8007816:	461a      	mov	r2, r3
 8007818:	f7f9 ffe6 	bl	80017e8 <_read>
 800781c:	1c43      	adds	r3, r0, #1
 800781e:	d102      	bne.n	8007826 <_read_r+0x1e>
 8007820:	682b      	ldr	r3, [r5, #0]
 8007822:	b103      	cbz	r3, 8007826 <_read_r+0x1e>
 8007824:	6023      	str	r3, [r4, #0]
 8007826:	bd38      	pop	{r3, r4, r5, pc}
 8007828:	20016100 	.word	0x20016100

0800782c <_fstat_r>:
 800782c:	b538      	push	{r3, r4, r5, lr}
 800782e:	4d07      	ldr	r5, [pc, #28]	; (800784c <_fstat_r+0x20>)
 8007830:	2300      	movs	r3, #0
 8007832:	4604      	mov	r4, r0
 8007834:	4608      	mov	r0, r1
 8007836:	4611      	mov	r1, r2
 8007838:	602b      	str	r3, [r5, #0]
 800783a:	f7f9 fff2 	bl	8001822 <_fstat>
 800783e:	1c43      	adds	r3, r0, #1
 8007840:	d102      	bne.n	8007848 <_fstat_r+0x1c>
 8007842:	682b      	ldr	r3, [r5, #0]
 8007844:	b103      	cbz	r3, 8007848 <_fstat_r+0x1c>
 8007846:	6023      	str	r3, [r4, #0]
 8007848:	bd38      	pop	{r3, r4, r5, pc}
 800784a:	bf00      	nop
 800784c:	20016100 	.word	0x20016100

08007850 <_isatty_r>:
 8007850:	b538      	push	{r3, r4, r5, lr}
 8007852:	4d06      	ldr	r5, [pc, #24]	; (800786c <_isatty_r+0x1c>)
 8007854:	2300      	movs	r3, #0
 8007856:	4604      	mov	r4, r0
 8007858:	4608      	mov	r0, r1
 800785a:	602b      	str	r3, [r5, #0]
 800785c:	f7f9 ffe6 	bl	800182c <_isatty>
 8007860:	1c43      	adds	r3, r0, #1
 8007862:	d102      	bne.n	800786a <_isatty_r+0x1a>
 8007864:	682b      	ldr	r3, [r5, #0]
 8007866:	b103      	cbz	r3, 800786a <_isatty_r+0x1a>
 8007868:	6023      	str	r3, [r4, #0]
 800786a:	bd38      	pop	{r3, r4, r5, pc}
 800786c:	20016100 	.word	0x20016100

08007870 <_malloc_usable_size_r>:
 8007870:	f851 3c04 	ldr.w	r3, [r1, #-4]
 8007874:	1f18      	subs	r0, r3, #4
 8007876:	2b00      	cmp	r3, #0
 8007878:	bfbc      	itt	lt
 800787a:	580b      	ldrlt	r3, [r1, r0]
 800787c:	18c0      	addlt	r0, r0, r3
 800787e:	4770      	bx	lr

08007880 <_init>:
 8007880:	b5f8      	push	{r3, r4, r5, r6, r7, lr}
 8007882:	bf00      	nop
 8007884:	bcf8      	pop	{r3, r4, r5, r6, r7}
 8007886:	bc08      	pop	{r3}
 8007888:	469e      	mov	lr, r3
 800788a:	4770      	bx	lr

0800788c <_fini>:
 800788c:	b5f8      	push	{r3, r4, r5, r6, r7, lr}
 800788e:	bf00      	nop
 8007890:	bcf8      	pop	{r3, r4, r5, r6, r7}
 8007892:	bc08      	pop	{r3}
 8007894:	469e      	mov	lr, r3
 8007896:	4770      	bx	lr
